 PhysXCooking_64

 Timestamp is 68ffbff3 (Mon Oct 27 18:54:43 2025)

 Preferred load address is 0000000180000000

 Start         Length     Name                   Class
 0001:00000000 00000120H .text$di                CODE
 0001:00000120 000b3690H .text$mn                CODE
 0001:000b37b0 00000060H .text$mn$00             CODE
 0001:000b3810 00000d10H .text$mn$21             CODE
 0001:000b4520 00000f3dH .text$x                 CODE
 0002:00000000 00000318H .idata$5                DATA
 0002:00000318 00000038H .00cfg                  DATA
 0002:00000350 00000008H .CRT$XCA                DATA
 0002:00000358 00000030H .CRT$XCU                DATA
 0002:00000388 00000008H .CRT$XCZ                DATA
 0002:00000390 00000008H .CRT$XIA                DATA
 0002:00000398 00000018H .CRT$XIC                DATA
 0002:000003b0 00000008H .CRT$XIZ                DATA
 0002:000003b8 00000008H .CRT$XPA                DATA
 0002:000003c0 00000010H .CRT$XPX                DATA
 0002:000003d0 00000008H .CRT$XPXA               DATA
 0002:000003d8 00000008H .CRT$XPZ                DATA
 0002:000003e0 00000008H .CRT$XTA                DATA
 0002:000003e8 00000008H .CRT$XTZ                DATA
 0002:000003f0 00000000H .gehcont$y              DATA
 0002:000003f0 00000000H .gfids$y                DATA
 0002:000003f0 00021600H .rdata                  DATA
 0002:000219f0 00000190H .rdata$00               DATA
 0002:00021b80 00000080H .rdata$CastGuardVftablesA DATA
 0002:00021c00 00000080H .rdata$CastGuardVftablesC DATA
 0002:00021c80 00000464H .rdata$r                DATA
 0002:000220e4 000001a0H .rdata$voltmd           DATA
 0002:00022284 000004c4H .rdata$zzzdbg           DATA
 0002:00022748 00000008H .rtc$IAA                DATA
 0002:00022750 00000010H .rtc$IMZ                DATA
 0002:00022760 00000008H .rtc$IZZ                DATA
 0002:00022768 00000008H .rtc$TAA                DATA
 0002:00022770 00000010H .rtc$TMZ                DATA
 0002:00022780 00000008H .rtc$TZZ                DATA
 0002:00022788 00007350H .xdata                  DATA
 0002:00029ad8 00000084H .xdata$x                DATA
 0002:00029b5c 00000040H .didat$2                DATA
 0002:00029b9c 00000024H .didat$3                DATA
 0002:00029bc0 000000d8H .didat$4                DATA
 0002:00029c98 000002a0H .didat$6                DATA
 0002:00029f38 000001f8H .didat$7                DATA
 0002:0002a130 00000af8H .edata                  DATA
 0002:0002ac28 00000014H .idata$2                DATA
 0002:0002ac3c 00000014H .idata$3                DATA
 0002:0002ac50 00000318H .idata$4                DATA
 0002:0002af68 0000072eH .idata$6                DATA
 0003:00000000 00000b40H .data                   DATA
 0003:00000b40 00000108H .data$r                 DATA
 0003:00000c48 000000f0H .data$rs                DATA
 0003:00000d38 000000d8H .didat$5                DATA
 0003:00000e10 00001a68H .bss                    DATA
 0004:00000000 000088c8H .pdata                  DATA
 0005:00000000 00000100H .fptable                DATA
 0006:00000000 000000a0H .rsrc$01                DATA
 0006:000000a0 000004b0H .rsrc$02                DATA

  Address         Publics by Value              Rva+Base               Lib:Object

 0000:00000000       __AbsoluteZero             0000000000000000     <absolute>
 0000:00000000       ___safe_se_handler_count   0000000000000000     <absolute>
 0000:00000000       ___safe_se_handler_table   0000000000000000     <absolute>
 0000:00000000       __arm64x_extra_rfe_table   0000000000000000     <absolute>
 0000:00000000       __arm64x_extra_rfe_table_size 0000000000000000     <absolute>
 0000:00000000       __arm64x_native_entrypoint 0000000000000000     <absolute>
 0000:00000000       __arm64x_redirection_metadata 0000000000000000     <absolute>
 0000:00000000       __arm64x_redirection_metadata_count 0000000000000000     <absolute>
 0000:00000000       __dynamic_value_reloc_table 0000000000000000     <absolute>
 0000:00000000       __enclave_config           0000000000000000     <absolute>
 0000:00000000       __guard_check_icall_a64n_fptr 0000000000000000     <absolute>
 0000:00000000       __guard_eh_cont_count      0000000000000000     <absolute>
 0000:00000000       __guard_eh_cont_table      0000000000000000     <absolute>
 0000:00000000       __guard_fids_count         0000000000000000     <absolute>
 0000:00000000       __guard_fids_table         0000000000000000     <absolute>
 0000:00000000       __guard_iat_count          0000000000000000     <absolute>
 0000:00000000       __guard_iat_table          0000000000000000     <absolute>
 0000:00000000       __guard_longjmp_count      0000000000000000     <absolute>
 0000:00000000       __guard_longjmp_table      0000000000000000     <absolute>
 0000:00000000       __hybrid_auxiliary_delayload_iat 0000000000000000     <absolute>
 0000:00000000       __hybrid_auxiliary_delayload_iat_copy 0000000000000000     <absolute>
 0000:00000000       __hybrid_auxiliary_iat     0000000000000000     <absolute>
 0000:00000000       __hybrid_auxiliary_iat_copy 0000000000000000     <absolute>
 0000:00000000       __hybrid_code_map          0000000000000000     <absolute>
 0000:00000000       __hybrid_code_map_count    0000000000000000     <absolute>
 0000:00000000       __hybrid_image_info_bitfield 0000000000000000     <absolute>
 0000:00000000       __x64_code_ranges_to_entry_points 0000000000000000     <absolute>
 0000:00000000       __x64_code_ranges_to_entry_points_count 0000000000000000     <absolute>
 0000:00000100       __guard_flags              0000000000000100     <absolute>
 0000:00000000       __ImageBase                0000000180000000     <linker-defined>
 0001:00000120       PxGetStandaloneInsertionCallback 0000000180001120 f   Cooking.obj
 0001:00000140       PxCookBVH                  0000000180001140 f   Cooking.obj
 0001:00000170       PxCreateBVH                0000000180001170 f   Cooking.obj
 0001:000001a0       PxCookHeightField          00000001800011a0 f   Cooking.obj
 0001:000001d0       PxCreateHeightField        00000001800011d0 f   Cooking.obj
 0001:00000200       PxCookConvexMesh           0000000180001200 f   Cooking.obj
 0001:00000240       PxCreateConvexMesh         0000000180001240 f   Cooking.obj
 0001:00000280       PxValidateConvexMesh       0000000180001280 f   Cooking.obj
 0001:000002b0       PxComputeHullPolygons      00000001800012b0 f   Cooking.obj
 0001:00000330       PxValidateTriangleMesh     0000000180001330 f   Cooking.obj
 0001:00000360       PxCookTriangleMesh         0000000180001360 f   Cooking.obj
 0001:000003a0       PxCreateTriangleMesh       00000001800013a0 f   Cooking.obj
 0001:000003e0       PxCookTetrahedronMesh      00000001800013e0 f   Cooking.obj
 0001:00000420       PxCreateTetrahedronMesh    0000000180001420 f   Cooking.obj
 0001:00000460       PxCookDeformableVolumeMesh 0000000180001460 f   Cooking.obj
 0001:000004b0       PxCreateDeformableVolumeMesh 00000001800014b0 f   Cooking.obj
 0001:00000500       PxComputeModelsMapping     0000000180001500 f   Cooking.obj
 0001:00000550       PxComputeCollisionData     0000000180001550 f   Cooking.obj
 0001:00000580       PxComputeSimulationData    0000000180001580 f   Cooking.obj
 0001:000005b0       PxAssembleDeformableVolumeMesh 00000001800015b0 f   Cooking.obj
 0001:00000600       PxCreateTriangleMeshInternal 0000000180001600 f   Cooking.obj
 0001:000006a0       PxCreateBVHInternal        00000001800016a0 f   Cooking.obj
 0001:00000740       ??$?4V?$PxReflectionAllocator@USlab@NodeAllocator@Gu@physx@@@physx@@@?$PxArray@USlab@NodeAllocator@Gu@physx@@V?$PxReflectionAllocator@USlab@NodeAllocator@Gu@physx@@@4@@physx@@QEAAAEAV01@AEBV01@@Z 0000000180001740 f i Cooking.obj
 0001:000007d0       ??$PX_UNUSED@PEAI@@YAXAEBQEAI@Z 00000001800017d0 f i Cooking.obj
 0001:000007e0       ??$copy@V?$PxReflectionAllocator@USlab@NodeAllocator@Gu@physx@@@physx@@@?$PxArray@USlab@NodeAllocator@Gu@physx@@V?$PxReflectionAllocator@USlab@NodeAllocator@Gu@physx@@@4@@physx@@IEAAXAEBV01@@Z 00000001800017e0 f i Cooking.obj
 0001:000008a0       ??0?$PxArray@USlab@NodeAllocator@Gu@physx@@V?$PxReflectionAllocator@USlab@NodeAllocator@Gu@physx@@@4@@physx@@QEAA@AEBV01@AEBV?$PxReflectionAllocator@USlab@NodeAllocator@Gu@physx@@@1@@Z 00000001800018a0 f i Cooking.obj
 0001:000008e0       ??0?$PxReflectionAllocator@USlab@NodeAllocator@Gu@physx@@@physx@@QEAA@AEBV01@@Z 00000001800018e0 f i Cooking.obj
 0001:000008f0       ??0?$PxReflectionAllocator@USlab@NodeAllocator@Gu@physx@@@physx@@QEAA@PEBD@Z 00000001800018f0 f i Cooking.obj
 0001:00000900       ??0?$PxReflectionAllocator@VBV4TriangleMesh@Gu@physx@@@physx@@QEAA@PEBD@Z 0000000180001900 f i Cooking.obj
 0001:00000910       ??0?$PxReflectionAllocator@VBVH@Gu@physx@@@physx@@QEAA@PEBD@Z 0000000180001910 f i Cooking.obj
 0001:00000920       ??0?$PxVec3T@M@physx@@QEAA@XZ 0000000180001920 f i Cooking.obj
 0001:00000930       ??0AABBTreeBounds@Gu@physx@@QEAA@XZ 0000000180001930 f i Cooking.obj
 0001:00000960       ??0AABBTreeBuildNode@Gu@physx@@QEAA@AEBV012@@Z 0000000180001960 f i Cooking.obj
 0001:000009c0       ??0AABBTreeBuildNode@Gu@physx@@QEAA@XZ 00000001800019c0 f i Cooking.obj
 0001:000009f0       ??0AABBTreeBuildParams@Gu@physx@@QEAA@IIPEBVAABBTreeBounds@12@W4BVHBuildStrategy@12@@Z 00000001800019f0 f i Cooking.obj
 0001:00000a50       ??0NodeAllocator@Gu@physx@@QEAA@AEBV012@@Z 0000000180001a50 f i Cooking.obj
 0001:00000ad0       ??0PxAllocator@physx@@QEAA@PEBD@Z 0000000180001ad0 f i Cooking.obj
 0001:00000ae0       ??0PxBounds3@physx@@QEAA@AEBV01@@Z 0000000180001ae0 f i Cooking.obj
 0001:00000b50       ??0PxBounds3@physx@@QEAA@XZ 0000000180001b50 f i Cooking.obj
 0001:00000b90       ??0PxFoundation@physx@@QEAA@AEBV01@@Z 0000000180001b90 f i Cooking.obj
 0001:00000bb0       ??0PxFoundation@physx@@QEAA@XZ 0000000180001bb0 f i Cooking.obj
 0001:00000bd0       ??1AABBTreeBounds@Gu@physx@@QEAA@XZ 0000000180001bd0 f i Cooking.obj
 0001:00000bf0       ??1AABBTreeBuildNode@Gu@physx@@QEAA@XZ 0000000180001bf0 f i Cooking.obj
 0001:00000c00       ??1AABBTreeBuildParams@Gu@physx@@QEAA@XZ 0000000180001c00 f i Cooking.obj
 0001:00000c20       ??1PxFoundation@physx@@MEAA@XZ 0000000180001c20 f i Cooking.obj
 0001:00000c40       ??2@YAPEAX_KPEAX@Z         0000000180001c40 f i Cooking.obj
 0001:00000c50       ??2PxUserAllocated@physx@@SAPEAX_KPEAX@Z 0000000180001c50 f i Cooking.obj
 0001:00000c60       ??4?$PxArray@USlab@NodeAllocator@Gu@physx@@V?$PxReflectionAllocator@USlab@NodeAllocator@Gu@physx@@@4@@physx@@QEAAAEAV01@AEBV01@@Z 0000000180001c60 f i Cooking.obj
 0001:00000c90       ??4?$PxVec3T@M@physx@@QEAAAEAV01@AEBV01@@Z 0000000180001c90 f i Cooking.obj
 0001:00000ce0       ??4AABBTreeBounds@Gu@physx@@QEAAAEAV012@AEBV012@@Z 0000000180001ce0 f i Cooking.obj
 0001:00000d10       ??4AABBTreeBuildNode@Gu@physx@@QEAAAEAV012@AEBV012@@Z 0000000180001d10 f i Cooking.obj
 0001:00000d70       ??4AABBTreeBuildParams@Gu@physx@@QEAAAEAV012@AEBV012@@Z 0000000180001d70 f i Cooking.obj
 0001:00000da0       ??4NodeAllocator@Gu@physx@@QEAAAEAV012@AEBV012@@Z 0000000180001da0 f i Cooking.obj
 0001:00000e10       ??4PxBounds3@physx@@QEAAXAEBV01@@Z 0000000180001e10 f i Cooking.obj
 0001:00000e50       ??4PxFoundation@physx@@QEAAAEAV01@AEBV01@@Z 0000000180001e50 f i Cooking.obj
 0001:00000e60       ??_EPxFoundation@physx@@MEAAPEAXI@Z 0000000180001e60 f i Cooking.obj
 0001:00000f00       ??_FAABBTreeBuildParams@Gu@physx@@QEAAXXZ 0000000180001f00 f i Cooking.obj
 0001:00000f30       ??_GPxFoundation@physx@@MEAAPEAXI@Z 0000000180001f30 f i Cooking.obj
 0001:00000f70       ??_H@YAXPEAX_K1P6APEAX0@Z@Z 0000000180001f70 f i Cooking.obj
 0001:00000ff0       ??_I@YAXPEAX_K1P6AX0@Z@Z   0000000180001ff0 f i Cooking.obj
 0001:00001090       ?FLoad@aos@physx@@YA?AT__m128@@M@Z 0000000180002090 f i Cooking.obj
 0001:000010c0       ?PxMarkSerializedMemory@physx@@YAXPEAXI@Z 00000001800020c0 f i Cooking.obj
 0001:000010f0       ?PxMemSet@physx@@YAPEAXPEAXHI@Z 00000001800020f0 f i Cooking.obj
 0001:00001140       ?V3Load@aos@physx@@YA?AT__m128@@M@Z 0000000180002140 f i Cooking.obj
 0001:00001180       ?V4Load@aos@physx@@YA?AT__m128@@M@Z 0000000180002180 f i Cooking.obj
 0001:000011b0       ?__empty_global_delete@@YAXPEAX@Z 00000001800021b0 f i Cooking.obj
 0001:000011c0       ?__empty_global_delete@@YAXPEAX_K@Z 00000001800021c0 f i Cooking.obj
 0001:000011d0       ?__global_array_delete@@YAXPEAX@Z 00000001800021d0 f i Cooking.obj
 0001:000011f0       ?__global_array_delete@@YAXPEAX_K@Z 00000001800021f0 f i Cooking.obj
 0001:00001220       ?__global_delete@@YAXPEAX@Z 0000000180002220 f i Cooking.obj
 0001:00001240       ?__global_delete@@YAXPEAX_K@Z 0000000180002240 f i Cooking.obj
 0001:00001270       ?allocate@?$PxArray@USlab@NodeAllocator@Gu@physx@@V?$PxReflectionAllocator@USlab@NodeAllocator@Gu@physx@@@4@@physx@@IEAAPEAUSlab@NodeAllocator@Gu@2@IPEAI@Z 0000000180002270 f i Cooking.obj
 0001:000012e0       ?allocate@?$PxReflectionAllocator@USlab@NodeAllocator@Gu@physx@@@physx@@SAPEAX_KPEBDHPEAI@Z 00000001800022e0 f i Cooking.obj
 0001:00001360       ?allocate@?$PxReflectionAllocator@VBV4TriangleMesh@Gu@physx@@@physx@@SAPEAX_KPEBDHPEAI@Z 0000000180002360 f i Cooking.obj
 0001:000013e0       ?allocate@?$PxReflectionAllocator@VBVH@Gu@physx@@@physx@@SAPEAX_KPEBDHPEAI@Z 00000001800023e0 f i Cooking.obj
 0001:00001460       ?begin@?$PxArray@USlab@NodeAllocator@Gu@physx@@V?$PxReflectionAllocator@USlab@NodeAllocator@Gu@physx@@@4@@physx@@QEBAPEBUSlab@NodeAllocator@Gu@2@XZ 0000000180002460 f i Cooking.obj
 0001:00001470       ?capacity@?$PxArray@USlab@NodeAllocator@Gu@physx@@V?$PxReflectionAllocator@USlab@NodeAllocator@Gu@physx@@@4@@physx@@QEBAIXZ 0000000180002470 f i Cooking.obj
 0001:00001490       ?clear@?$PxArray@USlab@NodeAllocator@Gu@physx@@V?$PxReflectionAllocator@USlab@NodeAllocator@Gu@physx@@@4@@physx@@QEAAXXZ 0000000180002490 f i Cooking.obj
 0001:000014d0       ?copy@?$PxArray@USlab@NodeAllocator@Gu@physx@@V?$PxReflectionAllocator@USlab@NodeAllocator@Gu@physx@@@4@@physx@@KAXPEAUSlab@NodeAllocator@Gu@2@0PEBU3452@@Z 00000001800024d0 f i Cooking.obj
 0001:00001550       ?deallocate@?$PxArray@USlab@NodeAllocator@Gu@physx@@V?$PxReflectionAllocator@USlab@NodeAllocator@Gu@physx@@@4@@physx@@IEAAXPEAXPEAI@Z 0000000180002550 f i Cooking.obj
 0001:00001580       ?deallocate@?$PxReflectionAllocator@USlab@NodeAllocator@Gu@physx@@@physx@@SAXPEAXPEAI@Z 0000000180002580 f i Cooking.obj
 0001:000015d0       ?deallocate@PxAllocator@physx@@SAXPEAXPEAI@Z 00000001800025d0 f i Cooking.obj
 0001:00001620       ?destroy@?$PxArray@USlab@NodeAllocator@Gu@physx@@V?$PxReflectionAllocator@USlab@NodeAllocator@Gu@physx@@@4@@physx@@KAXPEAUSlab@NodeAllocator@Gu@2@0@Z 0000000180002620 f i Cooking.obj
 0001:00001650       ?empty@?$PxArray@USlab@NodeAllocator@Gu@physx@@V?$PxReflectionAllocator@USlab@NodeAllocator@Gu@physx@@@4@@physx@@QEBA_NXZ 0000000180002650 f i Cooking.obj
 0001:00001680       ?getAABB@AABBTreeBuildNode@Gu@physx@@QEBAAEBVPxBounds3@3@XZ 0000000180002680 f i Cooking.obj
 0001:00001690       ?getBounds@AABBTreeBounds@Gu@physx@@QEAAPEAVPxBounds3@3@XZ 0000000180002690 f i Cooking.obj
 0001:000016a0       ?getBounds@AABBTreeBounds@Gu@physx@@QEBAPEBVPxBounds3@3@XZ 00000001800026a0 f i Cooking.obj
 0001:000016b0       ?getName@?$PxReflectionAllocator@USlab@NodeAllocator@Gu@physx@@@physx@@CAPEBD_N@Z 00000001800026b0 f i Cooking.obj
 0001:000016e0       ?getName@?$PxReflectionAllocator@VBV4TriangleMesh@Gu@physx@@@physx@@CAPEBD_N@Z 00000001800026e0 f i Cooking.obj
 0001:00001710       ?getName@?$PxReflectionAllocator@VBVH@Gu@physx@@@physx@@CAPEBD_N@Z 0000000180002710 f i Cooking.obj
 0001:00001740       ?getNbPrimitives@AABBTreeBuildNode@Gu@physx@@QEBAIXZ 0000000180002740 f i Cooking.obj
 0001:00001750       ?getNbRuntimePrimitives@AABBTreeBuildNode@Gu@physx@@QEBAIXZ 0000000180002750 f i Cooking.obj
 0001:00001760       ?getNeg@AABBTreeBuildNode@Gu@physx@@QEBAPEBV123@XZ 0000000180002760 f i Cooking.obj
 0001:000017a0       ?getPos@AABBTreeBuildNode@Gu@physx@@QEBAPEBV123@XZ 00000001800027a0 f i Cooking.obj
 0001:000017b0       ?getPrimitives@AABBTreeBuildNode@Gu@physx@@QEAAPEAIPEAI@Z 00000001800027b0 f i Cooking.obj
 0001:000017d0       ?getPrimitives@AABBTreeBuildNode@Gu@physx@@QEBAPEBIPEBI@Z 00000001800027d0 f i Cooking.obj
 0001:000017f0       ?grow@?$PxArray@USlab@NodeAllocator@Gu@physx@@V?$PxReflectionAllocator@USlab@NodeAllocator@Gu@physx@@@4@@physx@@IEAAXI@Z 00000001800027f0 f i Cooking.obj
 0001:00001850       ?isInUserMemory@?$PxArray@USlab@NodeAllocator@Gu@physx@@V?$PxReflectionAllocator@USlab@NodeAllocator@Gu@physx@@@4@@physx@@QEBAIXZ 0000000180002850 f i Cooking.obj
 0001:00001870       ?isLeaf@AABBTreeBuildNode@Gu@physx@@QEBA_NXZ 0000000180002870 f i Cooking.obj
 0001:000018b0       ?memSet@intrinsics@physx@@YAPEAXPEAXH_K@Z 00000001800028b0 f i Cooking.obj
 0001:000018e0       ?moveFrom@AABBTreeBounds@Gu@physx@@QEAAXAEAV123@@Z 00000001800028e0 f i Cooking.obj
 0001:00001910       ?name@type_info@@QEBAPEBDXZ 0000000180002910 f i Cooking.obj
 0001:00001940       ?ownsMemory@AABBTreeBounds@Gu@physx@@QEBA_NXZ 0000000180002940 f i Cooking.obj
 0001:00001970       ?recreate@?$PxArray@USlab@NodeAllocator@Gu@physx@@V?$PxReflectionAllocator@USlab@NodeAllocator@Gu@physx@@@4@@physx@@IEAAXI@Z 0000000180002970 f i Cooking.obj
 0001:00001a80       ?reserve@?$PxArray@USlab@NodeAllocator@Gu@physx@@V?$PxReflectionAllocator@USlab@NodeAllocator@Gu@physx@@@4@@physx@@QEAAXI@Z 0000000180002a80 f i Cooking.obj
 0001:00001ac0       ?reset@AABBTreeBuildParams@Gu@physx@@QEAAXXZ 0000000180002ac0 f i Cooking.obj
 0001:00001b30       ?setBounds@AABBTreeBounds@Gu@physx@@QEAAXPEAVPxBounds3@3@@Z 0000000180002b30 f i Cooking.obj
 0001:00001b60       ?setNbRunTimePrimitives@AABBTreeBuildNode@Gu@physx@@QEAAXI@Z 0000000180002b60 f i Cooking.obj
 0001:00001b80       ?size@?$PxArray@USlab@NodeAllocator@Gu@physx@@V?$PxReflectionAllocator@USlab@NodeAllocator@Gu@physx@@@4@@physx@@QEBAIXZ 0000000180002b80 f i Cooking.obj
 0001:00001b90       ?takeOwnership@AABBTreeBounds@Gu@physx@@QEAAXXZ 0000000180002b90 f i Cooking.obj
 0001:00001bb0       PxSetPhysXCookingDelayLoadHook 0000000180002bb0 f   WindowsCookingDelayLoadHook.obj
 0001:00001bd0       ?cookingDelayHook@@YAP6A_JXZIPEAUDelayLoadInfo@@@Z 0000000180002bd0 f   WindowsCookingDelayLoadHook.obj
 0001:00001c50       ?loadLibrary@Cm@physx@@YAPEAUHINSTANCE__@@PEBD@Z 0000000180002c50 f i WindowsCookingDelayLoadHook.obj
 0001:00001c70       ?physXCommonDliNotePreLoadLibrary@Cm@physx@@YAP6A_JXZPEBDPEBVPxDelayLoadHook@2@@Z 0000000180002c70 f i WindowsCookingDelayLoadHook.obj
 0001:00001cfb       getInsertionCallback       0000000180002cfb f   PhysXCommon_64:PhysXCommon_64.dll
 0001:00001d01       __tailMerge_physxcommon_64_dll 0000000180002d01     PhysXCommon_64:PhysXCommon_64.dll
 0001:00001d7a       __imp_load_getInsertionCallback 0000000180002d7a f   PhysXCommon_64:PhysXCommon_64.dll
 0001:00001d86       cookBVH                    0000000180002d86 f   PhysXCommon_64:PhysXCommon_64.dll
 0001:00001d8c       __imp_load_cookBVH         0000000180002d8c f   PhysXCommon_64:PhysXCommon_64.dll
 0001:00001d98       createBVH                  0000000180002d98 f   PhysXCommon_64:PhysXCommon_64.dll
 0001:00001d9e       __imp_load_createBVH       0000000180002d9e f   PhysXCommon_64:PhysXCommon_64.dll
 0001:00001daa       cookHeightField            0000000180002daa f   PhysXCommon_64:PhysXCommon_64.dll
 0001:00001db0       __imp_load_cookHeightField 0000000180002db0 f   PhysXCommon_64:PhysXCommon_64.dll
 0001:00001dbc       createHeightField          0000000180002dbc f   PhysXCommon_64:PhysXCommon_64.dll
 0001:00001dc2       __imp_load_createHeightField 0000000180002dc2 f   PhysXCommon_64:PhysXCommon_64.dll
 0001:00001dce       cookConvexMesh             0000000180002dce f   PhysXCommon_64:PhysXCommon_64.dll
 0001:00001dd4       __imp_load_cookConvexMesh  0000000180002dd4 f   PhysXCommon_64:PhysXCommon_64.dll
 0001:00001de0       createConvexMesh           0000000180002de0 f   PhysXCommon_64:PhysXCommon_64.dll
 0001:00001de6       __imp_load_createConvexMesh 0000000180002de6 f   PhysXCommon_64:PhysXCommon_64.dll
 0001:00001df2       validateConvexMesh         0000000180002df2 f   PhysXCommon_64:PhysXCommon_64.dll
 0001:00001df8       __imp_load_validateConvexMesh 0000000180002df8 f   PhysXCommon_64:PhysXCommon_64.dll
 0001:00001e04       computeHullPolygons        0000000180002e04 f   PhysXCommon_64:PhysXCommon_64.dll
 0001:00001e0a       __imp_load_computeHullPolygons 0000000180002e0a f   PhysXCommon_64:PhysXCommon_64.dll
 0001:00001e16       validateTriangleMesh       0000000180002e16 f   PhysXCommon_64:PhysXCommon_64.dll
 0001:00001e1c       __imp_load_validateTriangleMesh 0000000180002e1c f   PhysXCommon_64:PhysXCommon_64.dll
 0001:00001e28       createTriangleMesh         0000000180002e28 f   PhysXCommon_64:PhysXCommon_64.dll
 0001:00001e2e       __imp_load_createTriangleMesh 0000000180002e2e f   PhysXCommon_64:PhysXCommon_64.dll
 0001:00001e3a       cookTriangleMesh           0000000180002e3a f   PhysXCommon_64:PhysXCommon_64.dll
 0001:00001e40       __imp_load_cookTriangleMesh 0000000180002e40 f   PhysXCommon_64:PhysXCommon_64.dll
 0001:00001e4c       cookTetrahedronMesh        0000000180002e4c f   PhysXCommon_64:PhysXCommon_64.dll
 0001:00001e52       __imp_load_cookTetrahedronMesh 0000000180002e52 f   PhysXCommon_64:PhysXCommon_64.dll
 0001:00001e5e       createTetrahedronMesh      0000000180002e5e f   PhysXCommon_64:PhysXCommon_64.dll
 0001:00001e64       __imp_load_createTetrahedronMesh 0000000180002e64 f   PhysXCommon_64:PhysXCommon_64.dll
 0001:00001e70       cookDeformableVolumeMesh   0000000180002e70 f   PhysXCommon_64:PhysXCommon_64.dll
 0001:00001e76       __imp_load_cookDeformableVolumeMesh 0000000180002e76 f   PhysXCommon_64:PhysXCommon_64.dll
 0001:00001e82       createDeformableVolumeMesh 0000000180002e82 f   PhysXCommon_64:PhysXCommon_64.dll
 0001:00001e88       __imp_load_createDeformableVolumeMesh 0000000180002e88 f   PhysXCommon_64:PhysXCommon_64.dll
 0001:00001e94       computeModelsMapping       0000000180002e94 f   PhysXCommon_64:PhysXCommon_64.dll
 0001:00001e9a       __imp_load_computeModelsMapping 0000000180002e9a f   PhysXCommon_64:PhysXCommon_64.dll
 0001:00001ea6       computeCollisionData       0000000180002ea6 f   PhysXCommon_64:PhysXCommon_64.dll
 0001:00001eac       __imp_load_computeCollisionData 0000000180002eac f   PhysXCommon_64:PhysXCommon_64.dll
 0001:00001eb8       computeSimulationData      0000000180002eb8 f   PhysXCommon_64:PhysXCommon_64.dll
 0001:00001ebe       __imp_load_computeSimulationData 0000000180002ebe f   PhysXCommon_64:PhysXCommon_64.dll
 0001:00001eca       assembleDeformableVolumeMesh 0000000180002eca f   PhysXCommon_64:PhysXCommon_64.dll
 0001:00001ed0       __imp_load_assembleDeformableVolumeMesh 0000000180002ed0 f   PhysXCommon_64:PhysXCommon_64.dll
 0001:00001edc       ?release@AABBTreeBounds@Gu@physx@@QEAAXXZ 0000000180002edc f   PhysXCommon_64:PhysXCommon_64.dll
 0001:00001ee2       __imp_load_?release@AABBTreeBounds@Gu@physx@@QEAAXXZ 0000000180002ee2 f   PhysXCommon_64:PhysXCommon_64.dll
 0001:00001eee       ??0BVH@Gu@physx@@QEAA@AEBUPxBVHInternalData@2@@Z 0000000180002eee f   PhysXCommon_64:PhysXCommon_64.dll
 0001:00001ef4       __imp_load_??0BVH@Gu@physx@@QEAA@AEBUPxBVHInternalData@2@@Z 0000000180002ef4 f   PhysXCommon_64:PhysXCommon_64.dll
 0001:00001f00       ??0BV4TriangleMesh@Gu@physx@@QEAA@AEBUPxTriangleMeshInternalData@2@@Z 0000000180002f00 f   PhysXCommon_64:PhysXCommon_64.dll
 0001:00001f06       __imp_load_??0BV4TriangleMesh@Gu@physx@@QEAA@AEBUPxTriangleMeshInternalData@2@@Z 0000000180002f06 f   PhysXCommon_64:PhysXCommon_64.dll
 0001:00001f12       ?PxAssert@physx@@YAXPEBD0HAEA_N@Z 0000000180002f12 f   PhysXFoundation_64:PhysXFoundation_64.dll
 0001:00001f18       __tailMerge_physxfoundation_64_dll 0000000180002f18     PhysXFoundation_64:PhysXFoundation_64.dll
 0001:00001f91       __imp_load_?PxAssert@physx@@YAXPEBD0HAEA_N@Z 0000000180002f91 f   PhysXFoundation_64:PhysXFoundation_64.dll
 0001:00001f9d       PxGetBroadcastAllocator    0000000180002f9d f   PhysXFoundation_64:PhysXFoundation_64.dll
 0001:00001fa3       __imp_load_PxGetBroadcastAllocator 0000000180002fa3 f   PhysXFoundation_64:PhysXFoundation_64.dll
 0001:00001faf       LoadLibraryA               0000000180002faf f   kernel32:KERNEL32.dll
 0001:000021bc       ??$PFromRva@PEAP6A_JXZ@@YAPEAP6A_JXZK@Z 00000001800031bc f i Delayimp:delayhlp.obj
 0001:000021cc       ??$PFromRva@PEAPEAUHINSTANCE__@@@@YAPEAPEAUHINSTANCE__@@K@Z 00000001800031cc f i Delayimp:delayhlp.obj
 0001:000021dc       ??$PFromRva@PEAU_IMAGE_IMPORT_BY_NAME@@@@YAPEAU_IMAGE_IMPORT_BY_NAME@@K@Z 00000001800031dc f i Delayimp:delayhlp.obj
 0001:000021ec       ??$PFromRva@PEAU_IMAGE_THUNK_DATA64@@@@YAPEAU_IMAGE_THUNK_DATA64@@K@Z 00000001800031ec f i Delayimp:delayhlp.obj
 0001:000021fc       ??$PFromRva@PEBD@@YAPEBDK@Z 00000001800031fc f i Delayimp:delayhlp.obj
 0001:0000220c       ??$PFromRva@PEBUImgDelayDescr@@@@YAPEBUImgDelayDescr@@K@Z 000000018000320c f i Delayimp:delayhlp.obj
 0001:0000221c       ??$PFromRva@PEBU_IMAGE_THUNK_DATA64@@@@YAPEBU_IMAGE_THUNK_DATA64@@K@Z 000000018000321c f i Delayimp:delayhlp.obj
 0001:00002290       ?CountOfImports@@YAIPEBU_IMAGE_THUNK_DATA64@@@Z 0000000180003290 f i Delayimp:delayhlp.obj
 0001:000022a4       ?DloadAcquireSectionWriteAccess@@YAXXZ 00000001800032a4 f i Delayimp:delayhlp.obj
 0001:00002360       ?DloadGetSRWLockFunctionPointers@@YAEXZ 0000000180003360 f i Delayimp:delayhlp.obj
 0001:00002400       ?DloadLock@@YAXXZ          0000000180003400 f i Delayimp:delayhlp.obj
 0001:00002448       ?DloadMakePermanentImageCommit@@YAXPEAX_K@Z 0000000180003448 f i Delayimp:delayhlp.obj
 0001:000024e0       ?DloadObtainSection@@YAPEAXPEAK0@Z 00000001800034e0 f i Delayimp:delayhlp.obj
 0001:0000257c       ?DloadProtectSection@@YAXPEAX_KKPEAK@Z 000000018000357c f i Delayimp:delayhlp.obj
 0001:00002674       ?DloadReleaseSectionWriteAccess@@YAXXZ 0000000180003674 f i Delayimp:delayhlp.obj
 0001:00002720       ?DloadUnlock@@YAXXZ        0000000180003720 f i Delayimp:delayhlp.obj
 0001:00002760       ?IndexFromPImgThunkData@@YAIPEBU_IMAGE_THUNK_DATA64@@0@Z 0000000180003760 f i Delayimp:delayhlp.obj
 0001:0000276c       ?IsBufferInBounds@@YAEPEAX_K01@Z 000000018000376c f i Delayimp:delayhlp.obj
 0001:00002890       HRESULT_FROM_WIN32         0000000180003890 f i Delayimp:delayhlp.obj
 0001:000028a0       ReadAcquire64              00000001800038a0 f i Delayimp:delayhlp.obj
 0001:000028a4       ReadPointerAcquire         00000001800038a4 f i Delayimp:delayhlp.obj
 0001:000028a8       WritePointerRelease        00000001800038a8 f i Delayimp:delayhlp.obj
 0001:000028ac       WriteRelease64             00000001800038ac f i Delayimp:delayhlp.obj
 0001:000028b0       __FUnloadDelayLoadedDLL2   00000001800038b0 f   Delayimp:delayhlp.obj
 0001:00002968       __HrLoadAllImportsForDll   0000000180003968 f   Delayimp:delayhlp.obj
 0001:000029dc       __delayLoadHelper2         00000001800039dc f   Delayimp:delayhlp.obj
 0001:00002ce0       ??3@YAXPEAX@Z              0000000180003ce0 f   LIBCMTD:delete_scalar.obj
 0001:00002d00       ??3@YAXPEAX_K@Z            0000000180003d00 f   LIBCMTD:delete_scalar_size.obj
 0001:00002d20       ??_V@YAXPEAX@Z             0000000180003d20 f   LIBCMTD:delete_array.obj
 0001:00002d40       ??_V@YAXPEAX_K@Z           0000000180003d40 f   LIBCMTD:delete_array_size.obj
 0001:00002d60       _CRT_RTC_INIT              0000000180003d60 f   LIBCMTD:init.obj
 0001:00002d70       _CRT_RTC_INITW             0000000180003d70 f   LIBCMTD:init.obj
 0001:00002d80       _RTC_InitBase              0000000180003d80 f   LIBCMTD:init.obj
 0001:00002dc0       _RTC_Shutdown              0000000180003dc0 f   LIBCMTD:init.obj
 0001:00002df0       ??1type_info@@UEAA@XZ      0000000180003df0 f   LIBCMTD:std_type_info_static.obj
 0001:00002e10       ??_Etype_info@@UEAAPEAXI@Z 0000000180003e10 f i LIBCMTD:std_type_info_static.obj
 0001:00002e10       ??_Gtype_info@@UEAAPEAXI@Z 0000000180003e10 f i LIBCMTD:std_type_info_static.obj
 0001:00002e50       ?__scrt_initialize_type_info@@YAXXZ 0000000180003e50 f   LIBCMTD:tncleanup.obj
 0001:00002e70       ?__scrt_uninitialize_type_info@@YAXXZ 0000000180003e70 f   LIBCMTD:tncleanup.obj
 0001:000032a0       _CRT_INIT                  00000001800042a0 f   LIBCMTD:dll_dllmain.obj
 0001:000032d0       _DllMainCRTStartup         00000001800042d0 f   LIBCMTD:dll_dllmain.obj
 0001:00003310       _guard_check_icall_nop     0000000180004310 f i LIBCMTD:guard_support.obj
 0001:00003320       ReadNoFence64              0000000180004320 f i LIBCMTD:guard_support.obj
 0001:00003340       ReadPointerNoFence         0000000180004340 f i LIBCMTD:guard_support.obj
 0001:00003360       __castguard_check_failure_debugbreak 0000000180004360 f i LIBCMTD:guard_support.obj
 0001:00003380       __castguard_check_failure_fastfail 0000000180004380 f i LIBCMTD:guard_support.obj
 0001:000033b0       __castguard_check_failure_nop 00000001800043b0 f i LIBCMTD:guard_support.obj
 0001:000033c0       __castguard_check_failure_os_handled 00000001800043c0 f i LIBCMTD:guard_support.obj
 0001:00003430       __castguard_check_failure_user_handled 0000000180004430 f i LIBCMTD:guard_support.obj
 0001:00003520       __castguard_set_user_handler 0000000180004520 f i LIBCMTD:guard_support.obj
 0001:00003550       __castguard_slow_path_check_debugbreak 0000000180004550 f i LIBCMTD:guard_support.obj
 0001:00003590       __castguard_slow_path_check_fastfail 0000000180004590 f i LIBCMTD:guard_support.obj
 0001:000035e0       __castguard_slow_path_check_nop 00000001800045e0 f i LIBCMTD:guard_support.obj
 0001:000035f0       __castguard_slow_path_check_os_handled 00000001800045f0 f i LIBCMTD:guard_support.obj
 0001:00003640       __castguard_slow_path_check_user_handled 0000000180004640 f i LIBCMTD:guard_support.obj
 0001:00003700       _guard_icall_checks_enforced 0000000180004700 f i LIBCMTD:guard_support.obj
 0001:00003740       _guard_rf_checks_enforced  0000000180004740 f i LIBCMTD:guard_support.obj
 0001:00003750       ?_RTC_GetErrorFunc@@YAP6AHHPEBDH00ZZPEBX@Z 0000000180004750 f   LIBCMTD:userapi.obj
 0001:00003760       ?_RTC_GetErrorFuncW@@YAP6AHHPEB_WH00ZZPEBX@Z 0000000180004760 f   LIBCMTD:userapi.obj
 0001:00003770       _RTC_GetErrDesc            0000000180004770 f   LIBCMTD:userapi.obj
 0001:00003790       _RTC_NumErrors             0000000180004790 f   LIBCMTD:userapi.obj
 0001:000037a0       _RTC_SetErrorFunc          00000001800047a0 f   LIBCMTD:userapi.obj
 0001:000037c0       _RTC_SetErrorFuncW         00000001800047c0 f   LIBCMTD:userapi.obj
 0001:000037e0       _RTC_SetErrorType          00000001800047e0 f   LIBCMTD:userapi.obj
 0001:000038c0       __security_init_cookie     00000001800048c0 f   LIBCMTD:gs_support.obj
 0001:00003940       DllMain                    0000000180004940 f   LIBCMTD:dll_dllmain_stub.obj
 0001:00003960       __local_stdio_printf_options 0000000180004960 f i LIBCMTD:default_local_stdio_options.obj
 0001:00003970       __local_stdio_scanf_options 0000000180004970 f i LIBCMTD:default_local_stdio_options.obj
 0001:00003980       __scrt_initialize_default_local_stdio_options 0000000180004980 f   LIBCMTD:default_local_stdio_options.obj
 0001:000039d0       ?configure_argv@__scrt_narrow_argv_policy@@SAHXZ 00000001800049d0 f i LIBCMTD:utility.obj
 0001:00003ac0       ?initialize_environment@__scrt_narrow_environment_policy@@SAHXZ 0000000180004ac0 f i LIBCMTD:utility.obj
 0001:00003b60       NtCurrentTeb               0000000180004b60 f i LIBCMTD:utility.obj
 0001:00003b70       __scrt_acquire_startup_lock 0000000180004b70 f   LIBCMTD:utility.obj
 0001:00003be0       __scrt_dllmain_after_initialize_c 0000000180004be0 f   LIBCMTD:utility.obj
 0001:00003c10       __scrt_dllmain_before_initialize_c 0000000180004c10 f   LIBCMTD:utility.obj
 0001:00003c30       __scrt_dllmain_crt_thread_attach 0000000180004c30 f   LIBCMTD:utility.obj
 0001:00003c60       __scrt_dllmain_crt_thread_detach 0000000180004c60 f   LIBCMTD:utility.obj
 0001:00003c80       __scrt_dllmain_exception_filter 0000000180004c80 f   LIBCMTD:utility.obj
 0001:00003cf0       __scrt_dllmain_uninitialize_c 0000000180004cf0 f   LIBCMTD:utility.obj
 0001:00003d20       __scrt_dllmain_uninitialize_critical 0000000180004d20 f   LIBCMTD:utility.obj
 0001:00003d40       __scrt_initialize_crt      0000000180004d40 f   LIBCMTD:utility.obj
 0001:00003d90       __scrt_initialize_onexit_tables 0000000180004d90 f   LIBCMTD:utility.obj
 0001:00003ea0       __scrt_is_nonwritable_in_current_image 0000000180004ea0 f   LIBCMTD:utility.obj
 0001:00003f30       __scrt_release_startup_lock 0000000180004f30 f   LIBCMTD:utility.obj
 0001:00003f60       __scrt_uninitialize_crt    0000000180004f60 f   LIBCMTD:utility.obj
 0001:00003fa0       _onexit                    0000000180004fa0 f   LIBCMTD:utility.obj
 0001:00004020       at_quick_exit              0000000180005020 f   LIBCMTD:utility.obj
 0001:00004070       atexit                     0000000180005070 f   LIBCMTD:utility.obj
 0001:000040b0       __scrt_get_dyn_tls_init_callback 00000001800050b0 f   LIBCMTD:dyn_tls_init.obj
 0001:000040c0       __crt_debugger_hook        00000001800050c0 f   LIBCMTD:utility_desktop.obj
 0001:000040d0       __scrt_fastfail            00000001800050d0 f   LIBCMTD:utility_desktop.obj
 0001:00004270       __scrt_get_show_window_mode 0000000180005270 f   LIBCMTD:utility_desktop.obj
 0001:000042d0       __scrt_initialize_mta      00000001800052d0 f   LIBCMTD:utility_desktop.obj
 0001:000042e0       __scrt_initialize_winrt    00000001800052e0 f   LIBCMTD:utility_desktop.obj
 0001:000042f0       __scrt_is_managed_app      00000001800052f0 f   LIBCMTD:utility_desktop.obj
 0001:000043a0       __scrt_set_unhandled_exception_filter 00000001800053a0 f   LIBCMTD:utility_desktop.obj
 0001:000043c0       __scrt_exe_initialize_mta  00000001800053c0 f   LIBCMTD:utility_desktop.obj
 0001:000043c0       __scrt_stub_for_initialize_mta 00000001800053c0 f   LIBCMTD:utility_desktop.obj
 0001:000043d0       __scrt_unhandled_exception_filter 00000001800053d0 f   LIBCMTD:utility_desktop.obj
 0001:00004470       _RTC_Initialize            0000000180005470 f   LIBCMTD:initsect.obj
 0001:000044c0       _RTC_Terminate             00000001800054c0 f   LIBCMTD:initsect.obj
 0001:000045a0       ?_RTC_AllocaFailure@@YAXPEAXPEAU_RTC_ALLOCA_NODE@@H@Z 00000001800055a0 f   LIBCMTD:error.obj
 0001:00004700       ?_RTC_Failure@@YAXPEAXH@Z  0000000180005700 f   LIBCMTD:error.obj
 0001:00004750       ?_RTC_StackFailure@@YAXPEAXPEBD@Z 0000000180005750 f   LIBCMTD:error.obj
 0001:00004bc0       _RTC_UninitUse             0000000180005bc0 f   LIBCMTD:error.obj
 0001:00004c90       _vsprintf_s_l              0000000180005c90 f i LIBCMTD:error.obj
 0001:00004d00       sprintf_s                  0000000180005d00 f i LIBCMTD:error.obj
 0001:00004d30       __isa_available_init       0000000180005d30 f   LIBCMTD:cpu_disp.obj
 0001:00005220       _get_startup_argv_mode     0000000180006220 f   LIBCMTD:argv_mode.obj
 0001:00005230       __scrt_is_ucrt_dll_in_use  0000000180006230 f   LIBCMTD:ucrt_detection.obj
 0001:00005780       ?_RTC_GetSrcLine@@YAHPEAEPEA_WKPEAH1K@Z 0000000180006780 f   LIBCMTD:pdblkup.obj
 0001:00005b50       __GSHandlerCheck           0000000180006b50 f   LIBCMTD:gshandler.obj
 0001:00005b90       __GSHandlerCheckCommon     0000000180006b90 f   LIBCMTD:gshandler.obj
 0001:00005ca0       __security_check_cookie    0000000180006ca0 f   LIBCMTD:amdsecgs.obj
 0001:00005cc0       __raise_securityfailure    0000000180006cc0 f   LIBCMTD:gs_report.obj
 0001:00005d00       __report_gsfailure         0000000180006d00 f   LIBCMTD:gs_report.obj
 0001:00005de0       __report_rangecheckfailure 0000000180006de0 f   LIBCMTD:gs_report.obj
 0001:00005e00       __report_securityfailure   0000000180006e00 f   LIBCMTD:gs_report.obj
 0001:00005ea0       __report_securityfailureEx 0000000180006ea0 f   LIBCMTD:gs_report.obj
 0001:00006110       ??$__crt_interlocked_exchange_pointer@$$A6AXXZP6AXXZ@@YAP6AXXZPEDS6AXXZQ6AXXZ@Z 0000000180007110 f i libvcruntimed:purevirt.obj
 0001:00006130       ??$__crt_interlocked_read_pointer@$$A6AXXZ@@YAP6AXXZPEDS6AXXZ@Z 0000000180007130 f i libvcruntimed:purevirt.obj
 0001:00006150       ?__crt_interlocked_read_64@@YA_JPED_J@Z 0000000180007150 f i libvcruntimed:purevirt.obj
 0001:00006170       _get_purecall_handler      0000000180007170 f   libvcruntimed:purevirt.obj
 0001:00006190       _purecall                  0000000180007190 f   libvcruntimed:purevirt.obj
 0001:000061d0       _set_purecall_handler      00000001800071d0 f   libvcruntimed:purevirt.obj
 0001:00006230       ??$?RD@__crt_internal_free_policy@@QEBAXQEBD@Z 0000000180007230 f i libvcruntimed:std_type_info.obj
 0001:00006260       ??$?RX@__crt_internal_free_policy@@QEBAXQEBX@Z 0000000180007260 f i libvcruntimed:std_type_info.obj
 0001:00006290       ??$__crt_interlocked_compare_exchange_pointer@$$CBDPEAD$$T@@YAPEBDPEDSEBDQEAD$$T@Z 0000000180007290 f i libvcruntimed:std_type_info.obj
 0001:000062d0       ??$__crt_interlocked_read_pointer@$$CBD@@YAPEBDPEDSEBD@Z 00000001800072d0 f i libvcruntimed:std_type_info.obj
 0001:000062f0       ??0?$__crt_unique_heap_ptr@DU__crt_internal_free_policy@@@@QEAA@QEAD@Z 00000001800072f0 f i libvcruntimed:std_type_info.obj
 0001:00006310       ??0?$__crt_unique_heap_ptr@XU__crt_internal_free_policy@@@@QEAA@QEAX@Z 0000000180007310 f i libvcruntimed:std_type_info.obj
 0001:00006330       ??1?$__crt_unique_heap_ptr@DU__crt_internal_free_policy@@@@QEAA@XZ 0000000180007330 f i libvcruntimed:std_type_info.obj
 0001:00006350       ??1?$__crt_unique_heap_ptr@XU__crt_internal_free_policy@@@@QEAA@XZ 0000000180007350 f i libvcruntimed:std_type_info.obj
 0001:00006370       ??B?$__crt_unique_heap_ptr@DU__crt_internal_free_policy@@@@QEBA_NXZ 0000000180007370 f i libvcruntimed:std_type_info.obj
 0001:00006390       ??B?$__crt_unique_heap_ptr@XU__crt_internal_free_policy@@@@QEBA_NXZ 0000000180007390 f i libvcruntimed:std_type_info.obj
 0001:00006410       ?detach@?$__crt_unique_heap_ptr@XU__crt_internal_free_policy@@@@QEAAPEAXXZ 0000000180007410 f i libvcruntimed:std_type_info.obj
 0001:00006440       ?get@?$__crt_unique_heap_ptr@DU__crt_internal_free_policy@@@@QEBAPEADXZ 0000000180007440 f i libvcruntimed:std_type_info.obj
 0001:00006450       ?get@?$__crt_unique_heap_ptr@XU__crt_internal_free_policy@@@@QEBAPEAXXZ 0000000180007450 f i libvcruntimed:std_type_info.obj
 0001:00006460       ?is_valid@?$__crt_unique_heap_ptr@DU__crt_internal_free_policy@@@@QEBA_NXZ 0000000180007460 f i libvcruntimed:std_type_info.obj
 0001:00006490       ?is_valid@?$__crt_unique_heap_ptr@XU__crt_internal_free_policy@@@@QEBA_NXZ 0000000180007490 f i libvcruntimed:std_type_info.obj
 0001:000064c0       ?release@?$__crt_unique_heap_ptr@DU__crt_internal_free_policy@@@@QEAAXXZ 00000001800074c0 f i libvcruntimed:std_type_info.obj
 0001:000064f0       ?release@?$__crt_unique_heap_ptr@XU__crt_internal_free_policy@@@@QEAAXXZ 00000001800074f0 f i libvcruntimed:std_type_info.obj
 0001:00006520       __std_type_info_compare    0000000180007520 f   libvcruntimed:std_type_info.obj
 0001:00006560       __std_type_info_destroy_list 0000000180007560 f   libvcruntimed:std_type_info.obj
 0001:000065c0       __std_type_info_hash       00000001800075c0 f   libvcruntimed:std_type_info.obj
 0001:00006670       __std_type_info_name       0000000180007670 f   libvcruntimed:std_type_info.obj
 0001:00006900       strstr                     0000000180007900 f   libvcruntimed:strstr.obj
 0001:00006f40       __C_specific_handler       0000000180007f40 f   libvcruntimed:riscchandler.obj
 0001:000073b0       __vcrt_initialize          00000001800083b0 f   libvcruntimed:initialization.obj
 0001:000073f0       __vcrt_thread_attach       00000001800083f0 f   libvcruntimed:initialization.obj
 0001:00007410       __vcrt_thread_detach       0000000180008410 f   libvcruntimed:initialization.obj
 0001:00007420       __vcrt_uninitialize        0000000180008420 f   libvcruntimed:initialization.obj
 0001:00007440       __vcrt_uninitialize_critical 0000000180008440 f   libvcruntimed:initialization.obj
 0001:00007460       __DestructExceptionObject  0000000180008460 f   libvcruntimed:ehhelpers.obj
 0001:00007560       ?_CallMemberFunction0@@YAXQEAX0@Z 0000000180008560 f i libvcruntimed:ehhelpers.obj
 0001:00007640       ?raw_name@type_info@@QEBAPEBDXZ 0000000180008640 f i libvcruntimed:ehhelpers.obj
 0001:00007650       _IsExceptionObjectToBeDestroyed 0000000180008650 f   libvcruntimed:ehhelpers.obj
 0001:000076a0       _SetWinRTOutOfMemoryExceptionCallback 00000001800086a0 f   libvcruntimed:ehhelpers.obj
 0001:000076c0       __AdjustPointer            00000001800086c0 f   libvcruntimed:ehhelpers.obj
 0001:00007740       __FrameUnwindFilter        0000000180008740 f   libvcruntimed:ehhelpers.obj
 0001:000077f0       __GetPlatformExceptionInfo 00000001800087f0 f   libvcruntimed:ehhelpers.obj
 0001:000078a0       __current_exception        00000001800088a0 f   libvcruntimed:ehhelpers.obj
 0001:000078c0       __current_exception_context 00000001800088c0 f   libvcruntimed:ehhelpers.obj
 0001:000078e0       __processing_throw         00000001800088e0 f   libvcruntimed:ehhelpers.obj
 0001:00007900       __std_terminate            0000000180008900 f   libvcruntimed:ehhelpers.obj
 0001:00007910       _is_exception_typeof       0000000180008910 f   libvcruntimed:ehhelpers.obj
 0001:00007a60       __C_specific_handler_noexcept 0000000180008a60 f   libvcruntimed:chandler_noexcept.obj
 0001:00007af0       __vcrt_GetModuleFileNameW  0000000180008af0 f   libvcruntimed:winapi_thunks.obj
 0001:00007b20       __vcrt_GetModuleHandleW    0000000180008b20 f   libvcruntimed:winapi_thunks.obj
 0001:00007b40       __vcrt_LoadLibraryExW      0000000180008b40 f   libvcruntimed:winapi_thunks.obj
 0001:00007b70       ??$?0$00@DName@@QEAA@PEAVUnDecorator@@PEBDU?$StringLifeSelector@$00@@@Z 0000000180008b70 f i libvcruntimed:undname.obj
 0001:00007bf0       ??$?0$00@pcharNode@@QEAA@PEBDHU?$StringLifeSelector@$00@@AEAV_HeapManager@@@Z 0000000180008bf0 f i libvcruntimed:undname.obj
 0001:00007c50       ??$?0$01@DName@@QEAA@PEAVUnDecorator@@PEBDU?$StringLifeSelector@$01@@@Z 0000000180008c50 f i libvcruntimed:undname.obj
 0001:00007cd0       ??$?0$01@pcharNode@@QEAA@PEBDHU?$StringLifeSelector@$01@@AEAV_HeapManager@@@Z 0000000180008cd0 f i libvcruntimed:undname.obj
 0001:00007d80       ??$?0$0A@@DName@@QEAA@PEAVUnDecorator@@PEBDU?$StringLifeSelector@$0A@@@@Z 0000000180008d80 f i libvcruntimed:undname.obj
 0001:00007e00       ??$?0$0A@@pcharNode@@QEAA@PEBDHU?$StringLifeSelector@$0A@@@AEAV_HeapManager@@@Z 0000000180008e00 f i libvcruntimed:undname.obj
 0001:00007eb0       ??$?0_K$0A@@?$optional@_K@std@@QEAA@$$QEA_K@Z 0000000180008eb0 f i libvcruntimed:undname.obj
 0001:00007ee0       ??$?0_K@?$_Optional_construct_base@_K@std@@QEAA@Uin_place_t@1@$$QEA_K@Z 0000000180008ee0 f i libvcruntimed:undname.obj
 0001:00007f20       ??$?0_K@?$_Optional_destruct_base@_K$00@std@@QEAA@Uin_place_t@1@$$QEA_K@Z 0000000180008f20 f i libvcruntimed:undname.obj
 0001:00007f50       ??$append@VDNameNode@@@DName@@AEAAXPEBVDNameNode@@@Z 0000000180008f50 f i libvcruntimed:undname.obj
 0001:00008010       ??$append@VDNameStatusNode@@@DName@@AEAAXPEBVDNameStatusNode@@@Z 0000000180009010 f i libvcruntimed:undname.obj
 0001:000080d0       ??$append@VcharNode@@@DName@@AEAAXPEBVcharNode@@@Z 00000001800090d0 f i libvcruntimed:undname.obj
 0001:00008190       ??$append@VpDNameNode@@@DName@@AEAAXPEBVpDNameNode@@@Z 0000000180009190 f i libvcruntimed:undname.obj
 0001:00008250       ??$append@VpcharNode@@@DName@@AEAAXPEBVpcharNode@@@Z 0000000180009250 f i libvcruntimed:undname.obj
 0001:00008310       ??$doPchar@$00@DName@@AEAAXPEBDH@Z 0000000180009310 f i libvcruntimed:undname.obj
 0001:000084c0       ??$doPchar@$01@DName@@AEAAXPEBDH@Z 00000001800094c0 f i libvcruntimed:undname.obj
 0001:00008670       ??$doPchar@$0A@@DName@@AEAAXPEBDH@Z 0000000180009670 f i libvcruntimed:undname.obj
 0001:000089c0       ??0?$_Optional_construct_base@_K@std@@QEAA@XZ 00000001800099c0 f i libvcruntimed:undname.obj
 0001:000089e0       ??0?$_Optional_destruct_base@_K$00@std@@QEAA@XZ 00000001800099e0 f i libvcruntimed:undname.obj
 0001:00008a10       ??0?$optional@_K@std@@QEAA@XZ 0000000180009a10 f i libvcruntimed:undname.obj
 0001:00008a30       ??0Block@_HeapManager@@QEAA@XZ 0000000180009a30 f i libvcruntimed:undname.obj
 0001:00008a50       ??0DName@@QEAA@AEBV0@@Z    0000000180009a50 f i libvcruntimed:undname.obj
 0001:00008aa0       ??0DName@@QEAA@PEAVUnDecorator@@@Z 0000000180009aa0 f i libvcruntimed:undname.obj
 0001:00008ae0       ??0DName@@QEAA@PEAVUnDecorator@@AEAPEBDD@Z 0000000180009ae0 f   libvcruntimed:undname.obj
 0001:00008cd0       ??0DName@@QEAA@PEAVUnDecorator@@AEBUStringLiteral@@@Z 0000000180009cd0 f   libvcruntimed:undname.obj
 0001:00008d40       ??0DName@@QEAA@PEAVUnDecorator@@D@Z 0000000180009d40 f   libvcruntimed:undname.obj
 0001:00008da0       ??0DName@@QEAA@PEAVUnDecorator@@PEAV0@@Z 0000000180009da0 f   libvcruntimed:undname.obj
 0001:00008ea0       ??0DName@@QEAA@PEAVUnDecorator@@W4DNameStatus@@@Z 0000000180009ea0 f   libvcruntimed:undname.obj
 0001:00008f70       ??0DName@@QEAA@PEAVUnDecorator@@_J@Z 0000000180009f70 f   libvcruntimed:undname.obj
 0001:00009090       ??0DName@@QEAA@PEAVUnDecorator@@_K@Z 000000018000a090 f   libvcruntimed:undname.obj
 0001:00009180       ??0DNameNode@@IEAA@XZ      000000018000a180 f i libvcruntimed:undname.obj
 0001:000091a0       ??0Replicator@@QEAA@PEAVUnDecorator@@@Z 000000018000a1a0 f i libvcruntimed:undname.obj
 0001:00009220       ??0UnDecorator@@QEAA@PEBDP6APEADJ@ZKP6APEAX_K@ZP6AXPEAX@Z@Z 000000018000a220 f i libvcruntimed:undname.obj
 0001:000093c0       ??0_HeapManager@@QEAA@P6APEAX_K@ZP6AXPEAX@Z@Z 000000018000a3c0 f i libvcruntimed:undname.obj
 0001:00009420       ??0_Nontrivial_dummy_type@std@@QEAA@XZ 000000018000a420 f i libvcruntimed:undname.obj
 0001:00009430       ??0charNode@@QEAA@D@Z      000000018000a430 f i libvcruntimed:undname.obj
 0001:00009470       ??0pDNameNode@@QEAA@PEAVDName@@@Z 000000018000a470 f   libvcruntimed:undname.obj
 0001:000094f0       ??0pairNode@@QEAA@PEBVDNameNode@@0@Z 000000018000a4f0 f i libvcruntimed:undname.obj
 0001:00009570       ??2@YAPEAX_KAEAV_HeapManager@@H@Z 000000018000a570 f   libvcruntimed:undname.obj
 0001:000095d0       ??4DName@@QEAAAEAV0@AEBUStringLiteral@@@Z 000000018000a5d0 f   libvcruntimed:undname.obj
 0001:00009620       ??4DName@@QEAAAEAV0@AEBV0@@Z 000000018000a620 f   libvcruntimed:undname.obj
 0001:00009650       ??4DName@@QEAAAEAV0@D@Z    000000018000a650 f i libvcruntimed:undname.obj
 0001:00009690       ??4DName@@QEAAAEAV0@PEAV0@@Z 000000018000a690 f   libvcruntimed:undname.obj
 0001:00009760       ??4DName@@QEAAAEAV0@W4DNameStatus@@@Z 000000018000a760 f   libvcruntimed:undname.obj
 0001:000097f0       ??AReplicator@@QEBA?AVDName@@H@Z 000000018000a7f0 f   libvcruntimed:undname.obj
 0001:00009890       ??B?$optional@_K@std@@QEBA_NXZ 000000018000a890 f i libvcruntimed:undname.obj
 0001:000098a0       ??D?$_Optional_construct_base@_K@std@@QEGAAAEA_KXZ 000000018000a8a0 f i libvcruntimed:undname.obj
 0001:00009920       ??H@YA?AVDName@@AEBUStringLiteral@@AEBV0@@Z 000000018000a920 f i libvcruntimed:undname.obj
 0001:00009970       ??H@YA?AVDName@@DAEBV0@@Z  000000018000a970 f i libvcruntimed:undname.obj
 0001:000099c0       ??H@YA?AVDName@@W4DNameStatus@@AEBV0@@Z 000000018000a9c0 f i libvcruntimed:undname.obj
 0001:00009a10       ??HDName@@QEBA?AV0@AEBUStringLiteral@@@Z 000000018000aa10 f   libvcruntimed:undname.obj
 0001:00009a50       ??HDName@@QEBA?AV0@AEBV0@@Z 000000018000aa50 f   libvcruntimed:undname.obj
 0001:00009a90       ??HDName@@QEBA?AV0@D@Z     000000018000aa90 f   libvcruntimed:undname.obj
 0001:00009ad0       ??HDName@@QEBA?AV0@PEAV0@@Z 000000018000aad0 f   libvcruntimed:undname.obj
 0001:00009b10       ??HDName@@QEBA?AV0@W4DNameStatus@@@Z 000000018000ab10 f   libvcruntimed:undname.obj
 0001:00009b50       ??HStringLiteral@@QEBA?AU0@H@Z 000000018000ab50 f i libvcruntimed:undname.obj
 0001:00009b90       ??YDName@@QEAAAEAV0@AEBUStringLiteral@@@Z 000000018000ab90 f   libvcruntimed:undname.obj
 0001:00009cb0       ??YDName@@QEAAAEAV0@AEBV0@@Z 000000018000acb0 f   libvcruntimed:undname.obj
 0001:00009d70       ??YDName@@QEAAAEAV0@D@Z    000000018000ad70 f   libvcruntimed:undname.obj
 0001:00009e20       ??YDName@@QEAAAEAV0@PEAV0@@Z 000000018000ae20 f   libvcruntimed:undname.obj
 0001:00009f10       ??YDName@@QEAAAEAV0@W4DNameStatus@@@Z 000000018000af10 f   libvcruntimed:undname.obj
 0001:00009f90       ??YReplicator@@QEAAAEAV0@AEBVDName@@@Z 000000018000af90 f   libvcruntimed:undname.obj
 0001:0000a060       ??_5DName@@QEAAAEAV0@AEBV0@@Z 000000018000b060 f   libvcruntimed:undname.obj
 0001:0000a0e0       ??__K_l@@YA?AUStringLiteral@@PEBD_K@Z 000000018000b0e0 f i libvcruntimed:undname.obj
 0001:0000a110       ?Destructor@UnDecorator@@QEAAXXZ 000000018000b110 f i libvcruntimed:undname.obj
 0001:0000a140       ?Destructor@_HeapManager@@QEAAXXZ 000000018000b140 f i libvcruntimed:undname.obj
 0001:0000a1e0       ?UScore@UnDecorator@@QEAA?AUStringLiteral@@W4Tokens@@@Z 000000018000b1e0 f   libvcruntimed:undname.obj
 0001:0000a270       ?composeDeclaration@UnDecorator@@AEAA?AVDName@@AEBV2@@Z 000000018000b270 f i libvcruntimed:undname.obj
 0001:0000c9f0       ?doAccessSpecifiers@UnDecorator@@QEAAHXZ 000000018000d9f0 f i libvcruntimed:undname.obj
 0001:0000ca30       ?doAllocationLanguage@UnDecorator@@QEAAHXZ 000000018000da30 f i libvcruntimed:undname.obj
 0001:0000ca70       ?doAllocationModel@UnDecorator@@QEAAHXZ 000000018000da70 f i libvcruntimed:undname.obj
 0001:0000cab0       ?doEcsu@UnDecorator@@QEAAHXZ 000000018000dab0 f i libvcruntimed:undname.obj
 0001:0000caf0       ?doEllipsis@UnDecorator@@QEAAHXZ 000000018000daf0 f i libvcruntimed:undname.obj
 0001:0000cb30       ?doFunctionReturns@UnDecorator@@QEAAHXZ 000000018000db30 f i libvcruntimed:undname.obj
 0001:0000cb70       ?doMSKeywords@UnDecorator@@QEAAHXZ 000000018000db70 f i libvcruntimed:undname.obj
 0001:0000cbb0       ?doMemberTypes@UnDecorator@@QEAAHXZ 000000018000dbb0 f i libvcruntimed:undname.obj
 0001:0000cbf0       ?doNameOnly@UnDecorator@@QEAAHXZ 000000018000dbf0 f i libvcruntimed:undname.obj
 0001:0000cc10       ?doNoIdentCharCheck@UnDecorator@@QEAAHXZ 000000018000dc10 f i libvcruntimed:undname.obj
 0001:0000cc30       ?doPchar@DName@@AEAAXD@Z   000000018000dc30 f   libvcruntimed:undname.obj
 0001:0000ccd0       ?doPtr64@UnDecorator@@QEAAHXZ 000000018000dcd0 f i libvcruntimed:undname.obj
 0001:0000cd10       ?doRestrictionSpec@UnDecorator@@QEAAHXZ 000000018000dd10 f i libvcruntimed:undname.obj
 0001:0000cd50       ?doThisTypes@UnDecorator@@QEAAHXZ 000000018000dd50 f i libvcruntimed:undname.obj
 0001:0000cd90       ?doThrowTypes@UnDecorator@@QEAAHXZ 000000018000dd90 f i libvcruntimed:undname.obj
 0001:0000cdd0       ?doTypeOnly@UnDecorator@@QEAAHXZ 000000018000ddd0 f i libvcruntimed:undname.obj
 0001:0000cdf0       ?doUnderScore@UnDecorator@@QEAAHXZ 000000018000ddf0 f i libvcruntimed:undname.obj
 0001:0000ce30       ?getAddressOf@UnDecorator@@AEAA?AVDName@@XZ 000000018000de30 f   libvcruntimed:undname.obj
 0001:0000cef0       ?getArgumentList@UnDecorator@@AEAA?AVDName@@XZ 000000018000def0 f   libvcruntimed:undname.obj
 0001:0000d110       ?getArgumentTypes@UnDecorator@@AEAA?AVDName@@XZ 000000018000e110 f   libvcruntimed:undname.obj
 0001:0000d430       ?getArrayAccess@UnDecorator@@AEAA?AVDName@@XZ 000000018000e430 f   libvcruntimed:undname.obj
 0001:0000d510       ?getArrayObject@UnDecorator@@AEAA?AVDName@@XZ 000000018000e510 f   libvcruntimed:undname.obj
 0001:0000d6c0       ?getArrayType@UnDecorator@@AEAA?AVDName@@AEBV2@@Z 000000018000e6c0 f i libvcruntimed:undname.obj
 0001:0000daf0       ?getBasedType@UnDecorator@@AEAA?AVDName@@XZ 000000018000eaf0 f   libvcruntimed:undname.obj
 0001:0000dc60       ?getBasicDataType@UnDecorator@@AEAA?AVDName@@AEBV2@@Z 000000018000ec60 f   libvcruntimed:undname.obj
 0001:0000ebb0       ?getCHPEName@UnDecorator@@QEAAPEADPEADH@Z 000000018000fbb0 f i libvcruntimed:undname.obj
 0001:0000ee00       ?getCallIndex@UnDecorator@@AEAA?AVDName@@XZ 000000018000fe00 f i libvcruntimed:undname.obj
 0001:0000ee30       ?getCallingConvention@UnDecorator@@AEAA?AVDName@@XZ 000000018000fe30 f   libvcruntimed:undname.obj
 0001:0000f180       ?getDataIndirectType@UnDecorator@@AEAA?AVDName@@AEBV2@W4IndirectionKind@@0H@Z 0000000180010180 f   libvcruntimed:undname.obj
 0001:0000ff60       ?getDataIndirectType@UnDecorator@@AEAA?AVDName@@XZ 0000000180010f60 f i libvcruntimed:undname.obj
 0001:0000ffe0       ?getDataType@UnDecorator@@AEAA?AVDName@@PEAV2@@Z 0000000180010fe0 f   libvcruntimed:undname.obj
 0001:000101e0       ?getDecoratedName@UnDecorator@@AEAA?AVDName@@XZ 00000001800111e0 f   libvcruntimed:undname.obj
 0001:000107f0       ?getDimension@UnDecorator@@AEAA?AVDName@@_N@Z 00000001800117f0 f   libvcruntimed:undname.obj
 0001:00010b40       ?getDispatchTarget@UnDecorator@@AEAA?AVDName@@XZ 0000000180011b40 f   libvcruntimed:undname.obj
 0001:00010c20       ?getDisplacement@UnDecorator@@AEAA?AVDName@@XZ 0000000180011c20 f i libvcruntimed:undname.obj
 0001:00010c50       ?getECSUDataType@UnDecorator@@AEAA?AVDName@@XZ 0000000180011c50 f   libvcruntimed:undname.obj
 0001:00011110       ?getECSUName@UnDecorator@@AEAA?AVDName@@XZ 0000000180012110 f i libvcruntimed:undname.obj
 0001:00011140       ?getEnumType@UnDecorator@@AEAA?AVDName@@XZ 0000000180012140 f i libvcruntimed:undname.obj
 0001:00011400       ?getExtendedDataIndirectType@UnDecorator@@AEAA?AVDName@@AEAW4IndirectionKind@@AEA_NH@Z 0000000180012400 f   libvcruntimed:undname.obj
 0001:00011820       ?getExternalDataType@UnDecorator@@AEAA?AVDName@@AEBV2@@Z 0000000180012820 f i libvcruntimed:undname.obj
 0001:00011910       ?getFloatingPoint@UnDecorator@@AEAA?AVDName@@H@Z 0000000180012910 f   libvcruntimed:undname.obj
 0001:00011aa0       ?getFunctionIndirectType@UnDecorator@@AEAA?AVDName@@AEBV2@@Z 0000000180012aa0 f   libvcruntimed:undname.obj
 0001:00012210       ?getGuardNumber@UnDecorator@@AEAA?AVDName@@XZ 0000000180013210 f i libvcruntimed:undname.obj
 0001:00012240       ?getHeap@UnDecorator@@QEAAAEAV_HeapManager@@XZ 0000000180013240 f i libvcruntimed:undname.obj
 0001:00012260       ?getLastChar@DName@@QEBADXZ 0000000180013260 f i libvcruntimed:undname.obj
 0001:000122b0       ?getLastChar@DNameStatusNode@@UEBADXZ 00000001800132b0 f i libvcruntimed:undname.obj
 0001:000122f0       ?getLastChar@charNode@@UEBADXZ 00000001800132f0 f i libvcruntimed:undname.obj
 0001:00012300       ?getLastChar@pDNameNode@@UEBADXZ 0000000180013300 f i libvcruntimed:undname.obj
 0001:00012340       ?getLastChar@pairNode@@UEBADXZ 0000000180013340 f i libvcruntimed:undname.obj
 0001:000123c0       ?getLastChar@pcharNode@@UEBADXZ 00000001800133c0 f i libvcruntimed:undname.obj
 0001:00012400       ?getLexicalFrame@UnDecorator@@AEAA?AVDName@@XZ 0000000180013400 f i libvcruntimed:undname.obj
 0001:00012460       ?getMemberAccess@UnDecorator@@AEAA?AVDName@@XZ 0000000180013460 f   libvcruntimed:undname.obj
 0001:00012540       ?getMemoryWithBuffer@_HeapManager@@QEAAPEAX_K@Z 0000000180013540 f   libvcruntimed:undname.obj
 0001:00012680       ?getMemoryWithoutBuffer@_HeapManager@@QEAAPEAX_K@Z 0000000180013680 f   libvcruntimed:undname.obj
 0001:000126d0       ?getNoexcept@UnDecorator@@AEAA?AVDName@@XZ 00000001800136d0 f   libvcruntimed:undname.obj
 0001:00012780       ?getNumberOfDimensions@UnDecorator@@AEAAHXZ 0000000180013780 f   libvcruntimed:undname.obj
 0001:00012890       ?getOperatorName@UnDecorator@@AEAA?AVDName@@_NPEA_N@Z 0000000180013890 f i libvcruntimed:undname.obj
 0001:000139c0       ?getPointerToMember@UnDecorator@@AEAA?AVDName@@XZ 00000001800149c0 f   libvcruntimed:undname.obj
 0001:00013b50       ?getPointerType@UnDecorator@@AEAA?AVDName@@AEBV2@0@Z 0000000180014b50 f i libvcruntimed:undname.obj
 0001:00013ba0       ?getPointerTypeArray@UnDecorator@@AEAA?AVDName@@AEBV2@0@Z 0000000180014ba0 f i libvcruntimed:undname.obj
 0001:00013bf0       ?getPrimaryDataType@UnDecorator@@AEAA?AVDName@@AEBV2@@Z 0000000180014bf0 f   libvcruntimed:undname.obj
 0001:000142b0       ?getPtrRefDataType@UnDecorator@@AEAA?AVDName@@AEBV2@H@Z 00000001800152b0 f   libvcruntimed:undname.obj
 0001:00014710       ?getPtrRefType@UnDecorator@@AEAA?AVDName@@AEBV2@0W4IndirectionKind@@@Z 0000000180015710 f   libvcruntimed:undname.obj
 0001:000149a0       ?getReferenceType@UnDecorator@@AEAA?AVDName@@AEBV2@0W4IndirectionKind@@@Z 00000001800159a0 f i libvcruntimed:undname.obj
 0001:000149f0       ?getRestrictionSpec@UnDecorator@@AEAA?AVDName@@XZ 00000001800159f0 f   libvcruntimed:undname.obj
 0001:00014ca0       ?getReturnType@UnDecorator@@AEAA?AVDName@@PEAV2@@Z 0000000180015ca0 f   libvcruntimed:undname.obj
 0001:00014d10       ?getScope@UnDecorator@@AEAA?AVDName@@XZ 0000000180015d10 f   libvcruntimed:undname.obj
 0001:00015580       ?getScopedName@UnDecorator@@AEAA?AVDName@@XZ 0000000180016580 f   libvcruntimed:undname.obj
 0001:000157d0       ?getSignedDimension@UnDecorator@@AEAA?AVDName@@XZ 00000001800167d0 f   libvcruntimed:undname.obj
 0001:00015880       ?getStorageConvention@UnDecorator@@AEAA?AVDName@@XZ 0000000180016880 f i libvcruntimed:undname.obj
 0001:000158b0       ?getString@DName@@QEBAPEADPEAD0@Z 00000001800168b0 f i libvcruntimed:undname.obj
 0001:00015930       ?getString@DName@@QEBAPEADPEADH@Z 0000000180016930 f i libvcruntimed:undname.obj
 0001:000159f0       ?getString@DNameStatusNode@@UEBAPEADPEAD0@Z 00000001800169f0 f i libvcruntimed:undname.obj
 0001:00015a40       ?getString@charNode@@UEBAPEADPEAD0@Z 0000000180016a40 f i libvcruntimed:undname.obj
 0001:00015a80       ?getString@pDNameNode@@UEBAPEADPEAD0@Z 0000000180016a80 f i libvcruntimed:undname.obj
 0001:00015ae0       ?getString@pairNode@@UEBAPEADPEAD0@Z 0000000180016ae0 f i libvcruntimed:undname.obj
 0001:00015bb0       ?getString@pcharNode@@UEBAPEADPEAD0@Z 0000000180016bb0 f i libvcruntimed:undname.obj
 0001:00015bf0       ?getStringEncoding@UnDecorator@@AEAA?AVDName@@W4PrefixKind@@H@Z 0000000180016bf0 f   libvcruntimed:undname.obj
 0001:00015dc0       ?getStringHelper@@YAPEADPEADPEBD1H@Z 0000000180016dc0 f i libvcruntimed:undname.obj
 0001:00015e30       ?getStringObject@UnDecorator@@AEAA?AVDName@@XZ 0000000180016e30 f   libvcruntimed:undname.obj
 0001:00015f10       ?getSymbolName@UnDecorator@@AEAA?AVDName@@XZ 0000000180016f10 f i libvcruntimed:undname.obj
 0001:00015fc0       ?getTemplateArgumentList@UnDecorator@@AEAA?AVDName@@XZ 0000000180016fc0 f   libvcruntimed:undname.obj
 0001:000163c0       ?getTemplateName@UnDecorator@@AEAA?AVDName@@_N@Z 00000001800173c0 f   libvcruntimed:undname.obj
 0001:000166b0       ?getTemplateNonTypeArgument@UnDecorator@@AEAA?AVDName@@XZ 00000001800176b0 f   libvcruntimed:undname.obj
 0001:00017080       ?getTemplateTypeArgument@UnDecorator@@AEAA?AVDName@@XZ 0000000180018080 f   libvcruntimed:undname.obj
 0001:00017360       ?getThisType@UnDecorator@@AEAA?AVDName@@XZ 0000000180018360 f i libvcruntimed:undname.obj
 0001:000173e0       ?getThrowTypes@UnDecorator@@AEAA?AVDName@@XZ 00000001800183e0 f   libvcruntimed:undname.obj
 0001:00017430       ?getTypeEncoding@UnDecorator@@AEAAHXZ 0000000180018430 f i libvcruntimed:undname.obj
 0001:00018160       ?getUndecoratedName@UnDecorator@@QEAAPEADPEADH@Z 0000000180019160 f i libvcruntimed:undname.obj
 0001:00018390       ?getUnionObject@UnDecorator@@AEAA?AVDName@@XZ 0000000180019390 f   libvcruntimed:undname.obj
 0001:000184f0       ?getVCallThunkType@UnDecorator@@AEAA?AVDName@@XZ 00000001800194f0 f i libvcruntimed:undname.obj
 0001:000185b0       ?getValue@UnDecorator@@AEAA?AV?$optional@_K@std@@XZ 00000001800195b0 f   libvcruntimed:undname.obj
 0001:00018690       ?getValueObject@UnDecorator@@AEAA?AVDName@@XZ 0000000180019690 f   libvcruntimed:undname.obj
 0001:000189a0       ?getVbTableType@UnDecorator@@AEAA?AVDName@@AEBV2@@Z 00000001800199a0 f i libvcruntimed:undname.obj
 0001:000189e0       ?getVdispMapType@UnDecorator@@AEAA?AVDName@@AEBV2@@Z 00000001800199e0 f i libvcruntimed:undname.obj
 0001:00018ab0       ?getVfTableType@UnDecorator@@AEAA?AVDName@@AEBV2@@Z 0000000180019ab0 f i libvcruntimed:undname.obj
 0001:00018dc0       ?getZName@UnDecorator@@AEAA?AVDName@@_N0@Z 0000000180019dc0 f   libvcruntimed:undname.obj
 0001:000192f0       ?get_current_character_and_increment_buffer@UnDecorator@@AEAADXZ 000000018001a2f0 f i libvcruntimed:undname.obj
 0001:00019340       ?haveTemplateParameters@UnDecorator@@QEAAHXZ 000000018001a340 f i libvcruntimed:undname.obj
 0001:00019360       ?increment_buffer@UnDecorator@@AEAA_N_K@Z 000000018001a360 f i libvcruntimed:undname.obj
 0001:000193d0       ?increment_buffer_no_check@UnDecorator@@AEAAXXZ 000000018001a3d0 f i libvcruntimed:undname.obj
 0001:00019400       ?increment_buffer_no_check@UnDecorator@@AEAAX_K@Z 000000018001a400 f i libvcruntimed:undname.obj
 0001:00019460       ?isArray@DName@@QEBAHXZ    000000018001a460 f i libvcruntimed:undname.obj
 0001:00019480       ?isComArray@DName@@QEBAHXZ 000000018001a480 f i libvcruntimed:undname.obj
 0001:000194a0       ?isEmpty@DName@@QEBAHXZ    000000018001a4a0 f i libvcruntimed:undname.obj
 0001:000194d0       ?isFull@Replicator@@QEBAHXZ 000000018001a4d0 f i libvcruntimed:undname.obj
 0001:00019500       ?isNoTE@DName@@QEBAHXZ     000000018001a500 f i libvcruntimed:undname.obj
 0001:00019520       ?isPinPtr@DName@@QEBAHXZ   000000018001a520 f i libvcruntimed:undname.obj
 0001:00019540       ?isPtrRef@DName@@QEBAHXZ   000000018001a540 f i libvcruntimed:undname.obj
 0001:00019560       ?isUDC@DName@@QEBAHXZ      000000018001a560 f i libvcruntimed:undname.obj
 0001:000195b0       ?isUDTThunk@DName@@QEBAHXZ 000000018001a5b0 f i libvcruntimed:undname.obj
 0001:00019600       ?isVCallThunk@DName@@QEBAHXZ 000000018001a600 f i libvcruntimed:undname.obj
 0001:00019620       ?isValid@DName@@QEBAHXZ    000000018001a620 f i libvcruntimed:undname.obj
 0001:00019660       ?length@DName@@QEBAHXZ     000000018001a660 f i libvcruntimed:undname.obj
 0001:000196b0       ?length@DNameStatusNode@@UEBAHXZ 000000018001a6b0 f i libvcruntimed:undname.obj
 0001:000196c0       ?length@charNode@@UEBAHXZ  000000018001a6c0 f i libvcruntimed:undname.obj
 0001:000196d0       ?length@pDNameNode@@UEBAHXZ 000000018001a6d0 f i libvcruntimed:undname.obj
 0001:00019710       ?length@pairNode@@UEBAHXZ  000000018001a710 f i libvcruntimed:undname.obj
 0001:000197a0       ?length@pcharNode@@UEBAHXZ 000000018001a7a0 f i libvcruntimed:undname.obj
 0001:000197b0       ?make@DNameStatusNode@@SAPEBV1@W4DNameStatus@@@Z 000000018001a7b0 f i libvcruntimed:undname.obj
 0001:00019800       ?parseDecoratedName@UnDecorator@@AEAA?AVDName@@XZ 000000018001a800 f   libvcruntimed:undname.obj
 0001:00019ab0       ?raw_length@DNameStatusNode@@UEBAHXZ 000000018001aab0 f i libvcruntimed:undname.obj
 0001:00019ad0       ?raw_length@charNode@@UEBAHXZ 000000018001aad0 f i libvcruntimed:undname.obj
 0001:00019af0       ?raw_length@pDNameNode@@UEBAHXZ 000000018001aaf0 f i libvcruntimed:undname.obj
 0001:00019b00       ?raw_length@pairNode@@UEBAHXZ 000000018001ab00 f i libvcruntimed:undname.obj
 0001:00019b10       ?raw_length@pcharNode@@UEBAHXZ 000000018001ab10 f i libvcruntimed:undname.obj
 0001:00019b30       ?setIsArray@DName@@QEAAXXZ 000000018001ab30 f i libvcruntimed:undname.obj
 0001:00019b50       ?setIsComArray@DName@@QEAAXXZ 000000018001ab50 f i libvcruntimed:undname.obj
 0001:00019b70       ?setIsNoTE@DName@@QEAAXXZ  000000018001ab70 f i libvcruntimed:undname.obj
 0001:00019b90       ?setIsPinPtr@DName@@QEAAXXZ 000000018001ab90 f i libvcruntimed:undname.obj
 0001:00019bb0       ?setIsUDC@DName@@QEAAXXZ   000000018001abb0 f i libvcruntimed:undname.obj
 0001:00019be0       ?setIsVCallThunk@DName@@QEAAXXZ 000000018001abe0 f i libvcruntimed:undname.obj
 0001:00019c00       ?setPtrRef@DName@@QEAAAEAV1@XZ 000000018001ac00 f i libvcruntimed:undname.obj
 0001:00019c20       ?status@DName@@QEBA?AW4DNameStatus@@XZ 000000018001ac20 f i libvcruntimed:undname.obj
 0001:00019d50       __unDName                  000000018001ad50 f   libvcruntimed:undname.obj
 0001:00019db0       __unDNameEx                000000018001adb0 f   libvcruntimed:undname.obj
 0001:00019e70       snprintf                   000000018001ae70 f i libvcruntimed:undname.obj
 0001:00019ed0       unDNameGenerateCHPE        000000018001aed0 f   libvcruntimed:undname.obj
 0001:00019f70       vsnprintf                  000000018001af70 f i libvcruntimed:undname.obj
 0001:0001a020       _NLG_Notify                000000018001b020 f   libvcruntimed:notify.obj
 0001:0001a040       __NLG_Dispatch2            000000018001b040 f   libvcruntimed:notify.obj
 0001:0001a050       __NLG_Return2              000000018001b050 f   libvcruntimed:notify.obj
 0001:0001a070       __except_validate_context_record 000000018001b070 f   libvcruntimed:jbcxrval.obj
 0001:0001a0d0       __except_validate_jump_buffer 000000018001b0d0 f   libvcruntimed:jbcxrval.obj
 0001:0001a0f0       __except_validate_jump_buffer_common 000000018001b0f0 f i libvcruntimed:jbcxrval.obj
 0001:0001a170       ??$?RU__vcrt_ptd@@@__crt_internal_free_policy@@QEBAXQEBU__vcrt_ptd@@@Z 000000018001b170 f i libvcruntimed:per_thread_data.obj
 0001:0001a1a0       ??0?$__crt_unique_heap_ptr@U__vcrt_ptd@@U__crt_internal_free_policy@@@@QEAA@QEAU__vcrt_ptd@@@Z 000000018001b1a0 f i libvcruntimed:per_thread_data.obj
 0001:0001a1e0       ??1?$__crt_unique_heap_ptr@U__vcrt_ptd@@U__crt_internal_free_policy@@@@QEAA@XZ 000000018001b1e0 f i libvcruntimed:per_thread_data.obj
 0001:0001a220       ??B?$__crt_unique_heap_ptr@U__vcrt_ptd@@U__crt_internal_free_policy@@@@QEBA_NXZ 000000018001b220 f i libvcruntimed:per_thread_data.obj
 0001:0001a240       ?detach@?$__crt_unique_heap_ptr@U__vcrt_ptd@@U__crt_internal_free_policy@@@@QEAAPEAU__vcrt_ptd@@XZ 000000018001b240 f i libvcruntimed:per_thread_data.obj
 0001:0001a270       ?get@?$__crt_unique_heap_ptr@U__vcrt_ptd@@U__crt_internal_free_policy@@@@QEBAPEAU__vcrt_ptd@@XZ 000000018001b270 f i libvcruntimed:per_thread_data.obj
 0001:0001a280       ?is_valid@?$__crt_unique_heap_ptr@U__vcrt_ptd@@U__crt_internal_free_policy@@@@QEBA_NXZ 000000018001b280 f i libvcruntimed:per_thread_data.obj
 0001:0001a2b0       ?release@?$__crt_unique_heap_ptr@U__vcrt_ptd@@U__crt_internal_free_policy@@@@QEAAXXZ 000000018001b2b0 f i libvcruntimed:per_thread_data.obj
 0001:0001a320       __vcrt_freefls             000000018001b320 f   libvcruntimed:per_thread_data.obj
 0001:0001a360       __vcrt_freeptd_for_this_thread 000000018001b360 f   libvcruntimed:per_thread_data.obj
 0001:0001a3a0       __vcrt_getptd              000000018001b3a0 f   libvcruntimed:per_thread_data.obj
 0001:0001a3d0       __vcrt_getptd_noexit       000000018001b3d0 f   libvcruntimed:per_thread_data.obj
 0001:0001a570       __vcrt_getptd_noinit       000000018001b570 f   libvcruntimed:per_thread_data.obj
 0001:0001a5d0       __vcrt_initialize_ptd      000000018001b5d0 f   libvcruntimed:per_thread_data.obj
 0001:0001a620       __vcrt_uninitialize_ptd    000000018001b620 f   libvcruntimed:per_thread_data.obj
 0001:0001a650       __vcrt_initialize_locks    000000018001b650 f   libvcruntimed:locks.obj
 0001:0001a6c0       __vcrt_lock                000000018001b6c0 f   libvcruntimed:locks.obj
 0001:0001a6f0       __vcrt_uninitialize_locks  000000018001b6f0 f   libvcruntimed:locks.obj
 0001:0001a750       __vcrt_unlock              000000018001b750 f   libvcruntimed:locks.obj
 0001:0001a780       ??$?0AEAViterator@TryBlockMap4@FH4@@AEAV012@$0A@@?$pair@Viterator@TryBlockMap4@FH4@@V123@@std@@QEAA@AEAViterator@TryBlockMap4@FH4@@0@Z 000000018001b780 f i libvcruntimed:risctrnsctrl.obj
 0001:0001a7c0       ??$?0AEAViterator@TryBlockMap@__FrameHandler3@@AEAV012@$0A@@?$pair@Viterator@TryBlockMap@__FrameHandler3@@V123@@std@@QEAA@AEAViterator@TryBlockMap@__FrameHandler3@@0@Z 000000018001b7c0 f i libvcruntimed:risctrnsctrl.obj
 0001:0001a9b0       ??$_CallSETranslator@V__FrameHandler3@@@@YAHPEAUEHExceptionRecord@@PEA_KPEAU_CONTEXT@@PEAU_xDISPATCHER_CONTEXT@@PEBU_s_FuncInfo@@K1H@Z 000000018001b9b0 f i libvcruntimed:risctrnsctrl.obj
 0001:0001aa40       ??$_CallSETranslator@V__FrameHandler4@@@@YAHPEAUEHExceptionRecord@@PEA_KPEAU_CONTEXT@@PEAU_xDISPATCHER_CONTEXT@@PEAUFuncInfo4@FH4@@K1H@Z 000000018001ba40 f i libvcruntimed:risctrnsctrl.obj
 0001:0001aad0       ??0FuncInfo4@FH4@@QEAA@XZ  000000018001bad0 f i libvcruntimed:risctrnsctrl.obj
 0001:0001ab40       ??0FuncInfoHeader@FH4@@QEAA@XZ 000000018001bb40 f i libvcruntimed:risctrnsctrl.obj
 0001:0001ab60       ??0iterator@TryBlockMap4@FH4@@QEAA@AEAV12@I@Z 000000018001bb60 f i libvcruntimed:risctrnsctrl.obj
 0001:0001ab90       ??0iterator@TryBlockMap@__FrameHandler3@@QEAA@AEAV12@I@Z 000000018001bb90 f i libvcruntimed:risctrnsctrl.obj
 0001:0001abc0       ??4iterator@TryBlockMap4@FH4@@QEAAAEAV012@AEBV012@@Z 000000018001bbc0 f i libvcruntimed:risctrnsctrl.obj
 0001:0001abe0       ??9iterator@TryBlockMap4@FH4@@QEBA_NAEBV012@@Z 000000018001bbe0 f i libvcruntimed:risctrnsctrl.obj
 0001:0001ac20       ??Diterator@TryBlockMap4@FH4@@QEAA?AUTryBlockMapEntry4@2@XZ 000000018001bc20 f i libvcruntimed:risctrnsctrl.obj
 0001:0001ac50       ??Eiterator@TryBlockMap4@FH4@@QEAAAEAV012@XZ 000000018001bc50 f i libvcruntimed:risctrnsctrl.obj
 0001:0001ac90       ?CatchTryBlock@__FrameHandler3@@SAPEBU_s_TryBlockMapEntry@@PEBU_s_FuncInfo@@H@Z 000000018001bc90 f   libvcruntimed:risctrnsctrl.obj
 0001:0001ad20       ?DecompFuncInfo@FH4@@YA_JPEAEAEAUFuncInfo4@1@_KH@Z 000000018001bd20 f i libvcruntimed:risctrnsctrl.obj
 0001:0001ad60       ?DecompFuncInfo@FH4@@YA_JPEAEAEAUFuncInfo4@1@_KH_N@Z 000000018001bd60 f i libvcruntimed:risctrnsctrl.obj
 0001:0001af40       ?DecompTryBlock@TryBlockMap4@FH4@@AEAAXXZ 000000018001bf40 f i libvcruntimed:risctrnsctrl.obj
 0001:0001afc0       ?ExecutionInCatch@__FrameHandler3@@SA_NPEAU_xDISPATCHER_CONTEXT@@PEBU_s_FuncInfo@@@Z 000000018001bfc0 f   libvcruntimed:risctrnsctrl.obj
 0001:0001b010       ?ExecutionInCatch@__FrameHandler4@@SA_NPEAU_xDISPATCHER_CONTEXT@@PEAUFuncInfo4@FH4@@@Z 000000018001c010 f   libvcruntimed:risctrnsctrl.obj
 0001:0001b030       ?FrameUnwindToEmptyState@__FrameHandler3@@SAXPEA_KPEAU_xDISPATCHER_CONTEXT@@PEBU_s_FuncInfo@@@Z 000000018001c030 f   libvcruntimed:risctrnsctrl.obj
 0001:0001b0d0       ?FrameUnwindToEmptyState@__FrameHandler4@@SAXPEA_KPEAU_xDISPATCHER_CONTEXT@@PEAUFuncInfo4@FH4@@@Z 000000018001c0d0 f   libvcruntimed:risctrnsctrl.obj
 0001:0001b130       ?GetEstablisherFrame@__FrameHandler3@@SAPEA_KPEA_KPEAU_xDISPATCHER_CONTEXT@@PEBU_s_FuncInfo@@0@Z 000000018001c130 f   libvcruntimed:risctrnsctrl.obj
 0001:0001b2a0       ?GetEstablisherFrame@__FrameHandler4@@SAPEA_KPEA_KPEAU_xDISPATCHER_CONTEXT@@PEAUFuncInfo4@FH4@@0@Z 000000018001c2a0 f   libvcruntimed:risctrnsctrl.obj
 0001:0001b310       ?GetRangeOfTrysToCheck@__FrameHandler3@@SA?AU?$pair@Viterator@TryBlockMap@__FrameHandler3@@V123@@std@@AEAVTryBlockMap@1@HPEAU_xDISPATCHER_CONTEXT@@PEBU_s_FuncInfo@@H@Z 000000018001c310 f   libvcruntimed:risctrnsctrl.obj
 0001:0001b550       ?GetRangeOfTrysToCheck@__FrameHandler4@@SA?AU?$pair@Viterator@TryBlockMap4@FH4@@V123@@std@@AEAVTryBlockMap4@FH4@@HPEAU_xDISPATCHER_CONTEXT@@PEAUFuncInfo4@5@H@Z 000000018001c550 f   libvcruntimed:risctrnsctrl.obj
 0001:0001b710       ?ReadInt@FH4@@YAHPEAPEAE@Z 000000018001c710 f i libvcruntimed:risctrnsctrl.obj
 0001:0001b750       ?ReadUnsigned@FH4@@YAIPEAPEAE@Z 000000018001c750 f i libvcruntimed:risctrnsctrl.obj
 0001:0001b7e0       ?UnwindNestedFrames@__FrameHandler3@@SAXPEA_KPEAUEHExceptionRecord@@PEAU_CONTEXT@@0PEAXPEBU_s_FuncInfo@@HHPEBU_s_HandlerType@@PEAU_xDISPATCHER_CONTEXT@@E@Z 000000018001c7e0 f   libvcruntimed:risctrnsctrl.obj
 0001:0001b950       ?UnwindNestedFrames@__FrameHandler4@@SAXPEA_KPEAUEHExceptionRecord@@PEAU_CONTEXT@@0PEAXPEAUFuncInfo4@FH4@@HHPEAUHandlerType4@5@PEAU_xDISPATCHER_CONTEXT@@E@Z 000000018001c950 f   libvcruntimed:risctrnsctrl.obj
 0001:0001bb20       ?begin@TryBlockMap4@FH4@@QEAA?AViterator@12@XZ 000000018001cb20 f i libvcruntimed:risctrnsctrl.obj
 0001:0001bb50       ?end@TryBlockMap4@FH4@@QEAA?AViterator@12@XZ 000000018001cb50 f i libvcruntimed:risctrnsctrl.obj
 0001:0001bb80       ?imageRelToByteBuffer@FH4@@YAPEAE_KH@Z 000000018001cb80 f i libvcruntimed:risctrnsctrl.obj
 0001:0001bba0       ?incrementToSentinel@iterator@TryBlockMap4@FH4@@QEAAXXZ 000000018001cba0 f i libvcruntimed:risctrnsctrl.obj
 0001:0001bbc0       ?setBuffer@TryBlockMap4@FH4@@QEAAXViterator@12@@Z 000000018001cbc0 f i libvcruntimed:risctrnsctrl.obj
 0001:0001bc30       _CreateFrameInfo           000000018001cc30 f   libvcruntimed:risctrnsctrl.obj
 0001:0001bca0       _FindAndUnlinkFrame        000000018001cca0 f   libvcruntimed:risctrnsctrl.obj
 0001:0001bd20       _GetImageBase              000000018001cd20 f   libvcruntimed:risctrnsctrl.obj
 0001:0001bd40       _GetThrowImageBase         000000018001cd40 f   libvcruntimed:risctrnsctrl.obj
 0001:0001bd60       _SetImageBase              000000018001cd60 f   libvcruntimed:risctrnsctrl.obj
 0001:0001bd80       _SetThrowImageBase         000000018001cd80 f   libvcruntimed:risctrnsctrl.obj
 0001:0001bda0       __CxxFrameHandler          000000018001cda0 f   libvcruntimed:risctrnsctrl.obj
 0001:0001bde0       __CxxFrameHandler2         000000018001cde0 f   libvcruntimed:risctrnsctrl.obj
 0001:0001be20       __CxxFrameHandler3         000000018001ce20 f   libvcruntimed:risctrnsctrl.obj
 0001:0001bf00       __CxxFrameHandler4         000000018001cf00 f   libvcruntimed:risctrnsctrl.obj
 0001:0001c010       ??$__crt_interlocked_exchange_pointer@UHINSTANCE__@@PEAU1@@@YAPEAUHINSTANCE__@@PEDSEAU0@QEAU0@@Z 000000018001d010 f i libvcruntimed:winapi_downlevel.obj
 0001:0001c030       ??$__crt_interlocked_exchange_pointer@UHINSTANCE__@@PEAX@@YAPEAUHINSTANCE__@@PEDSEAU0@QEAX@Z 000000018001d030 f i libvcruntimed:winapi_downlevel.obj
 0001:0001c050       ??$__crt_interlocked_exchange_pointer@XPEAX@@YAPEAXPEDSEAXQEAX@Z 000000018001d050 f i libvcruntimed:winapi_downlevel.obj
 0001:0001c070       ??$__crt_interlocked_read_pointer@UHINSTANCE__@@@@YAPEAUHINSTANCE__@@PEDSEAU0@@Z 000000018001d070 f i libvcruntimed:winapi_downlevel.obj
 0001:0001c090       ??$__crt_interlocked_read_pointer@X@@YAPEAXPEDSEAX@Z 000000018001d090 f i libvcruntimed:winapi_downlevel.obj
 0001:0001c5a0       __vcrt_FlsAlloc            000000018001d5a0 f   libvcruntimed:winapi_downlevel.obj
 0001:0001c5f0       __vcrt_FlsFree             000000018001d5f0 f   libvcruntimed:winapi_downlevel.obj
 0001:0001c640       __vcrt_FlsGetValue         000000018001d640 f   libvcruntimed:winapi_downlevel.obj
 0001:0001c690       __vcrt_FlsSetValue         000000018001d690 f   libvcruntimed:winapi_downlevel.obj
 0001:0001c6f0       __vcrt_InitializeCriticalSectionEx 000000018001d6f0 f   libvcruntimed:winapi_downlevel.obj
 0001:0001c760       ?GetCurrentState@__FrameHandler3@@SAHPEA_KPEAU_xDISPATCHER_CONTEXT@@PEBU_s_FuncInfo@@@Z 000000018001d760 f   libvcruntimed:ehstate.obj
 0001:0001c7c0       ?GetUnwindTryBlock@__FrameHandler3@@SAHPEA_KPEAU_xDISPATCHER_CONTEXT@@PEBU_s_FuncInfo@@@Z 000000018001d7c0 f   libvcruntimed:ehstate.obj
 0001:0001c810       ?SetState@__FrameHandler3@@SAXPEA_KPEBU_s_FuncInfo@@H@Z 000000018001d810 f   libvcruntimed:ehstate.obj
 0001:0001c840       ?SetUnwindTryBlock@__FrameHandler3@@SAXPEA_KPEAU_xDISPATCHER_CONTEXT@@PEBU_s_FuncInfo@@H@Z 000000018001d840 f   libvcruntimed:ehstate.obj
 0001:0001c8b0       ?StateFromControlPc@__FrameHandler3@@SAHPEBU_s_FuncInfo@@PEAU_xDISPATCHER_CONTEXT@@@Z 000000018001d8b0 f   libvcruntimed:ehstate.obj
 0001:0001c8f0       ?StateFromControlPc@__FrameHandler4@@SAHPEAUFuncInfo4@FH4@@PEAU_xDISPATCHER_CONTEXT@@@Z 000000018001d8f0 f   libvcruntimed:ehstate.obj
 0001:0001c930       ?StateFromIp@__FrameHandler3@@SAHPEBU_s_FuncInfo@@PEAU_xDISPATCHER_CONTEXT@@_K@Z 000000018001d930 f   libvcruntimed:ehstate.obj
 0001:0001ca30       ?StateFromIp@__FrameHandler4@@SAHPEAUFuncInfo4@FH4@@PEAU_xDISPATCHER_CONTEXT@@_K@Z 000000018001da30 f   libvcruntimed:ehstate.obj
 0001:0001cb20       ?__FuncRelToRealOffset@@YA_KPEAU_xDISPATCHER_CONTEXT@@I@Z 000000018001db20 f i libvcruntimed:ehstate.obj
 0001:0001cb50       ?__RVAtoRealOffset@@YA_KPEAU_xDISPATCHER_CONTEXT@@H@Z 000000018001db50 f i libvcruntimed:ehstate.obj
 0001:0001edf0       ??$TypeMatchHelper@V__FrameHandler3@@@@YAHPEBU_s_HandlerType@@PEBU_s_CatchableType@@PEBU_s_ThrowInfo@@@Z 000000018001fdf0 f i libvcruntimed:frame.obj
 0001:0001eff0       ??$TypeMatchHelper@V__FrameHandler4@@@@YAHPEAUHandlerType4@FH4@@PEBU_s_CatchableType@@PEBU_s_ThrowInfo@@@Z 000000018001fff0 f i libvcruntimed:frame.obj
 0001:0001f200       ??$__InternalCxxFrameHandler@V__FrameHandler3@@@@YA?AW4_EXCEPTION_DISPOSITION@@PEAUEHExceptionRecord@@PEA_KPEAU_CONTEXT@@PEAU_xDISPATCHER_CONTEXT@@PEBU_s_FuncInfo@@H1E@Z 0000000180020200 f i libvcruntimed:frame.obj
 0001:0001f680       ??$__InternalCxxFrameHandler@V__FrameHandler4@@@@YA?AW4_EXCEPTION_DISPOSITION@@PEAUEHExceptionRecord@@PEA_KPEAU_CONTEXT@@PEAU_xDISPATCHER_CONTEXT@@PEAUFuncInfo4@FH4@@H1E@Z 0000000180020680 f i libvcruntimed:frame.obj
 0001:0001fb20       ??$__InternalCxxFrameHandlerWrapper@V__FrameHandler3@@@@YA?AW4_EXCEPTION_DISPOSITION@@PEAUEHExceptionRecord@@PEA_KPEAU_CONTEXT@@PEAU_xDISPATCHER_CONTEXT@@PEBU_s_FuncInfo@@H1E@Z 0000000180020b20 f i libvcruntimed:frame.obj
 0001:0001fb90       ??$__InternalCxxFrameHandlerWrapper@V__FrameHandler4@@@@YA?AW4_EXCEPTION_DISPOSITION@@PEAUEHExceptionRecord@@PEA_KPEAU_CONTEXT@@PEAU_xDISPATCHER_CONTEXT@@PEAUFuncInfo4@FH4@@H1E@Z 0000000180020b90 f i libvcruntimed:frame.obj
 0001:0001fc20       ??0HandlerMap4@FH4@@QEAA@PEBUTryBlockMapEntry4@1@_KH@Z 0000000180020c20 f i libvcruntimed:frame.obj
 0001:0001fd00       ??0HandlerMap@__FrameHandler3@@QEAA@PEBU_s_TryBlockMapEntry@@_KI@Z 0000000180020d00 f i libvcruntimed:frame.obj
 0001:0001fd50       ??0HandlerType4@FH4@@QEAA@XZ 0000000180020d50 f i libvcruntimed:frame.obj
 0001:0001fd70       ??0TryBlockMap4@FH4@@QEAA@PEBUFuncInfo4@1@_K@Z 0000000180020d70 f i libvcruntimed:frame.obj
 0001:0001fe30       ??0TryBlockMap@__FrameHandler3@@QEAA@PEBU_s_FuncInfo@@_K@Z 0000000180020e30 f i libvcruntimed:frame.obj
 0001:0001fe60       ??0UWMap4@FH4@@QEAA@PEBUFuncInfo4@1@_K@Z 0000000180020e60 f i libvcruntimed:frame.obj
 0001:0001fef0       ??0bad_exception@std@@QEAA@AEBV01@@Z 0000000180020ef0 f i libvcruntimed:frame.obj
 0001:0001ff30       ??0bad_exception@std@@QEAA@XZ 0000000180020f30 f i libvcruntimed:frame.obj
 0001:0001ff70       ??0exception@std@@QEAA@AEBV01@@Z 0000000180020f70 f i libvcruntimed:frame.obj
 0001:0001ffd0       ??0exception@std@@QEAA@QEBDH@Z 0000000180020fd0 f i libvcruntimed:frame.obj
 0001:00020020       ??0iterator@HandlerMap4@FH4@@QEAA@AEAV12@I@Z 0000000180021020 f i libvcruntimed:frame.obj
 0001:00020050       ??0iterator@HandlerMap@__FrameHandler3@@QEAA@AEAV12@I@Z 0000000180021050 f i libvcruntimed:frame.obj
 0001:00020080       ??0iterator@UWMap4@FH4@@QEAA@AEAV12@PEAE@Z 0000000180021080 f i libvcruntimed:frame.obj
 0001:000200b0       ??1bad_exception@std@@UEAA@XZ 00000001800210b0 f i libvcruntimed:frame.obj
 0001:000200d0       ??1exception@std@@UEAA@XZ  00000001800210d0 f i libvcruntimed:frame.obj
 0001:00020100       ??4iterator@UWMap4@FH4@@QEAAAEAV012@AEBV012@@Z 0000000180021100 f i libvcruntimed:frame.obj
 0001:00020150       ??8iterator@HandlerMap4@FH4@@QEBA_NAEBV012@@Z 0000000180021150 f i libvcruntimed:frame.obj
 0001:00020190       ??8iterator@HandlerMap@__FrameHandler3@@QEBA_NAEBV012@@Z 0000000180021190 f i libvcruntimed:frame.obj
 0001:000201d0       ??8type_info@@QEBA_NAEBV0@@Z 00000001800211d0 f i libvcruntimed:frame.obj
 0001:00020250       ??9iterator@HandlerMap4@FH4@@QEBA_NAEBV012@@Z 0000000180021250 f i libvcruntimed:frame.obj
 0001:00020290       ??9iterator@HandlerMap@__FrameHandler3@@QEBA_NAEBV012@@Z 0000000180021290 f i libvcruntimed:frame.obj
 0001:000202d0       ??Diterator@HandlerMap4@FH4@@QEAA?AUHandlerType4@2@XZ 00000001800212d0 f i libvcruntimed:frame.obj
 0001:00020300       ??Diterator@HandlerMap@__FrameHandler3@@QEAA?BU_s_HandlerType@@XZ 0000000180021300 f i libvcruntimed:frame.obj
 0001:00020340       ??Diterator@TryBlockMap@__FrameHandler3@@QEAA?BU_s_TryBlockMapEntry@@XZ 0000000180021340 f i libvcruntimed:frame.obj
 0001:00020390       ??Diterator@UWMap4@FH4@@QEAA?AUUnwindMapEntry4@2@XZ 0000000180021390 f i libvcruntimed:frame.obj
 0001:00020410       ??Eiterator@HandlerMap4@FH4@@QEAAAEAV012@XZ 0000000180021410 f i libvcruntimed:frame.obj
 0001:00020450       ??Eiterator@HandlerMap@__FrameHandler3@@QEAAAEAV012@XZ 0000000180021450 f i libvcruntimed:frame.obj
 0001:00020470       ??Eiterator@TryBlockMap@__FrameHandler3@@QEAAAEAV012@XZ 0000000180021470 f i libvcruntimed:frame.obj
 0001:00020490       ??Eiterator@UWMap4@FH4@@QEAAAEAV012@XZ 0000000180021490 f i libvcruntimed:frame.obj
 0001:000204d0       ??Giterator@UWMap4@FH4@@QEBA_JAEBV012@@Z 00000001800214d0 f i libvcruntimed:frame.obj
 0001:000204f0       ??Miterator@TryBlockMap4@FH4@@QEBA_NAEBV012@@Z 00000001800214f0 f i libvcruntimed:frame.obj
 0001:00020530       ??Miterator@TryBlockMap@__FrameHandler3@@QEBA_NAEBV012@@Z 0000000180021530 f i libvcruntimed:frame.obj
 0001:00020570       ??Oiterator@UWMap4@FH4@@QEBA_NAEBV012@@Z 0000000180021570 f i libvcruntimed:frame.obj
 0001:000205b0       ??Piterator@UWMap4@FH4@@QEBA_NAEBV012@@Z 00000001800215b0 f i libvcruntimed:frame.obj
 0001:000205f0       ??_Ebad_exception@std@@UEAAPEAXI@Z 00000001800215f0 f i libvcruntimed:frame.obj
 0001:000205f0       ??_Gbad_exception@std@@UEAAPEAXI@Z 00000001800215f0 f i libvcruntimed:frame.obj
 0001:00020630       ??_Eexception@std@@UEAAPEAXI@Z 0000000180021630 f i libvcruntimed:frame.obj
 0001:00020630       ??_Gexception@std@@UEAAPEAXI@Z 0000000180021630 f i libvcruntimed:frame.obj
 0001:00020670       ?BuildCatchObject@__FrameHandler3@@SAXPEAUEHExceptionRecord@@PEAXPEBU_s_HandlerType@@PEBU_s_CatchableType@@@Z 0000000180021670 f   libvcruntimed:frame.obj
 0001:000206b0       ?BuildCatchObject@__FrameHandler4@@SAXPEAUEHExceptionRecord@@PEAXPEAUHandlerType4@FH4@@PEBU_s_CatchableType@@@Z 00000001800216b0 f   libvcruntimed:frame.obj
 0001:000206f0       ?BuildCatchObjectHelper@__FrameHandler3@@SAHPEAUEHExceptionRecord@@PEAXPEBU_s_HandlerType@@PEBU_s_CatchableType@@@Z 00000001800216f0 f   libvcruntimed:frame.obj
 0001:00020730       ?BuildCatchObjectHelper@__FrameHandler4@@SAHPEAUEHExceptionRecord@@PEAXPEAUHandlerType4@FH4@@PEBU_s_CatchableType@@@Z 0000000180021730 f   libvcruntimed:frame.obj
 0001:00020770       ?CxxCallCatchBlock@__FrameHandler3@@SAPEAXPEAU_EXCEPTION_RECORD@@@Z 0000000180021770 f   libvcruntimed:frame.obj
 0001:000209d0       ?CxxCallCatchBlock@__FrameHandler4@@SAPEAXPEAU_EXCEPTION_RECORD@@@Z 00000001800219d0 f   libvcruntimed:frame.obj
 0001:00020d00       ?DecompHandler@HandlerMap4@FH4@@AEAAXXZ 0000000180021d00 f i libvcruntimed:frame.obj
 0001:000210d0       ?FrameUnwindToState@__FrameHandler3@@SAXPEA_KPEAU_xDISPATCHER_CONTEXT@@PEBU_s_FuncInfo@@H@Z 00000001800220d0 f   libvcruntimed:frame.obj
 0001:00021320       ?FrameUnwindToState@__FrameHandler4@@SAXPEA_KPEAU_xDISPATCHER_CONTEXT@@PEAUFuncInfo4@FH4@@H@Z 0000000180022320 f   libvcruntimed:frame.obj
 0001:00021640       ?GetHandlerSearchState@__FrameHandler3@@SAHPEA_KPEAU_xDISPATCHER_CONTEXT@@PEBU_s_FuncInfo@@@Z 0000000180022640 f i libvcruntimed:frame.obj
 0001:000216f0       ?GetHandlerSearchState@__FrameHandler4@@SAHPEA_KPEAU_xDISPATCHER_CONTEXT@@PEAUFuncInfo4@FH4@@@Z 00000001800226f0 f i libvcruntimed:frame.obj
 0001:00021780       ?GetMaxState@__FrameHandler3@@SAHPEAU_xDISPATCHER_CONTEXT@@PEBU_s_FuncInfo@@@Z 0000000180022780 f i libvcruntimed:frame.obj
 0001:000217a0       ?GetMaxState@__FrameHandler4@@SAHPEAU_xDISPATCHER_CONTEXT@@PEAUFuncInfo4@FH4@@@Z 00000001800227a0 f i libvcruntimed:frame.obj
 0001:000219d0       ?ReadEntry@UWMap4@FH4@@AEAAXPEAPEAE@Z 00000001800229d0 f i libvcruntimed:frame.obj
 0001:00021a80       ?TypeMatch@__FrameHandler3@@SAHPEBU_s_HandlerType@@PEBU_s_CatchableType@@PEBU_s_ThrowInfo@@@Z 0000000180022a80 f   libvcruntimed:frame.obj
 0001:00021ab0       ?TypeMatch@__FrameHandler4@@SAHPEAUHandlerType4@FH4@@PEBU_s_CatchableType@@PEBU_s_ThrowInfo@@@Z 0000000180022ab0 f   libvcruntimed:frame.obj
 0001:00021ae0       ?WalkBack@UWMap4@FH4@@AEAAXPEAPEAE@Z 0000000180022ae0 f i libvcruntimed:frame.obj
 0001:00021b30       ?WalkBack@iterator@UWMap4@FH4@@QEAAXXZ 0000000180022b30 f i libvcruntimed:frame.obj
 0001:00021b70       ?WalkForward@UWMap4@FH4@@AEAAXPEAPEAE@Z 0000000180022b70 f i libvcruntimed:frame.obj
 0001:00021ba0       ?_CallMemberFunction1@@YAXQEAX00@Z 0000000180022ba0 f i libvcruntimed:frame.obj
 0001:00021be0       ?_CallMemberFunction2@@YAXQEAX00H@Z 0000000180022be0 f i libvcruntimed:frame.obj
 0001:00021c70       ?begin@HandlerMap4@FH4@@QEAA?AViterator@12@XZ 0000000180022c70 f i libvcruntimed:frame.obj
 0001:00021ca0       ?begin@HandlerMap@__FrameHandler3@@QEAA?AViterator@12@XZ 0000000180022ca0 f i libvcruntimed:frame.obj
 0001:00021cd0       ?begin@UWMap4@FH4@@QEAA?AViterator@12@XZ 0000000180022cd0 f i libvcruntimed:frame.obj
 0001:00021d00       ?end@HandlerMap4@FH4@@QEAA?AViterator@12@XZ 0000000180022d00 f i libvcruntimed:frame.obj
 0001:00021d30       ?end@HandlerMap@__FrameHandler3@@QEAA?AViterator@12@XZ 0000000180022d30 f i libvcruntimed:frame.obj
 0001:00021d60       ?getESTypes@__FrameHandler3@@SAPEBU_s_ESTypeList@@PEBU_s_FuncInfo@@@Z 0000000180022d60 f i libvcruntimed:frame.obj
 0001:00021da0       ?getESTypes@__FrameHandler4@@SAPEBU_s_ESTypeList@@PEAUFuncInfo4@FH4@@@Z 0000000180022da0 f i libvcruntimed:frame.obj
 0001:00021db0       ?getLastEntry@HandlerMap4@FH4@@QEAAPEAUHandlerType4@2@XZ 0000000180022db0 f i libvcruntimed:frame.obj
 0001:00021df0       ?getLastEntry@HandlerMap@__FrameHandler3@@QEAAPEBU_s_HandlerType@@XZ 0000000180022df0 f i libvcruntimed:frame.obj
 0001:00021e10       ?getMagicNum@__FrameHandler3@@SAIPEBU_s_FuncInfo@@@Z 0000000180022e10 f i libvcruntimed:frame.obj
 0001:00021e30       ?getMagicNum@__FrameHandler4@@SAIPEAUFuncInfo4@FH4@@@Z 0000000180022e30 f i libvcruntimed:frame.obj
 0001:00021e40       ?getNumTryBlocks@TryBlockMap4@FH4@@QEAAIXZ 0000000180022e40 f i libvcruntimed:frame.obj
 0001:00021e50       ?getNumTryBlocks@TryBlockMap@__FrameHandler3@@QEAAIXZ 0000000180022e50 f i libvcruntimed:frame.obj
 0001:00021e70       ?getStartStop@UWMap4@FH4@@QEAAXHHAEAViterator@12@0@Z 0000000180022e70 f i libvcruntimed:frame.obj
 0001:00021f90       ?getStateFromIterators@UWMap4@FH4@@SAHAEBViterator@12@H0H0@Z 0000000180022f90 f i libvcruntimed:frame.obj
 0001:000220d0       ?isEHs@__FrameHandler3@@SA_NPEBU_s_FuncInfo@@@Z 00000001800230d0 f i libvcruntimed:frame.obj
 0001:00022110       ?isEHs@__FrameHandler4@@SA_NPEAUFuncInfo4@FH4@@@Z 0000000180023110 f i libvcruntimed:frame.obj
 0001:00022130       ?isNoExcept@__FrameHandler3@@SA_NPEBU_s_FuncInfo@@@Z 0000000180023130 f i libvcruntimed:frame.obj
 0001:00022170       ?isNoExcept@__FrameHandler4@@SA_NPEAUFuncInfo4@FH4@@@Z 0000000180023170 f i libvcruntimed:frame.obj
 0001:00022190       ?reset@HandlerType4@FH4@@QEAAXXZ 0000000180023190 f i libvcruntimed:frame.obj
 0001:000221f0       ?resetBuffer@HandlerMap4@FH4@@QEAAXXZ 00000001800231f0 f i libvcruntimed:frame.obj
 0001:00022210       ?setBuffer@HandlerMap4@FH4@@QEAAXI@Z 0000000180023210 f i libvcruntimed:frame.obj
 0001:00022270       ?what@exception@std@@UEBAPEBDXZ 0000000180023270 f i libvcruntimed:frame.obj
 0001:000222b0       __BuildCatchObject         00000001800232b0 f   libvcruntimed:frame.obj
 0001:000222f0       __BuildCatchObjectHelper   00000001800232f0 f   libvcruntimed:frame.obj
 0001:00022330       __TypeMatch                0000000180023330 f   libvcruntimed:frame.obj
 0001:00022360       __vcrt_EncodePointer       0000000180023360 f i libvcruntimed:frame.obj
 0001:000223c0       _CallSettingFrame          00000001800233c0 f   libvcruntimed:handlers.obj
 0001:00022400       _CallSettingFrame_LookupContinuationIndex 0000000180023400 f   libvcruntimed:handlers.obj
 0001:00022430       _CallSettingFrame_NotifyContinuationAddr 0000000180023430 f   libvcruntimed:handlers.obj
 0001:00022460       _CallSettingFrameEncoded   0000000180023460 f   libvcruntimed:handlers.obj
 0001:000224b0       ??$?RD@__crt_public_free_policy@@QEBAXQEBD@Z 00000001800234b0 f i libvcruntimed:std_exception.obj
 0001:000224d0       ??0?$__crt_unique_heap_ptr@DU__crt_public_free_policy@@@@QEAA@QEAD@Z 00000001800234d0 f i libvcruntimed:std_exception.obj
 0001:000224f0       ??1?$__crt_unique_heap_ptr@DU__crt_public_free_policy@@@@QEAA@XZ 00000001800234f0 f i libvcruntimed:std_exception.obj
 0001:00022510       ??B?$__crt_unique_heap_ptr@DU__crt_public_free_policy@@@@QEBA_NXZ 0000000180023510 f i libvcruntimed:std_exception.obj
 0001:00022530       ?detach@?$__crt_unique_heap_ptr@DU__crt_public_free_policy@@@@QEAAPEADXZ 0000000180023530 f i libvcruntimed:std_exception.obj
 0001:00022560       ?get@?$__crt_unique_heap_ptr@DU__crt_public_free_policy@@@@QEBAPEADXZ 0000000180023560 f i libvcruntimed:std_exception.obj
 0001:00022570       ?is_valid@?$__crt_unique_heap_ptr@DU__crt_public_free_policy@@@@QEBA_NXZ 0000000180023570 f i libvcruntimed:std_exception.obj
 0001:000225a0       ?release@?$__crt_unique_heap_ptr@DU__crt_public_free_policy@@@@QEAAXXZ 00000001800235a0 f i libvcruntimed:std_exception.obj
 0001:000225d0       __std_exception_copy       00000001800235d0 f   libvcruntimed:std_exception.obj
 0001:00022710       __std_exception_destroy    0000000180023710 f   libvcruntimed:std_exception.obj
 0001:00022750       _CxxThrowException         0000000180023750 f   libvcruntimed:throw.obj
 0001:00022890       __p__crtDbgFlag            0000000180023890 f   libucrtd:debug_heap.obj
 0001:000228a0       __p__crtBreakAlloc         00000001800238a0 f   libucrtd:debug_heap.obj
 0001:000228b0       _CrtGetAllocHook           00000001800238b0 f   libucrtd:debug_heap.obj
 0001:000228c0       _CrtSetAllocHook           00000001800238c0 f   libucrtd:debug_heap.obj
 0001:000228f0       _CrtGetDumpClient          00000001800238f0 f   libucrtd:debug_heap.obj
 0001:00022900       _CrtSetDumpClient          0000000180023900 f   libucrtd:debug_heap.obj
 0001:00022930       _CrtCheckMemory            0000000180023930 f   libucrtd:debug_heap.obj
 0001:00022ad0       _CrtDoForAllClientObjects  0000000180023ad0 f   libucrtd:debug_heap.obj
 0001:00022c20       _CrtDumpMemoryLeaks        0000000180023c20 f   libucrtd:debug_heap.obj
 0001:00022d00       _CrtIsMemoryBlock          0000000180023d00 f   libucrtd:debug_heap.obj
 0001:00022e40       _CrtIsValidHeapPointer     0000000180023e40 f   libucrtd:debug_heap.obj
 0001:00022e90       _CrtIsValidPointer         0000000180023e90 f   libucrtd:debug_heap.obj
 0001:00022ed0       _CrtMemCheckpoint          0000000180023ed0 f   libucrtd:debug_heap.obj
 0001:00023160       _CrtMemDifference          0000000180024160 f   libucrtd:debug_heap.obj
 0001:000234c0       _CrtMemDumpAllObjectsSince 00000001800244c0 f   libucrtd:debug_heap.obj
 0001:00023520       _CrtMemDumpStatistics      0000000180024520 f   libucrtd:debug_heap.obj
 0001:000236c0       _CrtReportBlockType        00000001800246c0 f   libucrtd:debug_heap.obj
 0001:00023700       _CrtSetBreakAlloc          0000000180024700 f   libucrtd:debug_heap.obj
 0001:00023730       _CrtSetDbgFlag             0000000180024730 f   libucrtd:debug_heap.obj
 0001:00023890       _aligned_free_dbg          0000000180024890 f   libucrtd:debug_heap.obj
 0001:00023980       _aligned_malloc_dbg        0000000180024980 f   libucrtd:debug_heap.obj
 0001:000239d0       _aligned_msize_dbg         00000001800249d0 f   libucrtd:debug_heap.obj
 0001:00023ba0       _aligned_offset_malloc_dbg 0000000180024ba0 f   libucrtd:debug_heap.obj
 0001:00023e90       _aligned_offset_realloc_dbg 0000000180024e90 f   libucrtd:debug_heap.obj
 0001:00024390       _aligned_offset_recalloc_dbg 0000000180025390 f   libucrtd:debug_heap.obj
 0001:000244b0       _aligned_realloc_dbg       00000001800254b0 f   libucrtd:debug_heap.obj
 0001:00024500       _aligned_recalloc_dbg      0000000180025500 f   libucrtd:debug_heap.obj
 0001:00024560       _calloc_dbg                0000000180025560 f   libucrtd:debug_heap.obj
 0001:00024600       _expand_dbg                0000000180025600 f   libucrtd:debug_heap.obj
 0001:00024740       _free_dbg                  0000000180025740 f   libucrtd:debug_heap.obj
 0001:000247b0       _malloc_dbg                00000001800257b0 f   libucrtd:debug_heap.obj
 0001:000247f0       _msize_dbg                 00000001800257f0 f   libucrtd:debug_heap.obj
 0001:00024990       _realloc_dbg               0000000180025990 f   libucrtd:debug_heap.obj
 0001:00024a10       _recalloc_dbg              0000000180025a10 f   libucrtd:debug_heap.obj
 0001:000262f0       _CrtSetDbgBlockType        00000001800272f0 f   libucrtd:debug_heap.obj
 0001:00026fb0       ??0_LocaleUpdate@@QEAA@QEAU__crt_locale_pointers@@@Z 0000000180027fb0 f i libucrtd:debug_heap.obj
 0001:000270d0       ??1_LocaleUpdate@@QEAA@XZ  00000001800280d0 f i libucrtd:debug_heap.obj
 0001:00027100       ?GetLocaleT@_LocaleUpdate@@QEAAPEAU__crt_locale_pointers@@XZ 0000000180028100 f i libucrtd:debug_heap.obj
 0001:00027110       __acrt_disable_global_locale_sync 0000000180028110 f i libucrtd:debug_heap.obj
 0001:00027140       __acrt_enable_global_locale_sync 0000000180028140 f i libucrtd:debug_heap.obj
 0001:00027170       __acrt_get_locale_data_prefix 0000000180028170 f i libucrtd:debug_heap.obj
 0001:00027190       __acrt_locale_changed      0000000180028190 f i libucrtd:debug_heap.obj
 0001:000271c0       _chvalidchk_l              00000001800281c0 f i libucrtd:debug_heap.obj
 0001:000271f0       _invoke_watson_if_oneof    00000001800281f0 f i libucrtd:debug_heap.obj
 0001:00027250       _ischartype_l              0000000180028250 f i libucrtd:debug_heap.obj
 0001:000272e0       ??$?RU?$__crt_report_hook_node@D@@@__crt_internal_free_policy@@QEBAXQEBU?$__crt_report_hook_node@D@@@Z 00000001800282e0 f i libucrtd:dbgrpt.obj
 0001:00027310       ??$?RU?$__crt_report_hook_node@_W@@@__crt_internal_free_policy@@QEBAXQEBU?$__crt_report_hook_node@_W@@@Z 0000000180028310 f i libucrtd:dbgrpt.obj
 0001:00028590       ??$get_module_file_name@AEAPEAUHINSTANCE__@@AEAY0BAF@DK@?$__crt_char_traits@D@@SAKAEAPEAUHINSTANCE__@@AEAY0BAF@D$$QEAK@Z 0000000180029590 f i libucrtd:dbgrpt.obj
 0001:000285d0       ??$get_module_file_name@AEAPEAUHINSTANCE__@@AEAY0BAF@_WK@?$__crt_char_traits@_W@@SAKAEAPEAUHINSTANCE__@@AEAY0BAF@_W$$QEAK@Z 00000001800295d0 f i libucrtd:dbgrpt.obj
 0001:00028610       ??$tcscpy_s@AEAY0BAF@D_KPEBD@?$__crt_char_traits@D@@SAHAEAY0BAF@D$$QEA_K$$QEAPEBD@Z 0000000180029610 f i libucrtd:dbgrpt.obj
 0001:00028650       ??$tcscpy_s@AEAY0BAF@_W_KPEB_W@?$__crt_char_traits@_W@@SAHAEAY0BAF@_W$$QEA_K$$QEAPEB_W@Z 0000000180029650 f i libucrtd:dbgrpt.obj
 0001:00028690       ??$tcslen@AEAY0BAF@D@?$__crt_char_traits@D@@SA_KAEAY0BAF@D@Z 0000000180029690 f i libucrtd:dbgrpt.obj
 0001:000286b0       ??$tcslen@AEAY0BAF@_W@?$__crt_char_traits@_W@@SA_KAEAY0BAF@_W@Z 00000001800296b0 f i libucrtd:dbgrpt.obj
 0001:000286d0       ??$tcslen@AEBQEBD@?$__crt_char_traits@D@@SA_KAEBQEBD@Z 00000001800296d0 f i libucrtd:dbgrpt.obj
 0001:000286f0       ??$tcslen@AEBQEB_W@?$__crt_char_traits@_W@@SA_KAEBQEB_W@Z 00000001800296f0 f i libucrtd:dbgrpt.obj
 0001:000287f0       ??0?$__crt_unique_heap_ptr@U?$__crt_report_hook_node@D@@U__crt_internal_free_policy@@@@QEAA@QEAU?$__crt_report_hook_node@D@@@Z 00000001800297f0 f i libucrtd:dbgrpt.obj
 0001:00028810       ??0?$__crt_unique_heap_ptr@U?$__crt_report_hook_node@_W@@U__crt_internal_free_policy@@@@QEAA@QEAU?$__crt_report_hook_node@_W@@@Z 0000000180029810 f i libucrtd:dbgrpt.obj
 0001:00028830       ??1?$__crt_unique_heap_ptr@U?$__crt_report_hook_node@D@@U__crt_internal_free_policy@@@@QEAA@XZ 0000000180029830 f i libucrtd:dbgrpt.obj
 0001:00028850       ??1?$__crt_unique_heap_ptr@U?$__crt_report_hook_node@_W@@U__crt_internal_free_policy@@@@QEAA@XZ 0000000180029850 f i libucrtd:dbgrpt.obj
 0001:00028870       ??B?$__crt_unique_heap_ptr@U?$__crt_report_hook_node@D@@U__crt_internal_free_policy@@@@QEBA_NXZ 0000000180029870 f i libucrtd:dbgrpt.obj
 0001:00028890       ??B?$__crt_unique_heap_ptr@U?$__crt_report_hook_node@_W@@U__crt_internal_free_policy@@@@QEBA_NXZ 0000000180029890 f i libucrtd:dbgrpt.obj
 0001:00028fb0       ?detach@?$__crt_unique_heap_ptr@U?$__crt_report_hook_node@D@@U__crt_internal_free_policy@@@@QEAAPEAU?$__crt_report_hook_node@D@@XZ 0000000180029fb0 f i libucrtd:dbgrpt.obj
 0001:00028fe0       ?detach@?$__crt_unique_heap_ptr@U?$__crt_report_hook_node@_W@@U__crt_internal_free_policy@@@@QEAAPEAU?$__crt_report_hook_node@_W@@XZ 0000000180029fe0 f i libucrtd:dbgrpt.obj
 0001:00029010       ?get@?$__crt_unique_heap_ptr@U?$__crt_report_hook_node@D@@U__crt_internal_free_policy@@@@QEBAPEAU?$__crt_report_hook_node@D@@XZ 000000018002a010 f i libucrtd:dbgrpt.obj
 0001:00029020       ?get@?$__crt_unique_heap_ptr@U?$__crt_report_hook_node@_W@@U__crt_internal_free_policy@@@@QEBAPEAU?$__crt_report_hook_node@_W@@XZ 000000018002a020 f i libucrtd:dbgrpt.obj
 0001:00029090       ?is_valid@?$__crt_unique_heap_ptr@U?$__crt_report_hook_node@D@@U__crt_internal_free_policy@@@@QEBA_NXZ 000000018002a090 f i libucrtd:dbgrpt.obj
 0001:000290c0       ?is_valid@?$__crt_unique_heap_ptr@U?$__crt_report_hook_node@_W@@U__crt_internal_free_policy@@@@QEBA_NXZ 000000018002a0c0 f i libucrtd:dbgrpt.obj
 0001:000290f0       ?release@?$__crt_unique_heap_ptr@U?$__crt_report_hook_node@D@@U__crt_internal_free_policy@@@@QEAAXXZ 000000018002a0f0 f i libucrtd:dbgrpt.obj
 0001:00029120       ?release@?$__crt_unique_heap_ptr@U?$__crt_report_hook_node@_W@@U__crt_internal_free_policy@@@@QEAAXXZ 000000018002a120 f i libucrtd:dbgrpt.obj
 0001:00029150       _CrtDbgReport              000000018002a150 f   libucrtd:dbgrpt.obj
 0001:000291d0       _CrtDbgReportW             000000018002a1d0 f   libucrtd:dbgrpt.obj
 0001:00029250       _CrtSetReportHook2         000000018002a250 f   libucrtd:dbgrpt.obj
 0001:00029270       _CrtSetReportHookW2        000000018002a270 f   libucrtd:dbgrpt.obj
 0001:00029290       __acrt_MessageWindowA      000000018002a290 f   libucrtd:dbgrpt.obj
 0001:000292e0       __acrt_MessageWindowW      000000018002a2e0 f   libucrtd:dbgrpt.obj
 0001:00029330       _invoke_watson_if_error    000000018002a330 f i libucrtd:dbgrpt.obj
 0001:00029380       _snwprintf_s               000000018002a380 f i libucrtd:dbgrpt.obj
 0001:00029400       _vsnwprintf_s_l            000000018002a400 f i libucrtd:dbgrpt.obj
 0001:00029480       _initterm                  000000018002a480 f   libucrtd:initterm.obj
 0001:000294e0       _initterm_e                000000018002a4e0 f   libucrtd:initterm.obj
 0001:000295d0       _seh_filter_dll            000000018002a5d0 f   libucrtd:exception_filter.obj
 0001:00029600       _seh_filter_exe            000000018002a600 f   libucrtd:exception_filter.obj
 0001:000298c0       ??$?B$$A6AXPEAXK0@Z@__crt_fast_encoded_nullptr_t@@QEBAP6AXPEAXK0@ZXZ 000000018002a8c0 f i libucrtd:exit.obj
 0001:00029980       ??$__crt_fast_decode_pointer@P6AXPEAXK0@Z@@YAP6AXPEAXK0@ZQ6AX0K0@Z@Z 000000018002a980 f i libucrtd:exit.obj
 0001:000299c0       ??$__crt_fast_encode_pointer@P6AXPEAXK0@Z@@YAP6AXPEAXK0@ZQ6AX0K0@Z@Z 000000018002a9c0 f i libucrtd:exit.obj
 0001:00029a00       ??$__crt_get_proc_address@P6AXI@Z@@YAP6AXI@ZQEAUHINSTANCE__@@QEBD@Z 000000018002aa00 f i libucrtd:exit.obj
 0001:00029a30       ??$__crt_interlocked_read@J@@YAJPEDJ@Z 000000018002aa30 f i libucrtd:exit.obj
 0001:00029ae0       ??0?$__crt_unique_handle_t@U__crt_hmodule_traits@@@@QEAA@QEAUHINSTANCE__@@@Z 000000018002aae0 f i libucrtd:exit.obj
 0001:00029b00       ??1?$__crt_unique_handle_t@U__crt_hmodule_traits@@@@QEAA@XZ 000000018002ab00 f i libucrtd:exit.obj
 0001:00029c70       ?__acrt_select_exit_lock@@YA?AW4__acrt_lock_id@@XZ 000000018002ac70 f i libucrtd:exit.obj
 0001:00029c80       ?__crt_fast_encode_pointer@@YA?AU__crt_fast_encoded_nullptr_t@@$$T@Z 000000018002ac80 f i libucrtd:exit.obj
 0001:00029ca0       ?__crt_interlocked_read_32@@YAHPEDH@Z 000000018002aca0 f i libucrtd:exit.obj
 0001:00029cc0       ?__crt_rotate_pointer_value@@YA_K_KH@Z 000000018002acc0 f i libucrtd:exit.obj
 0001:00029d00       ?close@?$__crt_unique_handle_t@U__crt_hmodule_traits@@@@QEAAXXZ 000000018002ad00 f i libucrtd:exit.obj
 0001:00029d40       ?close@__crt_hmodule_traits@@SA_NPEAUHINSTANCE__@@@Z 000000018002ad40 f i libucrtd:exit.obj
 0001:00029e80       ?get@?$__crt_unique_handle_t@U__crt_hmodule_traits@@@@QEBAPEAUHINSTANCE__@@XZ 000000018002ae80 f i libucrtd:exit.obj
 0001:00029e90       ?get_address_of@?$__crt_unique_handle_t@U__crt_hmodule_traits@@@@QEAAPEAPEAUHINSTANCE__@@XZ 000000018002ae90 f i libucrtd:exit.obj
 0001:00029ea0       ?get_invalid_value@__crt_hmodule_traits@@SAPEAUHINSTANCE__@@XZ 000000018002aea0 f i libucrtd:exit.obj
 0001:0002a050       _Exit                      000000018002b050 f   libucrtd:exit.obj
 0001:0002a070       __acrt_initialize_thread_local_exit_callback 000000018002b070 f   libucrtd:exit.obj
 0001:0002a090       _c_exit                    000000018002b090 f   libucrtd:exit.obj
 0001:0002a0b0       _cexit                     000000018002b0b0 f   libucrtd:exit.obj
 0001:0002a0d0       _exit                      000000018002b0d0 f   libucrtd:exit.obj
 0001:0002a0f0       _is_c_termination_complete 000000018002b0f0 f   libucrtd:exit.obj
 0001:0002a110       _register_thread_local_exe_atexit_callback 000000018002b110 f   libucrtd:exit.obj
 0001:0002a160       exit                       000000018002b160 f   libucrtd:exit.obj
 0001:0002a180       quick_exit                 000000018002b180 f   libucrtd:exit.obj
 0001:0002a1a0       ??$?RE@__crt_internal_free_policy@@QEBAXQEBE@Z 000000018002b1a0 f i libucrtd:argv_parsing.obj
 0001:0002a1d0       ??$?RPEAD@__crt_internal_free_policy@@QEBAXQEBQEAD@Z 000000018002b1d0 f i libucrtd:argv_parsing.obj
 0001:0002a200       ??$?RPEA_W@__crt_internal_free_policy@@QEBAXQEBQEA_W@Z 000000018002b200 f i libucrtd:argv_parsing.obj
 0001:0002a950       ??$get_module_file_name@$$TAEAY0BAF@DH@?$__crt_char_traits@D@@SAK$$QEA$$TAEAY0BAF@D$$QEAH@Z 000000018002b950 f i libucrtd:argv_parsing.obj
 0001:0002a990       ??$get_module_file_name@$$TAEAY0BAF@_WH@?$__crt_char_traits@_W@@SAK$$QEA$$TAEAY0BAF@_W$$QEAH@Z 000000018002b990 f i libucrtd:argv_parsing.obj
 0001:0002b3b0       ??$set_program_name@PEAD@?$__crt_char_traits@D@@SAX$$QEAPEAD@Z 000000018002c3b0 f i libucrtd:argv_parsing.obj
 0001:0002b3d0       ??$set_program_name@PEA_W@?$__crt_char_traits@_W@@SAX$$QEAPEA_W@Z 000000018002c3d0 f i libucrtd:argv_parsing.obj
 0001:0002b430       ??0?$__crt_unique_heap_ptr@EU__crt_internal_free_policy@@@@QEAA@QEAE@Z 000000018002c430 f i libucrtd:argv_parsing.obj
 0001:0002b450       ??0?$__crt_unique_heap_ptr@PEADU__crt_internal_free_policy@@@@QEAA@QEAPEAD@Z 000000018002c450 f i libucrtd:argv_parsing.obj
 0001:0002b470       ??0?$__crt_unique_heap_ptr@PEA_WU__crt_internal_free_policy@@@@QEAA@QEAPEA_W@Z 000000018002c470 f i libucrtd:argv_parsing.obj
 0001:0002b490       ??1?$__crt_unique_heap_ptr@EU__crt_internal_free_policy@@@@QEAA@XZ 000000018002c490 f i libucrtd:argv_parsing.obj
 0001:0002b4b0       ??1?$__crt_unique_heap_ptr@PEADU__crt_internal_free_policy@@@@QEAA@XZ 000000018002c4b0 f i libucrtd:argv_parsing.obj
 0001:0002b4d0       ??1?$__crt_unique_heap_ptr@PEA_WU__crt_internal_free_policy@@@@QEAA@XZ 000000018002c4d0 f i libucrtd:argv_parsing.obj
 0001:0002b4f0       ??B?$__crt_unique_heap_ptr@EU__crt_internal_free_policy@@@@QEBA_NXZ 000000018002c4f0 f i libucrtd:argv_parsing.obj
 0001:0002b5d0       ?detach@?$__crt_unique_heap_ptr@EU__crt_internal_free_policy@@@@QEAAPEAEXZ 000000018002c5d0 f i libucrtd:argv_parsing.obj
 0001:0002b600       ?detach@?$__crt_unique_heap_ptr@PEADU__crt_internal_free_policy@@@@QEAAPEAPEADXZ 000000018002c600 f i libucrtd:argv_parsing.obj
 0001:0002b630       ?detach@?$__crt_unique_heap_ptr@PEA_WU__crt_internal_free_policy@@@@QEAAPEAPEA_WXZ 000000018002c630 f i libucrtd:argv_parsing.obj
 0001:0002b6f0       ?get@?$__crt_unique_heap_ptr@EU__crt_internal_free_policy@@@@QEBAPEAEXZ 000000018002c6f0 f i libucrtd:argv_parsing.obj
 0001:0002b700       ?get@?$__crt_unique_heap_ptr@PEADU__crt_internal_free_policy@@@@QEBAPEAPEADXZ 000000018002c700 f i libucrtd:argv_parsing.obj
 0001:0002b710       ?get@?$__crt_unique_heap_ptr@PEA_WU__crt_internal_free_policy@@@@QEBAPEAPEA_WXZ 000000018002c710 f i libucrtd:argv_parsing.obj
 0001:0002b720       ?get_address_of@?$__crt_unique_heap_ptr@PEADU__crt_internal_free_policy@@@@QEAAPEAPEAPEADXZ 000000018002c720 f i libucrtd:argv_parsing.obj
 0001:0002b730       ?get_address_of@?$__crt_unique_heap_ptr@PEA_WU__crt_internal_free_policy@@@@QEAAPEAPEAPEA_WXZ 000000018002c730 f i libucrtd:argv_parsing.obj
 0001:0002b780       ?is_valid@?$__crt_unique_heap_ptr@EU__crt_internal_free_policy@@@@QEBA_NXZ 000000018002c780 f i libucrtd:argv_parsing.obj
 0001:0002b7b0       ?release@?$__crt_unique_heap_ptr@EU__crt_internal_free_policy@@@@QEAAXXZ 000000018002c7b0 f i libucrtd:argv_parsing.obj
 0001:0002b7e0       ?release@?$__crt_unique_heap_ptr@PEADU__crt_internal_free_policy@@@@QEAAXXZ 000000018002c7e0 f i libucrtd:argv_parsing.obj
 0001:0002b810       ?release@?$__crt_unique_heap_ptr@PEA_WU__crt_internal_free_policy@@@@QEAAXXZ 000000018002c810 f i libucrtd:argv_parsing.obj
 0001:0002b890       __acrt_allocate_buffer_for_argv 000000018002c890 f   libucrtd:argv_parsing.obj
 0001:0002b9b0       _configure_narrow_argv     000000018002c9b0 f   libucrtd:argv_parsing.obj
 0001:0002b9d0       _configure_wide_argv       000000018002c9d0 f   libucrtd:argv_parsing.obj
 0001:0002b9f0       _set_pgmptr                000000018002c9f0 f i libucrtd:argv_parsing.obj
 0001:0002ba10       _set_wpgmptr               000000018002ca10 f i libucrtd:argv_parsing.obj
 0001:0002ba30       ??$?R_W@__crt_internal_free_policy@@QEBAXQEB_W@Z 000000018002ca30 f i libucrtd:environment_initialization.obj
 0001:0002c3f0       ??$get_environment_from_os@$$V@?$__crt_char_traits@D@@SAPEADXZ 000000018002d3f0 f i libucrtd:environment_initialization.obj
 0001:0002c400       ??$get_environment_from_os@$$V@?$__crt_char_traits@_W@@SAPEA_WXZ 000000018002d400 f i libucrtd:environment_initialization.obj
 0001:0002c710       ??$set_variable_in_environment_nolock@PEADH@?$__crt_char_traits@D@@SAH$$QEAPEAD$$QEAH@Z 000000018002d710 f i libucrtd:environment_initialization.obj
 0001:0002c740       ??$set_variable_in_environment_nolock@PEA_WH@?$__crt_char_traits@_W@@SAH$$QEAPEA_W$$QEAH@Z 000000018002d740 f i libucrtd:environment_initialization.obj
 0001:0002c770       ??$tcscpy_s@PEADAEB_KAEAPEAD@?$__crt_char_traits@D@@SAH$$QEAPEADAEB_KAEAPEAD@Z 000000018002d770 f i libucrtd:environment_initialization.obj
 0001:0002c7b0       ??$tcscpy_s@PEA_WAEB_KAEAPEA_W@?$__crt_char_traits@_W@@SAH$$QEAPEA_WAEB_KAEAPEA_W@Z 000000018002d7b0 f i libucrtd:environment_initialization.obj
 0001:0002c7f0       ??$tcslen@AEAPEAD@?$__crt_char_traits@D@@SA_KAEAPEAD@Z 000000018002d7f0 f i libucrtd:environment_initialization.obj
 0001:0002c810       ??$tcslen@AEAPEA_W@?$__crt_char_traits@_W@@SA_KAEAPEA_W@Z 000000018002d810 f i libucrtd:environment_initialization.obj
 0001:0002c830       ??$uninitialize@A6AXAEAPEAPEAD@_E@?$dual_state_global@PEAPEAD@__crt_state_management@@QEAAXA6AXAEAPEAPEAD@_E@Z 000000018002d830 f i libucrtd:environment_initialization.obj
 0001:0002c8a0       ??$uninitialize@A6AXAEAPEAPEA_W@_E@?$dual_state_global@PEAPEA_W@__crt_state_management@@QEAAXA6AXAEAPEAPEA_W@_E@Z 000000018002d8a0 f i libucrtd:environment_initialization.obj
 0001:0002c990       ??0?$__crt_unique_heap_ptr@_WU__crt_internal_free_policy@@@@QEAA@QEA_W@Z 000000018002d990 f i libucrtd:environment_initialization.obj
 0001:0002c9b0       ??1?$__crt_unique_heap_ptr@_WU__crt_internal_free_policy@@@@QEAA@XZ 000000018002d9b0 f i libucrtd:environment_initialization.obj
 0001:0002c9d0       ??B?$__crt_unique_heap_ptr@PEADU__crt_internal_free_policy@@@@QEBA_NXZ 000000018002d9d0 f i libucrtd:environment_initialization.obj
 0001:0002c9f0       ??B?$__crt_unique_heap_ptr@PEA_WU__crt_internal_free_policy@@@@QEBA_NXZ 000000018002d9f0 f i libucrtd:environment_initialization.obj
 0001:0002ca10       ??B?$__crt_unique_heap_ptr@_WU__crt_internal_free_policy@@@@QEBA_NXZ 000000018002da10 f i libucrtd:environment_initialization.obj
 0001:0002ca30       ?__crt_compute_required_transform_buffer_count@@YA_KIQEBD@Z 000000018002da30 f i libucrtd:environment_initialization.obj
 0001:0002ca70       ?__crt_compute_required_transform_buffer_count@@YA_KIQEB_W@Z 000000018002da70 f i libucrtd:environment_initialization.obj
 0001:0002cac0       ?__crt_transform_string@@YA_KIQEBDQEA_W_K@Z 000000018002dac0 f i libucrtd:environment_initialization.obj
 0001:0002cb10       ?__crt_transform_string@@YA_KIQEB_WQEAD_K@Z 000000018002db10 f i libucrtd:environment_initialization.obj
 0001:0002cb70       ?detach@?$__crt_unique_heap_ptr@DU__crt_internal_free_policy@@@@QEAAPEADXZ 000000018002db70 f i libucrtd:environment_initialization.obj
 0001:0002cba0       ?detach@?$__crt_unique_heap_ptr@_WU__crt_internal_free_policy@@@@QEAAPEA_WXZ 000000018002dba0 f i libucrtd:environment_initialization.obj
 0001:0002cbd0       ?get@?$__crt_unique_heap_ptr@_WU__crt_internal_free_policy@@@@QEBAPEA_WXZ 000000018002dbd0 f i libucrtd:environment_initialization.obj
 0001:0002cbe0       ?get_current_state_index@__crt_state_management@@YA_KXZ 000000018002dbe0 f i libucrtd:environment_initialization.obj
 0001:0002cc70       ?initialize@?$dual_state_global@PEAPEAD@__crt_state_management@@QEAAXQEAPEAD@Z 000000018002dc70 f i libucrtd:environment_initialization.obj
 0001:0002ccc0       ?initialize@?$dual_state_global@PEAPEA_W@__crt_state_management@@QEAAXQEAPEA_W@Z 000000018002dcc0 f i libucrtd:environment_initialization.obj
 0001:0002cd10       ?is_valid@?$__crt_unique_heap_ptr@PEADU__crt_internal_free_policy@@@@QEBA_NXZ 000000018002dd10 f i libucrtd:environment_initialization.obj
 0001:0002cd40       ?is_valid@?$__crt_unique_heap_ptr@PEA_WU__crt_internal_free_policy@@@@QEBA_NXZ 000000018002dd40 f i libucrtd:environment_initialization.obj
 0001:0002cd70       ?is_valid@?$__crt_unique_heap_ptr@_WU__crt_internal_free_policy@@@@QEBA_NXZ 000000018002dd70 f i libucrtd:environment_initialization.obj
 0001:0002cdd0       ?release@?$__crt_unique_heap_ptr@_WU__crt_internal_free_policy@@@@QEAAXXZ 000000018002ddd0 f i libucrtd:environment_initialization.obj
 0001:0002ce00       ?value@?$dual_state_global@PEAPEAD@__crt_state_management@@QEAAAEAPEAPEADXZ 000000018002de00 f i libucrtd:environment_initialization.obj
 0001:0002ce20       ?value@?$dual_state_global@PEAPEA_W@__crt_state_management@@QEAAAEAPEAPEA_WXZ 000000018002de20 f i libucrtd:environment_initialization.obj
 0001:0002ce40       __dcrt_get_or_create_narrow_environment_nolock 000000018002de40 f   libucrtd:environment_initialization.obj
 0001:0002ce50       __dcrt_get_or_create_wide_environment_nolock 000000018002de50 f   libucrtd:environment_initialization.obj
 0001:0002ce60       __dcrt_uninitialize_environments_nolock 000000018002de60 f   libucrtd:environment_initialization.obj
 0001:0002ceb0       __p__environ               000000018002deb0 f   libucrtd:environment_initialization.obj
 0001:0002ced0       __p__wenviron              000000018002ded0 f   libucrtd:environment_initialization.obj
 0001:0002cef0       _get_initial_narrow_environment 000000018002def0 f   libucrtd:environment_initialization.obj
 0001:0002cf00       _get_initial_wide_environment 000000018002df00 f   libucrtd:environment_initialization.obj
 0001:0002cf10       _initialize_narrow_environment 000000018002df10 f   libucrtd:environment_initialization.obj
 0001:0002cf20       _initialize_wide_environment 000000018002df20 f   libucrtd:environment_initialization.obj
 0001:0002cf30       ??$?B$$A6AXXZ@__crt_fast_encoded_nullptr_t@@QEBAP6AXXZXZ 000000018002df30 f i libucrtd:onexit.obj
 0001:0002cf50       ??$?BP6AXXZ@__crt_fast_encoded_nullptr_t@@QEBAPEAP6AXXZXZ 000000018002df50 f i libucrtd:onexit.obj
 0001:0002cf70       ??$?RP6AXXZ@__crt_internal_free_policy@@QEBAXQEBQ6AXXZ@Z 000000018002df70 f i libucrtd:onexit.obj
 0001:0002d100       ??$__crt_fast_decode_pointer@P6AXXZ@@YAP6AXXZQ6AXXZ@Z 000000018002e100 f i libucrtd:onexit.obj
 0001:0002d140       ??$__crt_fast_decode_pointer@PEAP6AXXZ@@YAPEAP6AXXZQEAP6AXXZ@Z 000000018002e140 f i libucrtd:onexit.obj
 0001:0002d180       ??$__crt_fast_encode_pointer@P6AHXZ@@YAP6AHXZQ6AHXZ@Z 000000018002e180 f i libucrtd:onexit.obj
 0001:0002d1c0       ??$__crt_fast_encode_pointer@P6AXXZ@@YAP6AXXZQ6AXXZ@Z 000000018002e1c0 f i libucrtd:onexit.obj
 0001:0002d200       ??$__crt_fast_encode_pointer@PEAP6AXXZ@@YAPEAP6AXXZQEAP6AXXZ@Z 000000018002e200 f i libucrtd:onexit.obj
 0001:0002d310       ??0?$__crt_unique_heap_ptr@P6AXXZU__crt_internal_free_policy@@@@QEAA@QEAP6AXXZ@Z 000000018002e310 f i libucrtd:onexit.obj
 0001:0002d330       ??1?$__crt_unique_heap_ptr@P6AXXZU__crt_internal_free_policy@@@@QEAA@XZ 000000018002e330 f i libucrtd:onexit.obj
 0001:0002d350       ??1scoped_global_state_reset@__crt_state_management@@QEAA@XZ 000000018002e350 f i libucrtd:onexit.obj
 0001:0002d950       ?detach@?$__crt_unique_heap_ptr@P6AXXZU__crt_internal_free_policy@@@@QEAAPEAP6AXXZXZ 000000018002e950 f i libucrtd:onexit.obj
 0001:0002d980       ?release@?$__crt_unique_heap_ptr@P6AXXZU__crt_internal_free_policy@@@@QEAAXXZ 000000018002e980 f i libucrtd:onexit.obj
 0001:0002d9b0       _crt_at_quick_exit         000000018002e9b0 f   libucrtd:onexit.obj
 0001:0002d9d0       _crt_atexit                000000018002e9d0 f   libucrtd:onexit.obj
 0001:0002d9f0       _execute_onexit_table      000000018002e9f0 f   libucrtd:onexit.obj
 0001:0002da30       _initialize_onexit_table   000000018002ea30 f   libucrtd:onexit.obj
 0001:0002dab0       _register_onexit_function  000000018002eab0 f   libucrtd:onexit.obj
 0001:0002dd30       ??$?BX@__crt_fast_encoded_nullptr_t@@QEBAPEAXXZ 000000018002ed30 f i libucrtd:initialization.obj
 0001:0002dd50       ??$__crt_fast_encode_pointer@PEAX@@YAPEAXQEAX@Z 000000018002ed50 f i libucrtd:initialization.obj
 0001:0002de50       ?initialize@?$dual_state_global@PEAU__crt_locale_data@@@__crt_state_management@@QEAAXQEAU__crt_locale_data@@@Z 000000018002ee50 f i libucrtd:initialization.obj
 0001:0002dea0       __acrt_initialize          000000018002eea0 f   libucrtd:initialization.obj
 0001:0002ded0       __acrt_thread_attach       000000018002eed0 f   libucrtd:initialization.obj
 0001:0002def0       __acrt_thread_detach       000000018002eef0 f   libucrtd:initialization.obj
 0001:0002df00       __acrt_uninitialize        000000018002ef00 f   libucrtd:initialization.obj
 0001:0002df30       __acrt_uninitialize_critical 000000018002ef30 f   libucrtd:initialization.obj
 0001:0002df90       _get_terminate             000000018002ef90 f   libucrtd:terminate.obj
 0001:0002dfb0       set_terminate              000000018002efb0 f   libucrtd:terminate.obj
 0001:0002dff0       terminate                  000000018002eff0 f   libucrtd:terminate.obj
 0001:0002e510       strcpy_s                   000000018002f510 f   libucrtd:strcpy_s.obj
 0001:0002ebb0       strcat_s                   000000018002fbb0 f   libucrtd:strcat_s.obj
 0001:0002ebe0       ??$?0AEBV?$stream_output_adapter@D@__crt_stdio_output@@AEB_KAEBQEBDAEAV__crt_cached_ptd_host@@AEBQEAD@?$format_validation_base@DV?$stream_output_adapter@D@__crt_stdio_output@@@__crt_stdio_output@@IEAA@AEBV?$stream_output_adapter@D@1@AEB_KAEBQEBDAEAV__crt_cached_ptd_host@@AEBQEAD@Z 000000018002fbe0 f i libucrtd:output.obj
 0001:0002ec30       ??$?0AEBV?$stream_output_adapter@D@__crt_stdio_output@@AEB_KAEBQEBDAEAV__crt_cached_ptd_host@@AEBQEAD@?$positional_parameter_base@DV?$stream_output_adapter@D@__crt_stdio_output@@@__crt_stdio_output@@IEAA@AEBV?$stream_output_adapter@D@1@AEB_KAEBQEBDAEAV__crt_cached_ptd_host@@AEBQEAD@Z 000000018002fc30 f i libucrtd:output.obj
 0001:0002ecd0       ??$?0AEBV?$stream_output_adapter@D@__crt_stdio_output@@AEB_KAEBQEBDAEAV__crt_cached_ptd_host@@AEBQEAD@?$standard_base@DV?$stream_output_adapter@D@__crt_stdio_output@@@__crt_stdio_output@@IEAA@AEBV?$stream_output_adapter@D@1@AEB_KAEBQEBDAEAV__crt_cached_ptd_host@@AEBQEAD@Z 000000018002fcd0 f i libucrtd:output.obj
 0001:0002ed40       ??$?0AEBV?$stream_output_adapter@_W@__crt_stdio_output@@AEB_KAEBQEB_WAEAV__crt_cached_ptd_host@@AEBQEAD@?$format_validation_base@_WV?$stream_output_adapter@_W@__crt_stdio_output@@@__crt_stdio_output@@IEAA@AEBV?$stream_output_adapter@_W@1@AEB_KAEBQEB_WAEAV__crt_cached_ptd_host@@AEBQEAD@Z 000000018002fd40 f i libucrtd:output.obj
 0001:0002ed90       ??$?0AEBV?$stream_output_adapter@_W@__crt_stdio_output@@AEB_KAEBQEB_WAEAV__crt_cached_ptd_host@@AEBQEAD@?$positional_parameter_base@_WV?$stream_output_adapter@_W@__crt_stdio_output@@@__crt_stdio_output@@IEAA@AEBV?$stream_output_adapter@_W@1@AEB_KAEBQEB_WAEAV__crt_cached_ptd_host@@AEBQEAD@Z 000000018002fd90 f i libucrtd:output.obj
 0001:0002ee30       ??$?0AEBV?$stream_output_adapter@_W@__crt_stdio_output@@AEB_KAEBQEB_WAEAV__crt_cached_ptd_host@@AEBQEAD@?$standard_base@_WV?$stream_output_adapter@_W@__crt_stdio_output@@@__crt_stdio_output@@IEAA@AEBV?$stream_output_adapter@_W@1@AEB_KAEBQEB_WAEAV__crt_cached_ptd_host@@AEBQEAD@Z 000000018002fe30 f i libucrtd:output.obj
 0001:0002eea0       ??$?0AEBV?$string_output_adapter@D@__crt_stdio_output@@AEB_KAEBQEBDAEAV__crt_cached_ptd_host@@AEBQEAD@?$format_validation_base@DV?$string_output_adapter@D@__crt_stdio_output@@@__crt_stdio_output@@IEAA@AEBV?$string_output_adapter@D@1@AEB_KAEBQEBDAEAV__crt_cached_ptd_host@@AEBQEAD@Z 000000018002fea0 f i libucrtd:output.obj
 0001:0002eef0       ??$?0AEBV?$string_output_adapter@D@__crt_stdio_output@@AEB_KAEBQEBDAEAV__crt_cached_ptd_host@@AEBQEAD@?$positional_parameter_base@DV?$string_output_adapter@D@__crt_stdio_output@@@__crt_stdio_output@@IEAA@AEBV?$string_output_adapter@D@1@AEB_KAEBQEBDAEAV__crt_cached_ptd_host@@AEBQEAD@Z 000000018002fef0 f i libucrtd:output.obj
 0001:0002ef90       ??$?0AEBV?$string_output_adapter@D@__crt_stdio_output@@AEB_KAEBQEBDAEAV__crt_cached_ptd_host@@AEBQEAD@?$standard_base@DV?$string_output_adapter@D@__crt_stdio_output@@@__crt_stdio_output@@IEAA@AEBV?$string_output_adapter@D@1@AEB_KAEBQEBDAEAV__crt_cached_ptd_host@@AEBQEAD@Z 000000018002ff90 f i libucrtd:output.obj
 0001:0002f000       ??$?0AEBV?$string_output_adapter@_W@__crt_stdio_output@@AEB_KAEBQEB_WAEAV__crt_cached_ptd_host@@AEBQEAD@?$format_validation_base@_WV?$string_output_adapter@_W@__crt_stdio_output@@@__crt_stdio_output@@IEAA@AEBV?$string_output_adapter@_W@1@AEB_KAEBQEB_WAEAV__crt_cached_ptd_host@@AEBQEAD@Z 0000000180030000 f i libucrtd:output.obj
 0001:0002f050       ??$?0AEBV?$string_output_adapter@_W@__crt_stdio_output@@AEB_KAEBQEB_WAEAV__crt_cached_ptd_host@@AEBQEAD@?$positional_parameter_base@_WV?$string_output_adapter@_W@__crt_stdio_output@@@__crt_stdio_output@@IEAA@AEBV?$string_output_adapter@_W@1@AEB_KAEBQEB_WAEAV__crt_cached_ptd_host@@AEBQEAD@Z 0000000180030050 f i libucrtd:output.obj
 0001:0002f0f0       ??$?0AEBV?$string_output_adapter@_W@__crt_stdio_output@@AEB_KAEBQEB_WAEAV__crt_cached_ptd_host@@AEBQEAD@?$standard_base@_WV?$string_output_adapter@_W@__crt_stdio_output@@@__crt_stdio_output@@IEAA@AEBV?$string_output_adapter@_W@1@AEB_KAEBQEB_WAEAV__crt_cached_ptd_host@@AEBQEAD@Z 00000001800300f0 f i libucrtd:output.obj
 0001:0002f580       ??$_tcstol_internal@DPEAPEAD$0A@@@YAJAEAV__crt_cached_ptd_host@@QEBDQEAPEADH@Z 0000000180030580 f i libucrtd:output.obj
 0001:0002f5d0       ??$_tcstol_internal@_WPEAPEA_W$0A@@@YAJAEAV__crt_cached_ptd_host@@QEB_WQEAPEA_WH@Z 00000001800305d0 f i libucrtd:output.obj
 0001:000335f0       ??$count@D@formatting_buffer@__crt_stdio_output@@QEBA_KXZ 00000001800345f0 f i libucrtd:output.obj
 0001:00033640       ??$count@_W@formatting_buffer@__crt_stdio_output@@QEBA_KXZ 0000000180034640 f i libucrtd:output.obj
 0001:00033690       ??$data@D@formatting_buffer@__crt_stdio_output@@QEAAPEADXZ 0000000180034690 f i libucrtd:output.obj
 0001:000336e0       ??$data@_W@formatting_buffer@__crt_stdio_output@@QEAAPEA_WXZ 00000001800346e0 f i libucrtd:output.obj
 0001:00033730       ??$ensure_buffer_is_big_enough@D@formatting_buffer@__crt_stdio_output@@QEAA_N_KAEAV__crt_cached_ptd_host@@@Z 0000000180034730 f i libucrtd:output.obj
 0001:00033870       ??$ensure_buffer_is_big_enough@_W@formatting_buffer@__crt_stdio_output@@QEAA_N_KAEAV__crt_cached_ptd_host@@@Z 0000000180034870 f i libucrtd:output.obj
 0001:000339b0       ??$extract_argument_from_va_list@C_J@?$positional_parameter_base@DV?$stream_output_adapter@D@__crt_stdio_output@@@__crt_stdio_output@@IEAA_NAEA_J@Z 00000001800349b0 f i libucrtd:output.obj
 0001:00033b70       ??$extract_argument_from_va_list@C_J@?$positional_parameter_base@DV?$string_output_adapter@D@__crt_stdio_output@@@__crt_stdio_output@@IEAA_NAEA_J@Z 0000000180034b70 f i libucrtd:output.obj
 0001:00033d30       ??$extract_argument_from_va_list@C_J@?$positional_parameter_base@_WV?$stream_output_adapter@_W@__crt_stdio_output@@@__crt_stdio_output@@IEAA_NAEA_J@Z 0000000180034d30 f i libucrtd:output.obj
 0001:00033ef0       ??$extract_argument_from_va_list@C_J@?$positional_parameter_base@_WV?$string_output_adapter@_W@__crt_stdio_output@@@__crt_stdio_output@@IEAA_NAEA_J@Z 0000000180034ef0 f i libucrtd:output.obj
 0001:000340b0       ??$extract_argument_from_va_list@C_J@?$standard_base@DV?$stream_output_adapter@D@__crt_stdio_output@@@__crt_stdio_output@@IEAA_NAEA_J@Z 00000001800350b0 f i libucrtd:output.obj
 0001:000340f0       ??$extract_argument_from_va_list@C_J@?$standard_base@DV?$string_output_adapter@D@__crt_stdio_output@@@__crt_stdio_output@@IEAA_NAEA_J@Z 00000001800350f0 f i libucrtd:output.obj
 0001:00034130       ??$extract_argument_from_va_list@C_J@?$standard_base@_WV?$stream_output_adapter@_W@__crt_stdio_output@@@__crt_stdio_output@@IEAA_NAEA_J@Z 0000000180035130 f i libucrtd:output.obj
 0001:00034170       ??$extract_argument_from_va_list@C_J@?$standard_base@_WV?$string_output_adapter@_W@__crt_stdio_output@@@__crt_stdio_output@@IEAA_NAEA_J@Z 0000000180035170 f i libucrtd:output.obj
 0001:000341b0       ??$extract_argument_from_va_list@E_J@?$positional_parameter_base@DV?$stream_output_adapter@D@__crt_stdio_output@@@__crt_stdio_output@@IEAA_NAEA_J@Z 00000001800351b0 f i libucrtd:output.obj
 0001:00034370       ??$extract_argument_from_va_list@E_J@?$positional_parameter_base@DV?$string_output_adapter@D@__crt_stdio_output@@@__crt_stdio_output@@IEAA_NAEA_J@Z 0000000180035370 f i libucrtd:output.obj
 0001:00034530       ??$extract_argument_from_va_list@E_J@?$positional_parameter_base@_WV?$stream_output_adapter@_W@__crt_stdio_output@@@__crt_stdio_output@@IEAA_NAEA_J@Z 0000000180035530 f i libucrtd:output.obj
 0001:000346f0       ??$extract_argument_from_va_list@E_J@?$positional_parameter_base@_WV?$string_output_adapter@_W@__crt_stdio_output@@@__crt_stdio_output@@IEAA_NAEA_J@Z 00000001800356f0 f i libucrtd:output.obj
 0001:000348b0       ??$extract_argument_from_va_list@E_J@?$standard_base@DV?$stream_output_adapter@D@__crt_stdio_output@@@__crt_stdio_output@@IEAA_NAEA_J@Z 00000001800358b0 f i libucrtd:output.obj
 0001:000348f0       ??$extract_argument_from_va_list@E_J@?$standard_base@DV?$string_output_adapter@D@__crt_stdio_output@@@__crt_stdio_output@@IEAA_NAEA_J@Z 00000001800358f0 f i libucrtd:output.obj
 0001:00034930       ??$extract_argument_from_va_list@E_J@?$standard_base@_WV?$stream_output_adapter@_W@__crt_stdio_output@@@__crt_stdio_output@@IEAA_NAEA_J@Z 0000000180035930 f i libucrtd:output.obj
 0001:00034970       ??$extract_argument_from_va_list@E_J@?$standard_base@_WV?$string_output_adapter@_W@__crt_stdio_output@@@__crt_stdio_output@@IEAA_NAEA_J@Z 0000000180035970 f i libucrtd:output.obj
 0001:000349b0       ??$extract_argument_from_va_list@F_J@?$positional_parameter_base@DV?$stream_output_adapter@D@__crt_stdio_output@@@__crt_stdio_output@@IEAA_NAEA_J@Z 00000001800359b0 f i libucrtd:output.obj
 0001:00034b70       ??$extract_argument_from_va_list@F_J@?$positional_parameter_base@DV?$string_output_adapter@D@__crt_stdio_output@@@__crt_stdio_output@@IEAA_NAEA_J@Z 0000000180035b70 f i libucrtd:output.obj
 0001:00034d30       ??$extract_argument_from_va_list@F_J@?$positional_parameter_base@_WV?$stream_output_adapter@_W@__crt_stdio_output@@@__crt_stdio_output@@IEAA_NAEA_J@Z 0000000180035d30 f i libucrtd:output.obj
 0001:00034ef0       ??$extract_argument_from_va_list@F_J@?$positional_parameter_base@_WV?$string_output_adapter@_W@__crt_stdio_output@@@__crt_stdio_output@@IEAA_NAEA_J@Z 0000000180035ef0 f i libucrtd:output.obj
 0001:000350b0       ??$extract_argument_from_va_list@F_J@?$standard_base@DV?$stream_output_adapter@D@__crt_stdio_output@@@__crt_stdio_output@@IEAA_NAEA_J@Z 00000001800360b0 f i libucrtd:output.obj
 0001:000350f0       ??$extract_argument_from_va_list@F_J@?$standard_base@DV?$string_output_adapter@D@__crt_stdio_output@@@__crt_stdio_output@@IEAA_NAEA_J@Z 00000001800360f0 f i libucrtd:output.obj
 0001:00035130       ??$extract_argument_from_va_list@F_J@?$standard_base@_WV?$stream_output_adapter@_W@__crt_stdio_output@@@__crt_stdio_output@@IEAA_NAEA_J@Z 0000000180036130 f i libucrtd:output.obj
 0001:00035170       ??$extract_argument_from_va_list@F_J@?$standard_base@_WV?$string_output_adapter@_W@__crt_stdio_output@@@__crt_stdio_output@@IEAA_NAEA_J@Z 0000000180036170 f i libucrtd:output.obj
 0001:000351b0       ??$extract_argument_from_va_list@GD@?$positional_parameter_base@DV?$stream_output_adapter@D@__crt_stdio_output@@@__crt_stdio_output@@IEAA_NAEAD@Z 00000001800361b0 f i libucrtd:output.obj
 0001:00035370       ??$extract_argument_from_va_list@GD@?$positional_parameter_base@DV?$string_output_adapter@D@__crt_stdio_output@@@__crt_stdio_output@@IEAA_NAEAD@Z 0000000180036370 f i libucrtd:output.obj
 0001:00035530       ??$extract_argument_from_va_list@GD@?$standard_base@DV?$stream_output_adapter@D@__crt_stdio_output@@@__crt_stdio_output@@IEAA_NAEAD@Z 0000000180036530 f i libucrtd:output.obj
 0001:00035560       ??$extract_argument_from_va_list@GD@?$standard_base@DV?$string_output_adapter@D@__crt_stdio_output@@@__crt_stdio_output@@IEAA_NAEAD@Z 0000000180036560 f i libucrtd:output.obj
 0001:00035590       ??$extract_argument_from_va_list@G_J@?$positional_parameter_base@DV?$stream_output_adapter@D@__crt_stdio_output@@@__crt_stdio_output@@IEAA_NAEA_J@Z 0000000180036590 f i libucrtd:output.obj
 0001:00035750       ??$extract_argument_from_va_list@G_J@?$positional_parameter_base@DV?$string_output_adapter@D@__crt_stdio_output@@@__crt_stdio_output@@IEAA_NAEA_J@Z 0000000180036750 f i libucrtd:output.obj
 0001:00035910       ??$extract_argument_from_va_list@G_J@?$positional_parameter_base@_WV?$stream_output_adapter@_W@__crt_stdio_output@@@__crt_stdio_output@@IEAA_NAEA_J@Z 0000000180036910 f i libucrtd:output.obj
 0001:00035ad0       ??$extract_argument_from_va_list@G_J@?$positional_parameter_base@_WV?$string_output_adapter@_W@__crt_stdio_output@@@__crt_stdio_output@@IEAA_NAEA_J@Z 0000000180036ad0 f i libucrtd:output.obj
 0001:00035c90       ??$extract_argument_from_va_list@G_J@?$standard_base@DV?$stream_output_adapter@D@__crt_stdio_output@@@__crt_stdio_output@@IEAA_NAEA_J@Z 0000000180036c90 f i libucrtd:output.obj
 0001:00035cd0       ??$extract_argument_from_va_list@G_J@?$standard_base@DV?$string_output_adapter@D@__crt_stdio_output@@@__crt_stdio_output@@IEAA_NAEA_J@Z 0000000180036cd0 f i libucrtd:output.obj
 0001:00035d10       ??$extract_argument_from_va_list@G_J@?$standard_base@_WV?$stream_output_adapter@_W@__crt_stdio_output@@@__crt_stdio_output@@IEAA_NAEA_J@Z 0000000180036d10 f i libucrtd:output.obj
 0001:00035d50       ??$extract_argument_from_va_list@G_J@?$standard_base@_WV?$string_output_adapter@_W@__crt_stdio_output@@@__crt_stdio_output@@IEAA_NAEA_J@Z 0000000180036d50 f i libucrtd:output.obj
 0001:00035d90       ??$extract_argument_from_va_list@H_J@?$positional_parameter_base@DV?$stream_output_adapter@D@__crt_stdio_output@@@__crt_stdio_output@@IEAA_NAEA_J@Z 0000000180036d90 f i libucrtd:output.obj
 0001:00035f50       ??$extract_argument_from_va_list@H_J@?$positional_parameter_base@DV?$string_output_adapter@D@__crt_stdio_output@@@__crt_stdio_output@@IEAA_NAEA_J@Z 0000000180036f50 f i libucrtd:output.obj
 0001:00036110       ??$extract_argument_from_va_list@H_J@?$positional_parameter_base@_WV?$stream_output_adapter@_W@__crt_stdio_output@@@__crt_stdio_output@@IEAA_NAEA_J@Z 0000000180037110 f i libucrtd:output.obj
 0001:000362d0       ??$extract_argument_from_va_list@H_J@?$positional_parameter_base@_WV?$string_output_adapter@_W@__crt_stdio_output@@@__crt_stdio_output@@IEAA_NAEA_J@Z 00000001800372d0 f i libucrtd:output.obj
 0001:00036490       ??$extract_argument_from_va_list@H_J@?$standard_base@DV?$stream_output_adapter@D@__crt_stdio_output@@@__crt_stdio_output@@IEAA_NAEA_J@Z 0000000180037490 f i libucrtd:output.obj
 0001:000364c0       ??$extract_argument_from_va_list@H_J@?$standard_base@DV?$string_output_adapter@D@__crt_stdio_output@@@__crt_stdio_output@@IEAA_NAEA_J@Z 00000001800374c0 f i libucrtd:output.obj
 0001:000364f0       ??$extract_argument_from_va_list@H_J@?$standard_base@_WV?$stream_output_adapter@_W@__crt_stdio_output@@@__crt_stdio_output@@IEAA_NAEA_J@Z 00000001800374f0 f i libucrtd:output.obj
 0001:00036520       ??$extract_argument_from_va_list@H_J@?$standard_base@_WV?$string_output_adapter@_W@__crt_stdio_output@@@__crt_stdio_output@@IEAA_NAEA_J@Z 0000000180037520 f i libucrtd:output.obj
 0001:00036550       ??$extract_argument_from_va_list@I_J@?$positional_parameter_base@DV?$stream_output_adapter@D@__crt_stdio_output@@@__crt_stdio_output@@IEAA_NAEA_J@Z 0000000180037550 f i libucrtd:output.obj
 0001:00036710       ??$extract_argument_from_va_list@I_J@?$positional_parameter_base@DV?$string_output_adapter@D@__crt_stdio_output@@@__crt_stdio_output@@IEAA_NAEA_J@Z 0000000180037710 f i libucrtd:output.obj
 0001:000368d0       ??$extract_argument_from_va_list@I_J@?$positional_parameter_base@_WV?$stream_output_adapter@_W@__crt_stdio_output@@@__crt_stdio_output@@IEAA_NAEA_J@Z 00000001800378d0 f i libucrtd:output.obj
 0001:00036a90       ??$extract_argument_from_va_list@I_J@?$positional_parameter_base@_WV?$string_output_adapter@_W@__crt_stdio_output@@@__crt_stdio_output@@IEAA_NAEA_J@Z 0000000180037a90 f i libucrtd:output.obj
 0001:00036c50       ??$extract_argument_from_va_list@I_J@?$standard_base@DV?$stream_output_adapter@D@__crt_stdio_output@@@__crt_stdio_output@@IEAA_NAEA_J@Z 0000000180037c50 f i libucrtd:output.obj
 0001:00036c80       ??$extract_argument_from_va_list@I_J@?$standard_base@DV?$string_output_adapter@D@__crt_stdio_output@@@__crt_stdio_output@@IEAA_NAEA_J@Z 0000000180037c80 f i libucrtd:output.obj
 0001:00036cb0       ??$extract_argument_from_va_list@I_J@?$standard_base@_WV?$stream_output_adapter@_W@__crt_stdio_output@@@__crt_stdio_output@@IEAA_NAEA_J@Z 0000000180037cb0 f i libucrtd:output.obj
 0001:00036ce0       ??$extract_argument_from_va_list@I_J@?$standard_base@_WV?$string_output_adapter@_W@__crt_stdio_output@@@__crt_stdio_output@@IEAA_NAEA_J@Z 0000000180037ce0 f i libucrtd:output.obj
 0001:00036d10       ??$extract_argument_from_va_list@PEADPEAD@?$positional_parameter_base@DV?$stream_output_adapter@D@__crt_stdio_output@@@__crt_stdio_output@@IEAA_NAEAPEAD@Z 0000000180037d10 f i libucrtd:output.obj
 0001:00036ed0       ??$extract_argument_from_va_list@PEADPEAD@?$positional_parameter_base@DV?$string_output_adapter@D@__crt_stdio_output@@@__crt_stdio_output@@IEAA_NAEAPEAD@Z 0000000180037ed0 f i libucrtd:output.obj
 0001:00037090       ??$extract_argument_from_va_list@PEADPEAD@?$positional_parameter_base@_WV?$stream_output_adapter@_W@__crt_stdio_output@@@__crt_stdio_output@@IEAA_NAEAPEAD@Z 0000000180038090 f i libucrtd:output.obj
 0001:00037250       ??$extract_argument_from_va_list@PEADPEAD@?$positional_parameter_base@_WV?$string_output_adapter@_W@__crt_stdio_output@@@__crt_stdio_output@@IEAA_NAEAPEAD@Z 0000000180038250 f i libucrtd:output.obj
 0001:00037410       ??$extract_argument_from_va_list@PEADPEAD@?$standard_base@DV?$stream_output_adapter@D@__crt_stdio_output@@@__crt_stdio_output@@IEAA_NAEAPEAD@Z 0000000180038410 f i libucrtd:output.obj
 0001:00037440       ??$extract_argument_from_va_list@PEADPEAD@?$standard_base@DV?$string_output_adapter@D@__crt_stdio_output@@@__crt_stdio_output@@IEAA_NAEAPEAD@Z 0000000180038440 f i libucrtd:output.obj
 0001:00037470       ??$extract_argument_from_va_list@PEADPEAD@?$standard_base@_WV?$stream_output_adapter@_W@__crt_stdio_output@@@__crt_stdio_output@@IEAA_NAEAPEAD@Z 0000000180038470 f i libucrtd:output.obj
 0001:000374a0       ??$extract_argument_from_va_list@PEADPEAD@?$standard_base@_WV?$string_output_adapter@_W@__crt_stdio_output@@@__crt_stdio_output@@IEAA_NAEAPEAD@Z 00000001800384a0 f i libucrtd:output.obj
 0001:000374d0       ??$extract_argument_from_va_list@PEAUansi_string@?1??type_case_Z@?$output_processor@DV?$stream_output_adapter@D@__crt_stdio_output@@V?$format_validation_base@DV?$stream_output_adapter@D@__crt_stdio_output@@@2@@__crt_stdio_output@@AEAA_NXZ@PEAU1?1??234@AEAA_NXZ@@?$standard_base@DV?$stream_output_adapter@D@__crt_stdio_output@@@__crt_stdio_output@@IEAA_NAEAPEAUansi_string@?1??type_case_Z@?$output_processor@DV?$stream_output_adapter@D@__crt_stdio_output@@V?$format_validation_base@DV?$stream_output_adapter@D@__crt_stdio_output@@@2@@1@AEAA_NXZ@@Z 00000001800384d0 f i libucrtd:output.obj
 0001:00037500       ??$extract_argument_from_va_list@PEAUansi_string@?1??type_case_Z@?$output_processor@DV?$stream_output_adapter@D@__crt_stdio_output@@V?$positional_parameter_base@DV?$stream_output_adapter@D@__crt_stdio_output@@@2@@__crt_stdio_output@@AEAA_NXZ@PEAU1?1??234@AEAA_NXZ@@?$positional_parameter_base@DV?$stream_output_adapter@D@__crt_stdio_output@@@__crt_stdio_output@@IEAA_NAEAPEAUansi_string@?1??type_case_Z@?$output_processor@DV?$stream_output_adapter@D@__crt_stdio_output@@V?$positional_parameter_base@DV?$stream_output_adapter@D@__crt_stdio_output@@@2@@1@AEAA_NXZ@@Z 0000000180038500 f i libucrtd:output.obj
 0001:000376c0       ??$extract_argument_from_va_list@PEAUansi_string@?1??type_case_Z@?$output_processor@DV?$stream_output_adapter@D@__crt_stdio_output@@V?$positional_parameter_base@DV?$stream_output_adapter@D@__crt_stdio_output@@@2@@__crt_stdio_output@@AEAA_NXZ@PEAU1?1??234@AEAA_NXZ@@?$standard_base@DV?$stream_output_adapter@D@__crt_stdio_output@@@__crt_stdio_output@@IEAA_NAEAPEAUansi_string@?1??type_case_Z@?$output_processor@DV?$stream_output_adapter@D@__crt_stdio_output@@V?$positional_parameter_base@DV?$stream_output_adapter@D@__crt_stdio_output@@@2@@1@AEAA_NXZ@@Z 00000001800386c0 f i libucrtd:output.obj
 0001:000376f0       ??$extract_argument_from_va_list@PEAUansi_string@?1??type_case_Z@?$output_processor@DV?$stream_output_adapter@D@__crt_stdio_output@@V?$standard_base@DV?$stream_output_adapter@D@__crt_stdio_output@@@2@@__crt_stdio_output@@AEAA_NXZ@PEAU1?1??234@AEAA_NXZ@@?$standard_base@DV?$stream_output_adapter@D@__crt_stdio_output@@@__crt_stdio_output@@IEAA_NAEAPEAUansi_string@?1??type_case_Z@?$output_processor@DV?$stream_output_adapter@D@__crt_stdio_output@@V?$standard_base@DV?$stream_output_adapter@D@__crt_stdio_output@@@2@@1@AEAA_NXZ@@Z 00000001800386f0 f i libucrtd:output.obj
 0001:00037720       ??$extract_argument_from_va_list@PEAUansi_string@?1??type_case_Z@?$output_processor@DV?$string_output_adapter@D@__crt_stdio_output@@V?$format_validation_base@DV?$string_output_adapter@D@__crt_stdio_output@@@2@@__crt_stdio_output@@AEAA_NXZ@PEAU1?1??234@AEAA_NXZ@@?$standard_base@DV?$string_output_adapter@D@__crt_stdio_output@@@__crt_stdio_output@@IEAA_NAEAPEAUansi_string@?1??type_case_Z@?$output_processor@DV?$string_output_adapter@D@__crt_stdio_output@@V?$format_validation_base@DV?$string_output_adapter@D@__crt_stdio_output@@@2@@1@AEAA_NXZ@@Z 0000000180038720 f i libucrtd:output.obj
 0001:00037750       ??$extract_argument_from_va_list@PEAUansi_string@?1??type_case_Z@?$output_processor@DV?$string_output_adapter@D@__crt_stdio_output@@V?$positional_parameter_base@DV?$string_output_adapter@D@__crt_stdio_output@@@2@@__crt_stdio_output@@AEAA_NXZ@PEAU1?1??234@AEAA_NXZ@@?$positional_parameter_base@DV?$string_output_adapter@D@__crt_stdio_output@@@__crt_stdio_output@@IEAA_NAEAPEAUansi_string@?1??type_case_Z@?$output_processor@DV?$string_output_adapter@D@__crt_stdio_output@@V?$positional_parameter_base@DV?$string_output_adapter@D@__crt_stdio_output@@@2@@1@AEAA_NXZ@@Z 0000000180038750 f i libucrtd:output.obj
 0001:00037910       ??$extract_argument_from_va_list@PEAUansi_string@?1??type_case_Z@?$output_processor@DV?$string_output_adapter@D@__crt_stdio_output@@V?$positional_parameter_base@DV?$string_output_adapter@D@__crt_stdio_output@@@2@@__crt_stdio_output@@AEAA_NXZ@PEAU1?1??234@AEAA_NXZ@@?$standard_base@DV?$string_output_adapter@D@__crt_stdio_output@@@__crt_stdio_output@@IEAA_NAEAPEAUansi_string@?1??type_case_Z@?$output_processor@DV?$string_output_adapter@D@__crt_stdio_output@@V?$positional_parameter_base@DV?$string_output_adapter@D@__crt_stdio_output@@@2@@1@AEAA_NXZ@@Z 0000000180038910 f i libucrtd:output.obj
 0001:00037940       ??$extract_argument_from_va_list@PEAUansi_string@?1??type_case_Z@?$output_processor@DV?$string_output_adapter@D@__crt_stdio_output@@V?$standard_base@DV?$string_output_adapter@D@__crt_stdio_output@@@2@@__crt_stdio_output@@AEAA_NXZ@PEAU1?1??234@AEAA_NXZ@@?$standard_base@DV?$string_output_adapter@D@__crt_stdio_output@@@__crt_stdio_output@@IEAA_NAEAPEAUansi_string@?1??type_case_Z@?$output_processor@DV?$string_output_adapter@D@__crt_stdio_output@@V?$standard_base@DV?$string_output_adapter@D@__crt_stdio_output@@@2@@1@AEAA_NXZ@@Z 0000000180038940 f i libucrtd:output.obj
 0001:00037970       ??$extract_argument_from_va_list@PEAUansi_string@?1??type_case_Z@?$output_processor@_WV?$stream_output_adapter@_W@__crt_stdio_output@@V?$format_validation_base@_WV?$stream_output_adapter@_W@__crt_stdio_output@@@2@@__crt_stdio_output@@AEAA_NXZ@PEAU1?1??234@AEAA_NXZ@@?$standard_base@_WV?$stream_output_adapter@_W@__crt_stdio_output@@@__crt_stdio_output@@IEAA_NAEAPEAUansi_string@?1??type_case_Z@?$output_processor@_WV?$stream_output_adapter@_W@__crt_stdio_output@@V?$format_validation_base@_WV?$stream_output_adapter@_W@__crt_stdio_output@@@2@@1@AEAA_NXZ@@Z 0000000180038970 f i libucrtd:output.obj
 0001:000379a0       ??$extract_argument_from_va_list@PEAUansi_string@?1??type_case_Z@?$output_processor@_WV?$stream_output_adapter@_W@__crt_stdio_output@@V?$positional_parameter_base@_WV?$stream_output_adapter@_W@__crt_stdio_output@@@2@@__crt_stdio_output@@AEAA_NXZ@PEAU1?1??234@AEAA_NXZ@@?$positional_parameter_base@_WV?$stream_output_adapter@_W@__crt_stdio_output@@@__crt_stdio_output@@IEAA_NAEAPEAUansi_string@?1??type_case_Z@?$output_processor@_WV?$stream_output_adapter@_W@__crt_stdio_output@@V?$positional_parameter_base@_WV?$stream_output_adapter@_W@__crt_stdio_output@@@2@@1@AEAA_NXZ@@Z 00000001800389a0 f i libucrtd:output.obj
 0001:00037b60       ??$extract_argument_from_va_list@PEAUansi_string@?1??type_case_Z@?$output_processor@_WV?$stream_output_adapter@_W@__crt_stdio_output@@V?$positional_parameter_base@_WV?$stream_output_adapter@_W@__crt_stdio_output@@@2@@__crt_stdio_output@@AEAA_NXZ@PEAU1?1??234@AEAA_NXZ@@?$standard_base@_WV?$stream_output_adapter@_W@__crt_stdio_output@@@__crt_stdio_output@@IEAA_NAEAPEAUansi_string@?1??type_case_Z@?$output_processor@_WV?$stream_output_adapter@_W@__crt_stdio_output@@V?$positional_parameter_base@_WV?$stream_output_adapter@_W@__crt_stdio_output@@@2@@1@AEAA_NXZ@@Z 0000000180038b60 f i libucrtd:output.obj
 0001:00037b90       ??$extract_argument_from_va_list@PEAUansi_string@?1??type_case_Z@?$output_processor@_WV?$stream_output_adapter@_W@__crt_stdio_output@@V?$standard_base@_WV?$stream_output_adapter@_W@__crt_stdio_output@@@2@@__crt_stdio_output@@AEAA_NXZ@PEAU1?1??234@AEAA_NXZ@@?$standard_base@_WV?$stream_output_adapter@_W@__crt_stdio_output@@@__crt_stdio_output@@IEAA_NAEAPEAUansi_string@?1??type_case_Z@?$output_processor@_WV?$stream_output_adapter@_W@__crt_stdio_output@@V?$standard_base@_WV?$stream_output_adapter@_W@__crt_stdio_output@@@2@@1@AEAA_NXZ@@Z 0000000180038b90 f i libucrtd:output.obj
 0001:00037bc0       ??$extract_argument_from_va_list@PEAUansi_string@?1??type_case_Z@?$output_processor@_WV?$string_output_adapter@_W@__crt_stdio_output@@V?$format_validation_base@_WV?$string_output_adapter@_W@__crt_stdio_output@@@2@@__crt_stdio_output@@AEAA_NXZ@PEAU1?1??234@AEAA_NXZ@@?$standard_base@_WV?$string_output_adapter@_W@__crt_stdio_output@@@__crt_stdio_output@@IEAA_NAEAPEAUansi_string@?1??type_case_Z@?$output_processor@_WV?$string_output_adapter@_W@__crt_stdio_output@@V?$format_validation_base@_WV?$string_output_adapter@_W@__crt_stdio_output@@@2@@1@AEAA_NXZ@@Z 0000000180038bc0 f i libucrtd:output.obj
 0001:00037bf0       ??$extract_argument_from_va_list@PEAUansi_string@?1??type_case_Z@?$output_processor@_WV?$string_output_adapter@_W@__crt_stdio_output@@V?$positional_parameter_base@_WV?$string_output_adapter@_W@__crt_stdio_output@@@2@@__crt_stdio_output@@AEAA_NXZ@PEAU1?1??234@AEAA_NXZ@@?$positional_parameter_base@_WV?$string_output_adapter@_W@__crt_stdio_output@@@__crt_stdio_output@@IEAA_NAEAPEAUansi_string@?1??type_case_Z@?$output_processor@_WV?$string_output_adapter@_W@__crt_stdio_output@@V?$positional_parameter_base@_WV?$string_output_adapter@_W@__crt_stdio_output@@@2@@1@AEAA_NXZ@@Z 0000000180038bf0 f i libucrtd:output.obj
 0001:00037db0       ??$extract_argument_from_va_list@PEAUansi_string@?1??type_case_Z@?$output_processor@_WV?$string_output_adapter@_W@__crt_stdio_output@@V?$positional_parameter_base@_WV?$string_output_adapter@_W@__crt_stdio_output@@@2@@__crt_stdio_output@@AEAA_NXZ@PEAU1?1??234@AEAA_NXZ@@?$standard_base@_WV?$string_output_adapter@_W@__crt_stdio_output@@@__crt_stdio_output@@IEAA_NAEAPEAUansi_string@?1??type_case_Z@?$output_processor@_WV?$string_output_adapter@_W@__crt_stdio_output@@V?$positional_parameter_base@_WV?$string_output_adapter@_W@__crt_stdio_output@@@2@@1@AEAA_NXZ@@Z 0000000180038db0 f i libucrtd:output.obj
 0001:00037de0       ??$extract_argument_from_va_list@PEAUansi_string@?1??type_case_Z@?$output_processor@_WV?$string_output_adapter@_W@__crt_stdio_output@@V?$standard_base@_WV?$string_output_adapter@_W@__crt_stdio_output@@@2@@__crt_stdio_output@@AEAA_NXZ@PEAU1?1??234@AEAA_NXZ@@?$standard_base@_WV?$string_output_adapter@_W@__crt_stdio_output@@@__crt_stdio_output@@IEAA_NAEAPEAUansi_string@?1??type_case_Z@?$output_processor@_WV?$string_output_adapter@_W@__crt_stdio_output@@V?$standard_base@_WV?$string_output_adapter@_W@__crt_stdio_output@@@2@@1@AEAA_NXZ@@Z 0000000180038de0 f i libucrtd:output.obj
 0001:00037e10       ??$extract_argument_from_va_list@PEAXPEAX@?$positional_parameter_base@DV?$stream_output_adapter@D@__crt_stdio_output@@@__crt_stdio_output@@IEAA_NAEAPEAX@Z 0000000180038e10 f i libucrtd:output.obj
 0001:00037fd0       ??$extract_argument_from_va_list@PEAXPEAX@?$positional_parameter_base@DV?$string_output_adapter@D@__crt_stdio_output@@@__crt_stdio_output@@IEAA_NAEAPEAX@Z 0000000180038fd0 f i libucrtd:output.obj
 0001:00038190       ??$extract_argument_from_va_list@PEAXPEAX@?$positional_parameter_base@_WV?$stream_output_adapter@_W@__crt_stdio_output@@@__crt_stdio_output@@IEAA_NAEAPEAX@Z 0000000180039190 f i libucrtd:output.obj
 0001:00038350       ??$extract_argument_from_va_list@PEAXPEAX@?$positional_parameter_base@_WV?$string_output_adapter@_W@__crt_stdio_output@@@__crt_stdio_output@@IEAA_NAEAPEAX@Z 0000000180039350 f i libucrtd:output.obj
 0001:00038510       ??$extract_argument_from_va_list@PEAXPEAX@?$standard_base@DV?$stream_output_adapter@D@__crt_stdio_output@@@__crt_stdio_output@@IEAA_NAEAPEAX@Z 0000000180039510 f i libucrtd:output.obj
 0001:00038540       ??$extract_argument_from_va_list@PEAXPEAX@?$standard_base@DV?$string_output_adapter@D@__crt_stdio_output@@@__crt_stdio_output@@IEAA_NAEAPEAX@Z 0000000180039540 f i libucrtd:output.obj
 0001:00038570       ??$extract_argument_from_va_list@PEAXPEAX@?$standard_base@_WV?$stream_output_adapter@_W@__crt_stdio_output@@@__crt_stdio_output@@IEAA_NAEAPEAX@Z 0000000180039570 f i libucrtd:output.obj
 0001:000385a0       ??$extract_argument_from_va_list@PEAXPEAX@?$standard_base@_WV?$string_output_adapter@_W@__crt_stdio_output@@@__crt_stdio_output@@IEAA_NAEAPEAX@Z 00000001800395a0 f i libucrtd:output.obj
 0001:000385d0       ??$extract_argument_from_va_list@U_CRT_DOUBLE@@U1@@?$positional_parameter_base@DV?$stream_output_adapter@D@__crt_stdio_output@@@__crt_stdio_output@@IEAA_NAEAU_CRT_DOUBLE@@@Z 00000001800395d0 f i libucrtd:output.obj
 0001:000387e0       ??$extract_argument_from_va_list@U_CRT_DOUBLE@@U1@@?$positional_parameter_base@DV?$string_output_adapter@D@__crt_stdio_output@@@__crt_stdio_output@@IEAA_NAEAU_CRT_DOUBLE@@@Z 00000001800397e0 f i libucrtd:output.obj
 0001:000389f0       ??$extract_argument_from_va_list@U_CRT_DOUBLE@@U1@@?$positional_parameter_base@_WV?$stream_output_adapter@_W@__crt_stdio_output@@@__crt_stdio_output@@IEAA_NAEAU_CRT_DOUBLE@@@Z 00000001800399f0 f i libucrtd:output.obj
 0001:00038c00       ??$extract_argument_from_va_list@U_CRT_DOUBLE@@U1@@?$positional_parameter_base@_WV?$string_output_adapter@_W@__crt_stdio_output@@@__crt_stdio_output@@IEAA_NAEAU_CRT_DOUBLE@@@Z 0000000180039c00 f i libucrtd:output.obj
 0001:00038e10       ??$extract_argument_from_va_list@U_CRT_DOUBLE@@U1@@?$standard_base@DV?$stream_output_adapter@D@__crt_stdio_output@@@__crt_stdio_output@@IEAA_NAEAU_CRT_DOUBLE@@@Z 0000000180039e10 f i libucrtd:output.obj
 0001:00038e50       ??$extract_argument_from_va_list@U_CRT_DOUBLE@@U1@@?$standard_base@DV?$string_output_adapter@D@__crt_stdio_output@@@__crt_stdio_output@@IEAA_NAEAU_CRT_DOUBLE@@@Z 0000000180039e50 f i libucrtd:output.obj
 0001:00038e90       ??$extract_argument_from_va_list@U_CRT_DOUBLE@@U1@@?$standard_base@_WV?$stream_output_adapter@_W@__crt_stdio_output@@@__crt_stdio_output@@IEAA_NAEAU_CRT_DOUBLE@@@Z 0000000180039e90 f i libucrtd:output.obj
 0001:00038ed0       ??$extract_argument_from_va_list@U_CRT_DOUBLE@@U1@@?$standard_base@_WV?$string_output_adapter@_W@__crt_stdio_output@@@__crt_stdio_output@@IEAA_NAEAU_CRT_DOUBLE@@@Z 0000000180039ed0 f i libucrtd:output.obj
 0001:00038f10       ??$extract_argument_from_va_list@_J_J@?$positional_parameter_base@DV?$stream_output_adapter@D@__crt_stdio_output@@@__crt_stdio_output@@IEAA_NAEA_J@Z 0000000180039f10 f i libucrtd:output.obj
 0001:000390d0       ??$extract_argument_from_va_list@_J_J@?$positional_parameter_base@DV?$string_output_adapter@D@__crt_stdio_output@@@__crt_stdio_output@@IEAA_NAEA_J@Z 000000018003a0d0 f i libucrtd:output.obj
 0001:00039290       ??$extract_argument_from_va_list@_J_J@?$positional_parameter_base@_WV?$stream_output_adapter@_W@__crt_stdio_output@@@__crt_stdio_output@@IEAA_NAEA_J@Z 000000018003a290 f i libucrtd:output.obj
 0001:00039450       ??$extract_argument_from_va_list@_J_J@?$positional_parameter_base@_WV?$string_output_adapter@_W@__crt_stdio_output@@@__crt_stdio_output@@IEAA_NAEA_J@Z 000000018003a450 f i libucrtd:output.obj
 0001:00039610       ??$extract_argument_from_va_list@_J_J@?$standard_base@DV?$stream_output_adapter@D@__crt_stdio_output@@@__crt_stdio_output@@IEAA_NAEA_J@Z 000000018003a610 f i libucrtd:output.obj
 0001:00039640       ??$extract_argument_from_va_list@_J_J@?$standard_base@DV?$string_output_adapter@D@__crt_stdio_output@@@__crt_stdio_output@@IEAA_NAEA_J@Z 000000018003a640 f i libucrtd:output.obj
 0001:00039670       ??$extract_argument_from_va_list@_J_J@?$standard_base@_WV?$stream_output_adapter@_W@__crt_stdio_output@@@__crt_stdio_output@@IEAA_NAEA_J@Z 000000018003a670 f i libucrtd:output.obj
 0001:000396a0       ??$extract_argument_from_va_list@_J_J@?$standard_base@_WV?$string_output_adapter@_W@__crt_stdio_output@@@__crt_stdio_output@@IEAA_NAEA_J@Z 000000018003a6a0 f i libucrtd:output.obj
 0001:000396d0       ??$extract_argument_from_va_list@_K_J@?$positional_parameter_base@DV?$stream_output_adapter@D@__crt_stdio_output@@@__crt_stdio_output@@IEAA_NAEA_J@Z 000000018003a6d0 f i libucrtd:output.obj
 0001:00039890       ??$extract_argument_from_va_list@_K_J@?$positional_parameter_base@DV?$string_output_adapter@D@__crt_stdio_output@@@__crt_stdio_output@@IEAA_NAEA_J@Z 000000018003a890 f i libucrtd:output.obj
 0001:00039a50       ??$extract_argument_from_va_list@_K_J@?$positional_parameter_base@_WV?$stream_output_adapter@_W@__crt_stdio_output@@@__crt_stdio_output@@IEAA_NAEA_J@Z 000000018003aa50 f i libucrtd:output.obj
 0001:00039c10       ??$extract_argument_from_va_list@_K_J@?$positional_parameter_base@_WV?$string_output_adapter@_W@__crt_stdio_output@@@__crt_stdio_output@@IEAA_NAEA_J@Z 000000018003ac10 f i libucrtd:output.obj
 0001:00039dd0       ??$extract_argument_from_va_list@_K_J@?$standard_base@DV?$stream_output_adapter@D@__crt_stdio_output@@@__crt_stdio_output@@IEAA_NAEA_J@Z 000000018003add0 f i libucrtd:output.obj
 0001:00039e00       ??$extract_argument_from_va_list@_K_J@?$standard_base@DV?$string_output_adapter@D@__crt_stdio_output@@@__crt_stdio_output@@IEAA_NAEA_J@Z 000000018003ae00 f i libucrtd:output.obj
 0001:00039e30       ??$extract_argument_from_va_list@_K_J@?$standard_base@_WV?$stream_output_adapter@_W@__crt_stdio_output@@@__crt_stdio_output@@IEAA_NAEA_J@Z 000000018003ae30 f i libucrtd:output.obj
 0001:00039e60       ??$extract_argument_from_va_list@_K_J@?$standard_base@_WV?$string_output_adapter@_W@__crt_stdio_output@@@__crt_stdio_output@@IEAA_NAEA_J@Z 000000018003ae60 f i libucrtd:output.obj
 0001:00039e90       ??$extract_argument_from_va_list@_W_W@?$positional_parameter_base@DV?$stream_output_adapter@D@__crt_stdio_output@@@__crt_stdio_output@@IEAA_NAEA_W@Z 000000018003ae90 f i libucrtd:output.obj
 0001:0003a050       ??$extract_argument_from_va_list@_W_W@?$positional_parameter_base@DV?$string_output_adapter@D@__crt_stdio_output@@@__crt_stdio_output@@IEAA_NAEA_W@Z 000000018003b050 f i libucrtd:output.obj
 0001:0003a210       ??$extract_argument_from_va_list@_W_W@?$positional_parameter_base@_WV?$stream_output_adapter@_W@__crt_stdio_output@@@__crt_stdio_output@@IEAA_NAEA_W@Z 000000018003b210 f i libucrtd:output.obj
 0001:0003a3d0       ??$extract_argument_from_va_list@_W_W@?$positional_parameter_base@_WV?$string_output_adapter@_W@__crt_stdio_output@@@__crt_stdio_output@@IEAA_NAEA_W@Z 000000018003b3d0 f i libucrtd:output.obj
 0001:0003a590       ??$extract_argument_from_va_list@_W_W@?$standard_base@DV?$stream_output_adapter@D@__crt_stdio_output@@@__crt_stdio_output@@IEAA_NAEA_W@Z 000000018003b590 f i libucrtd:output.obj
 0001:0003a5c0       ??$extract_argument_from_va_list@_W_W@?$standard_base@DV?$string_output_adapter@D@__crt_stdio_output@@@__crt_stdio_output@@IEAA_NAEA_W@Z 000000018003b5c0 f i libucrtd:output.obj
 0001:0003a5f0       ??$extract_argument_from_va_list@_W_W@?$standard_base@_WV?$stream_output_adapter@_W@__crt_stdio_output@@@__crt_stdio_output@@IEAA_NAEA_W@Z 000000018003b5f0 f i libucrtd:output.obj
 0001:0003a620       ??$extract_argument_from_va_list@_W_W@?$standard_base@_WV?$string_output_adapter@_W@__crt_stdio_output@@@__crt_stdio_output@@IEAA_NAEA_W@Z 000000018003b620 f i libucrtd:output.obj
 0001:0003a650       ??$get_parameter_type@D@?$positional_parameter_base@DV?$stream_output_adapter@D@__crt_stdio_output@@@__crt_stdio_output@@CA?AW4parameter_type@01@PEAD@Z 000000018003b650 f i libucrtd:output.obj
 0001:0003a660       ??$get_parameter_type@D@?$positional_parameter_base@DV?$string_output_adapter@D@__crt_stdio_output@@@__crt_stdio_output@@CA?AW4parameter_type@01@PEAD@Z 000000018003b660 f i libucrtd:output.obj
 0001:0003a670       ??$get_parameter_type@D@?$positional_parameter_base@_WV?$stream_output_adapter@_W@__crt_stdio_output@@@__crt_stdio_output@@CA?AW4parameter_type@01@PEAD@Z 000000018003b670 f i libucrtd:output.obj
 0001:0003a680       ??$get_parameter_type@D@?$positional_parameter_base@_WV?$string_output_adapter@_W@__crt_stdio_output@@@__crt_stdio_output@@CA?AW4parameter_type@01@PEAD@Z 000000018003b680 f i libucrtd:output.obj
 0001:0003a690       ??$get_parameter_type@Uansi_string@?1??type_case_Z@?$output_processor@DV?$stream_output_adapter@D@__crt_stdio_output@@V?$positional_parameter_base@DV?$stream_output_adapter@D@__crt_stdio_output@@@2@@__crt_stdio_output@@AEAA_NXZ@@?$positional_parameter_base@DV?$stream_output_adapter@D@__crt_stdio_output@@@__crt_stdio_output@@CA?AW4parameter_type@01@PEAUansi_string@?1??type_case_Z@?$output_processor@DV?$stream_output_adapter@D@__crt_stdio_output@@V?$positional_parameter_base@DV?$stream_output_adapter@D@__crt_stdio_output@@@2@@1@AEAA_NXZ@@Z 000000018003b690 f i libucrtd:output.obj
 0001:0003a6a0       ??$get_parameter_type@Uansi_string@?1??type_case_Z@?$output_processor@DV?$string_output_adapter@D@__crt_stdio_output@@V?$positional_parameter_base@DV?$string_output_adapter@D@__crt_stdio_output@@@2@@__crt_stdio_output@@AEAA_NXZ@@?$positional_parameter_base@DV?$string_output_adapter@D@__crt_stdio_output@@@__crt_stdio_output@@CA?AW4parameter_type@01@PEAUansi_string@?1??type_case_Z@?$output_processor@DV?$string_output_adapter@D@__crt_stdio_output@@V?$positional_parameter_base@DV?$string_output_adapter@D@__crt_stdio_output@@@2@@1@AEAA_NXZ@@Z 000000018003b6a0 f i libucrtd:output.obj
 0001:0003a6b0       ??$get_parameter_type@Uansi_string@?1??type_case_Z@?$output_processor@_WV?$stream_output_adapter@_W@__crt_stdio_output@@V?$positional_parameter_base@_WV?$stream_output_adapter@_W@__crt_stdio_output@@@2@@__crt_stdio_output@@AEAA_NXZ@@?$positional_parameter_base@_WV?$stream_output_adapter@_W@__crt_stdio_output@@@__crt_stdio_output@@CA?AW4parameter_type@01@PEAUansi_string@?1??type_case_Z@?$output_processor@_WV?$stream_output_adapter@_W@__crt_stdio_output@@V?$positional_parameter_base@_WV?$stream_output_adapter@_W@__crt_stdio_output@@@2@@1@AEAA_NXZ@@Z 000000018003b6b0 f i libucrtd:output.obj
 0001:0003a6c0       ??$get_parameter_type@Uansi_string@?1??type_case_Z@?$output_processor@_WV?$string_output_adapter@_W@__crt_stdio_output@@V?$positional_parameter_base@_WV?$string_output_adapter@_W@__crt_stdio_output@@@2@@__crt_stdio_output@@AEAA_NXZ@@?$positional_parameter_base@_WV?$string_output_adapter@_W@__crt_stdio_output@@@__crt_stdio_output@@CA?AW4parameter_type@01@PEAUansi_string@?1??type_case_Z@?$output_processor@_WV?$string_output_adapter@_W@__crt_stdio_output@@V?$positional_parameter_base@_WV?$string_output_adapter@_W@__crt_stdio_output@@@2@@1@AEAA_NXZ@@Z 000000018003b6c0 f i libucrtd:output.obj
 0001:0003a6d0       ??$get_parameter_type@X@?$positional_parameter_base@DV?$stream_output_adapter@D@__crt_stdio_output@@@__crt_stdio_output@@CA?AW4parameter_type@01@PEAX@Z 000000018003b6d0 f i libucrtd:output.obj
 0001:0003a6e0       ??$get_parameter_type@X@?$positional_parameter_base@DV?$string_output_adapter@D@__crt_stdio_output@@@__crt_stdio_output@@CA?AW4parameter_type@01@PEAX@Z 000000018003b6e0 f i libucrtd:output.obj
 0001:0003a6f0       ??$get_parameter_type@X@?$positional_parameter_base@_WV?$stream_output_adapter@_W@__crt_stdio_output@@@__crt_stdio_output@@CA?AW4parameter_type@01@PEAX@Z 000000018003b6f0 f i libucrtd:output.obj
 0001:0003a700       ??$get_parameter_type@X@?$positional_parameter_base@_WV?$string_output_adapter@_W@__crt_stdio_output@@@__crt_stdio_output@@CA?AW4parameter_type@01@PEAX@Z 000000018003b700 f i libucrtd:output.obj
 0001:0003a710       ??$is_character_specifier@D@?$positional_parameter_base@DV?$stream_output_adapter@D@__crt_stdio_output@@@__crt_stdio_output@@CA_ND@Z 000000018003b710 f i libucrtd:output.obj
 0001:0003a750       ??$is_character_specifier@D@?$positional_parameter_base@DV?$string_output_adapter@D@__crt_stdio_output@@@__crt_stdio_output@@CA_ND@Z 000000018003b750 f i libucrtd:output.obj
 0001:0003a790       ??$is_character_specifier@_W@?$positional_parameter_base@_WV?$stream_output_adapter@_W@__crt_stdio_output@@@__crt_stdio_output@@CA_N_W@Z 000000018003b790 f i libucrtd:output.obj
 0001:0003a7d0       ??$is_character_specifier@_W@?$positional_parameter_base@_WV?$string_output_adapter@_W@__crt_stdio_output@@@__crt_stdio_output@@CA_N_W@Z 000000018003b7d0 f i libucrtd:output.obj
 0001:0003a810       ??$is_integral_specifier@D@?$positional_parameter_base@DV?$stream_output_adapter@D@__crt_stdio_output@@@__crt_stdio_output@@CA_ND@Z 000000018003b810 f i libucrtd:output.obj
 0001:0003a880       ??$is_integral_specifier@D@?$positional_parameter_base@DV?$string_output_adapter@D@__crt_stdio_output@@@__crt_stdio_output@@CA_ND@Z 000000018003b880 f i libucrtd:output.obj
 0001:0003a8f0       ??$is_integral_specifier@_W@?$positional_parameter_base@_WV?$stream_output_adapter@_W@__crt_stdio_output@@@__crt_stdio_output@@CA_N_W@Z 000000018003b8f0 f i libucrtd:output.obj
 0001:0003a960       ??$is_integral_specifier@_W@?$positional_parameter_base@_WV?$string_output_adapter@_W@__crt_stdio_output@@@__crt_stdio_output@@CA_N_W@Z 000000018003b960 f i libucrtd:output.obj
 0001:0003a9d0       ??$is_overflow_condition@K@__crt_strtox@@YA_NIK@Z 000000018003b9d0 f i libucrtd:output.obj
 0001:0003aa40       ??$is_pointer_specifier@D@?$positional_parameter_base@DV?$stream_output_adapter@D@__crt_stdio_output@@@__crt_stdio_output@@CA_ND@Z 000000018003ba40 f i libucrtd:output.obj
 0001:0003aa70       ??$is_pointer_specifier@D@?$positional_parameter_base@DV?$string_output_adapter@D@__crt_stdio_output@@@__crt_stdio_output@@CA_ND@Z 000000018003ba70 f i libucrtd:output.obj
 0001:0003aaa0       ??$is_pointer_specifier@_W@?$positional_parameter_base@_WV?$stream_output_adapter@_W@__crt_stdio_output@@@__crt_stdio_output@@CA_N_W@Z 000000018003baa0 f i libucrtd:output.obj
 0001:0003aad0       ??$is_pointer_specifier@_W@?$positional_parameter_base@_WV?$string_output_adapter@_W@__crt_stdio_output@@@__crt_stdio_output@@CA_N_W@Z 000000018003bad0 f i libucrtd:output.obj
 0001:0003ab00       ??$is_string_specifier@D@?$positional_parameter_base@DV?$stream_output_adapter@D@__crt_stdio_output@@@__crt_stdio_output@@CA_ND@Z 000000018003bb00 f i libucrtd:output.obj
 0001:0003ab40       ??$is_string_specifier@D@?$positional_parameter_base@DV?$string_output_adapter@D@__crt_stdio_output@@@__crt_stdio_output@@CA_ND@Z 000000018003bb40 f i libucrtd:output.obj
 0001:0003ab80       ??$is_string_specifier@_W@?$positional_parameter_base@_WV?$stream_output_adapter@_W@__crt_stdio_output@@@__crt_stdio_output@@CA_N_W@Z 000000018003bb80 f i libucrtd:output.obj
 0001:0003abc0       ??$is_string_specifier@_W@?$positional_parameter_base@_WV?$string_output_adapter@_W@__crt_stdio_output@@@__crt_stdio_output@@CA_N_W@Z 000000018003bbc0 f i libucrtd:output.obj
 0001:0003ac00       ??$is_wide_character_specifier@D@__crt_stdio_output@@YA_N_KDW4length_modifier@0@@Z 000000018003bc00 f i libucrtd:output.obj
 0001:0003aca0       ??$is_wide_character_specifier@_W@__crt_stdio_output@@YA_N_K_WW4length_modifier@0@@Z 000000018003bca0 f i libucrtd:output.obj
 0001:0003ad70       ??$make_c_string_character_source@DPEAPEAD@__crt_strtox@@YA?AV?$c_string_character_source@D@0@QEBDQEAPEAD@Z 000000018003bd70 f i libucrtd:output.obj
 0001:0003adb0       ??$make_c_string_character_source@_WPEAPEA_W@__crt_strtox@@YA?AV?$c_string_character_source@_W@0@QEB_WQEAPEA_W@Z 000000018003bdb0 f i libucrtd:output.obj
 0001:0003adf0       ??$parse_integer@KV?$c_string_character_source@D@__crt_strtox@@$0A@@__crt_strtox@@YAKAEAV__crt_cached_ptd_host@@V?$c_string_character_source@D@0@H_N@Z 000000018003bdf0 f i libucrtd:output.obj
 0001:0003b270       ??$parse_integer@KV?$c_string_character_source@_W@__crt_strtox@@$0A@@__crt_strtox@@YAKAEAV__crt_cached_ptd_host@@V?$c_string_character_source@_W@0@H_N@Z 000000018003c270 f i libucrtd:output.obj
 0001:0003b6f0       ??$peek_va_arg@C@__crt_stdio_output@@YACPEAD@Z 000000018003c6f0 f i libucrtd:output.obj
 0001:0003b750       ??$peek_va_arg@E@__crt_stdio_output@@YAEPEAD@Z 000000018003c750 f i libucrtd:output.obj
 0001:0003b7b0       ??$peek_va_arg@F@__crt_stdio_output@@YAFPEAD@Z 000000018003c7b0 f i libucrtd:output.obj
 0001:0003b810       ??$peek_va_arg@G@__crt_stdio_output@@YAGPEAD@Z 000000018003c810 f i libucrtd:output.obj
 0001:0003b870       ??$peek_va_arg@H@__crt_stdio_output@@YAHPEAD@Z 000000018003c870 f i libucrtd:output.obj
 0001:0003b8c0       ??$peek_va_arg@I@__crt_stdio_output@@YAIPEAD@Z 000000018003c8c0 f i libucrtd:output.obj
 0001:0003b910       ??$peek_va_arg@PEAD@__crt_stdio_output@@YAPEADPEAD@Z 000000018003c910 f i libucrtd:output.obj
 0001:0003b970       ??$peek_va_arg@PEAUansi_string@?1??type_case_Z@?$output_processor@DV?$stream_output_adapter@D@__crt_stdio_output@@V?$positional_parameter_base@DV?$stream_output_adapter@D@__crt_stdio_output@@@2@@__crt_stdio_output@@AEAA_NXZ@@__crt_stdio_output@@YAPEAUansi_string@?1??type_case_Z@?$output_processor@DV?$stream_output_adapter@D@__crt_stdio_output@@V?$positional_parameter_base@DV?$stream_output_adapter@D@__crt_stdio_output@@@2@@0@AEAA_NXZ@PEAD@Z 000000018003c970 f i libucrtd:output.obj
 0001:0003b9d0       ??$peek_va_arg@PEAUansi_string@?1??type_case_Z@?$output_processor@DV?$string_output_adapter@D@__crt_stdio_output@@V?$positional_parameter_base@DV?$string_output_adapter@D@__crt_stdio_output@@@2@@__crt_stdio_output@@AEAA_NXZ@@__crt_stdio_output@@YAPEAUansi_string@?1??type_case_Z@?$output_processor@DV?$string_output_adapter@D@__crt_stdio_output@@V?$positional_parameter_base@DV?$string_output_adapter@D@__crt_stdio_output@@@2@@0@AEAA_NXZ@PEAD@Z 000000018003c9d0 f i libucrtd:output.obj
 0001:0003ba30       ??$peek_va_arg@PEAUansi_string@?1??type_case_Z@?$output_processor@_WV?$stream_output_adapter@_W@__crt_stdio_output@@V?$positional_parameter_base@_WV?$stream_output_adapter@_W@__crt_stdio_output@@@2@@__crt_stdio_output@@AEAA_NXZ@@__crt_stdio_output@@YAPEAUansi_string@?1??type_case_Z@?$output_processor@_WV?$stream_output_adapter@_W@__crt_stdio_output@@V?$positional_parameter_base@_WV?$stream_output_adapter@_W@__crt_stdio_output@@@2@@0@AEAA_NXZ@PEAD@Z 000000018003ca30 f i libucrtd:output.obj
 0001:0003ba90       ??$peek_va_arg@PEAUansi_string@?1??type_case_Z@?$output_processor@_WV?$string_output_adapter@_W@__crt_stdio_output@@V?$positional_parameter_base@_WV?$string_output_adapter@_W@__crt_stdio_output@@@2@@__crt_stdio_output@@AEAA_NXZ@@__crt_stdio_output@@YAPEAUansi_string@?1??type_case_Z@?$output_processor@_WV?$string_output_adapter@_W@__crt_stdio_output@@V?$positional_parameter_base@_WV?$string_output_adapter@_W@__crt_stdio_output@@@2@@0@AEAA_NXZ@PEAD@Z 000000018003ca90 f i libucrtd:output.obj
 0001:0003baf0       ??$peek_va_arg@PEAX@__crt_stdio_output@@YAPEAXPEAD@Z 000000018003caf0 f i libucrtd:output.obj
 0001:0003bb50       ??$peek_va_arg@U_CRT_DOUBLE@@@__crt_stdio_output@@YA?AU_CRT_DOUBLE@@PEAD@Z 000000018003cb50 f i libucrtd:output.obj
 0001:0003bbb0       ??$peek_va_arg@_J@__crt_stdio_output@@YA_JPEAD@Z 000000018003cbb0 f i libucrtd:output.obj
 0001:0003bc10       ??$peek_va_arg@_K@__crt_stdio_output@@YA_KPEAD@Z 000000018003cc10 f i libucrtd:output.obj
 0001:0003bc70       ??$peek_va_arg@_W@__crt_stdio_output@@YA_WPEAD@Z 000000018003cc70 f i libucrtd:output.obj
 0001:0003bcd0       ??$puttc_nolock_internal@AEBDPEAU_iobuf@@AEAV__crt_cached_ptd_host@@@?$__crt_char_traits@D@@SAHAEBD$$QEAPEAU_iobuf@@AEAV__crt_cached_ptd_host@@@Z 000000018003ccd0 f i libucrtd:output.obj
 0001:0003bd10       ??$puttc_nolock_internal@AEB_WPEAU_iobuf@@AEAV__crt_cached_ptd_host@@@?$__crt_char_traits@_W@@SAGAEB_W$$QEAPEAU_iobuf@@AEAV__crt_cached_ptd_host@@@Z 000000018003cd10 f i libucrtd:output.obj
 0001:0003bd50       ??$read_va_arg@C@__crt_stdio_output@@YACAEAPEAD@Z 000000018003cd50 f i libucrtd:output.obj
 0001:0003bdc0       ??$read_va_arg@E@__crt_stdio_output@@YAEAEAPEAD@Z 000000018003cdc0 f i libucrtd:output.obj
 0001:0003be30       ??$read_va_arg@F@__crt_stdio_output@@YAFAEAPEAD@Z 000000018003ce30 f i libucrtd:output.obj
 0001:0003bea0       ??$read_va_arg@G@__crt_stdio_output@@YAGAEAPEAD@Z 000000018003cea0 f i libucrtd:output.obj
 0001:0003bf10       ??$read_va_arg@H@__crt_stdio_output@@YAHAEAPEAD@Z 000000018003cf10 f i libucrtd:output.obj
 0001:0003bf70       ??$read_va_arg@I@__crt_stdio_output@@YAIAEAPEAD@Z 000000018003cf70 f i libucrtd:output.obj
 0001:0003bfd0       ??$read_va_arg@PEAD@__crt_stdio_output@@YAPEADAEAPEAD@Z 000000018003cfd0 f i libucrtd:output.obj
 0001:0003c040       ??$read_va_arg@PEAUansi_string@?1??type_case_Z@?$output_processor@DV?$stream_output_adapter@D@__crt_stdio_output@@V?$format_validation_base@DV?$stream_output_adapter@D@__crt_stdio_output@@@2@@__crt_stdio_output@@AEAA_NXZ@@__crt_stdio_output@@YAPEAUansi_string@?1??type_case_Z@?$output_processor@DV?$stream_output_adapter@D@__crt_stdio_output@@V?$format_validation_base@DV?$stream_output_adapter@D@__crt_stdio_output@@@2@@0@AEAA_NXZ@AEAPEAD@Z 000000018003d040 f i libucrtd:output.obj
 0001:0003c0b0       ??$read_va_arg@PEAUansi_string@?1??type_case_Z@?$output_processor@DV?$stream_output_adapter@D@__crt_stdio_output@@V?$positional_parameter_base@DV?$stream_output_adapter@D@__crt_stdio_output@@@2@@__crt_stdio_output@@AEAA_NXZ@@__crt_stdio_output@@YAPEAUansi_string@?1??type_case_Z@?$output_processor@DV?$stream_output_adapter@D@__crt_stdio_output@@V?$positional_parameter_base@DV?$stream_output_adapter@D@__crt_stdio_output@@@2@@0@AEAA_NXZ@AEAPEAD@Z 000000018003d0b0 f i libucrtd:output.obj
 0001:0003c120       ??$read_va_arg@PEAUansi_string@?1??type_case_Z@?$output_processor@DV?$stream_output_adapter@D@__crt_stdio_output@@V?$standard_base@DV?$stream_output_adapter@D@__crt_stdio_output@@@2@@__crt_stdio_output@@AEAA_NXZ@@__crt_stdio_output@@YAPEAUansi_string@?1??type_case_Z@?$output_processor@DV?$stream_output_adapter@D@__crt_stdio_output@@V?$standard_base@DV?$stream_output_adapter@D@__crt_stdio_output@@@2@@0@AEAA_NXZ@AEAPEAD@Z 000000018003d120 f i libucrtd:output.obj
 0001:0003c190       ??$read_va_arg@PEAUansi_string@?1??type_case_Z@?$output_processor@DV?$string_output_adapter@D@__crt_stdio_output@@V?$format_validation_base@DV?$string_output_adapter@D@__crt_stdio_output@@@2@@__crt_stdio_output@@AEAA_NXZ@@__crt_stdio_output@@YAPEAUansi_string@?1??type_case_Z@?$output_processor@DV?$string_output_adapter@D@__crt_stdio_output@@V?$format_validation_base@DV?$string_output_adapter@D@__crt_stdio_output@@@2@@0@AEAA_NXZ@AEAPEAD@Z 000000018003d190 f i libucrtd:output.obj
 0001:0003c200       ??$read_va_arg@PEAUansi_string@?1??type_case_Z@?$output_processor@DV?$string_output_adapter@D@__crt_stdio_output@@V?$positional_parameter_base@DV?$string_output_adapter@D@__crt_stdio_output@@@2@@__crt_stdio_output@@AEAA_NXZ@@__crt_stdio_output@@YAPEAUansi_string@?1??type_case_Z@?$output_processor@DV?$string_output_adapter@D@__crt_stdio_output@@V?$positional_parameter_base@DV?$string_output_adapter@D@__crt_stdio_output@@@2@@0@AEAA_NXZ@AEAPEAD@Z 000000018003d200 f i libucrtd:output.obj
 0001:0003c270       ??$read_va_arg@PEAUansi_string@?1??type_case_Z@?$output_processor@DV?$string_output_adapter@D@__crt_stdio_output@@V?$standard_base@DV?$string_output_adapter@D@__crt_stdio_output@@@2@@__crt_stdio_output@@AEAA_NXZ@@__crt_stdio_output@@YAPEAUansi_string@?1??type_case_Z@?$output_processor@DV?$string_output_adapter@D@__crt_stdio_output@@V?$standard_base@DV?$string_output_adapter@D@__crt_stdio_output@@@2@@0@AEAA_NXZ@AEAPEAD@Z 000000018003d270 f i libucrtd:output.obj
 0001:0003c2e0       ??$read_va_arg@PEAUansi_string@?1??type_case_Z@?$output_processor@_WV?$stream_output_adapter@_W@__crt_stdio_output@@V?$format_validation_base@_WV?$stream_output_adapter@_W@__crt_stdio_output@@@2@@__crt_stdio_output@@AEAA_NXZ@@__crt_stdio_output@@YAPEAUansi_string@?1??type_case_Z@?$output_processor@_WV?$stream_output_adapter@_W@__crt_stdio_output@@V?$format_validation_base@_WV?$stream_output_adapter@_W@__crt_stdio_output@@@2@@0@AEAA_NXZ@AEAPEAD@Z 000000018003d2e0 f i libucrtd:output.obj
 0001:0003c350       ??$read_va_arg@PEAUansi_string@?1??type_case_Z@?$output_processor@_WV?$stream_output_adapter@_W@__crt_stdio_output@@V?$positional_parameter_base@_WV?$stream_output_adapter@_W@__crt_stdio_output@@@2@@__crt_stdio_output@@AEAA_NXZ@@__crt_stdio_output@@YAPEAUansi_string@?1??type_case_Z@?$output_processor@_WV?$stream_output_adapter@_W@__crt_stdio_output@@V?$positional_parameter_base@_WV?$stream_output_adapter@_W@__crt_stdio_output@@@2@@0@AEAA_NXZ@AEAPEAD@Z 000000018003d350 f i libucrtd:output.obj
 0001:0003c3c0       ??$read_va_arg@PEAUansi_string@?1??type_case_Z@?$output_processor@_WV?$stream_output_adapter@_W@__crt_stdio_output@@V?$standard_base@_WV?$stream_output_adapter@_W@__crt_stdio_output@@@2@@__crt_stdio_output@@AEAA_NXZ@@__crt_stdio_output@@YAPEAUansi_string@?1??type_case_Z@?$output_processor@_WV?$stream_output_adapter@_W@__crt_stdio_output@@V?$standard_base@_WV?$stream_output_adapter@_W@__crt_stdio_output@@@2@@0@AEAA_NXZ@AEAPEAD@Z 000000018003d3c0 f i libucrtd:output.obj
 0001:0003c430       ??$read_va_arg@PEAUansi_string@?1??type_case_Z@?$output_processor@_WV?$string_output_adapter@_W@__crt_stdio_output@@V?$format_validation_base@_WV?$string_output_adapter@_W@__crt_stdio_output@@@2@@__crt_stdio_output@@AEAA_NXZ@@__crt_stdio_output@@YAPEAUansi_string@?1??type_case_Z@?$output_processor@_WV?$string_output_adapter@_W@__crt_stdio_output@@V?$format_validation_base@_WV?$string_output_adapter@_W@__crt_stdio_output@@@2@@0@AEAA_NXZ@AEAPEAD@Z 000000018003d430 f i libucrtd:output.obj
 0001:0003c4a0       ??$read_va_arg@PEAUansi_string@?1??type_case_Z@?$output_processor@_WV?$string_output_adapter@_W@__crt_stdio_output@@V?$positional_parameter_base@_WV?$string_output_adapter@_W@__crt_stdio_output@@@2@@__crt_stdio_output@@AEAA_NXZ@@__crt_stdio_output@@YAPEAUansi_string@?1??type_case_Z@?$output_processor@_WV?$string_output_adapter@_W@__crt_stdio_output@@V?$positional_parameter_base@_WV?$string_output_adapter@_W@__crt_stdio_output@@@2@@0@AEAA_NXZ@AEAPEAD@Z 000000018003d4a0 f i libucrtd:output.obj
 0001:0003c510       ??$read_va_arg@PEAUansi_string@?1??type_case_Z@?$output_processor@_WV?$string_output_adapter@_W@__crt_stdio_output@@V?$standard_base@_WV?$string_output_adapter@_W@__crt_stdio_output@@@2@@__crt_stdio_output@@AEAA_NXZ@@__crt_stdio_output@@YAPEAUansi_string@?1??type_case_Z@?$output_processor@_WV?$string_output_adapter@_W@__crt_stdio_output@@V?$standard_base@_WV?$string_output_adapter@_W@__crt_stdio_output@@@2@@0@AEAA_NXZ@AEAPEAD@Z 000000018003d510 f i libucrtd:output.obj
 0001:0003c580       ??$read_va_arg@PEAX@__crt_stdio_output@@YAPEAXAEAPEAD@Z 000000018003d580 f i libucrtd:output.obj
 0001:0003c5f0       ??$read_va_arg@U_CRT_DOUBLE@@@__crt_stdio_output@@YA?AU_CRT_DOUBLE@@AEAPEAD@Z 000000018003d5f0 f i libucrtd:output.obj
 0001:0003c660       ??$read_va_arg@_J@__crt_stdio_output@@YA_JAEAPEAD@Z 000000018003d660 f i libucrtd:output.obj
 0001:0003c6d0       ??$read_va_arg@_K@__crt_stdio_output@@YA_KAEAPEAD@Z 000000018003d6d0 f i libucrtd:output.obj
 0001:0003c740       ??$read_va_arg@_W@__crt_stdio_output@@YA_WAEAPEAD@Z 000000018003d740 f i libucrtd:output.obj
 0001:0003c7b0       ??$scratch_count@D@formatting_buffer@__crt_stdio_output@@QEBA_KXZ 000000018003d7b0 f i libucrtd:output.obj
 0001:0003c7d0       ??$scratch_data@D@formatting_buffer@__crt_stdio_output@@QEAAPEADXZ 000000018003d7d0 f i libucrtd:output.obj
 0001:0003c840       ??$type_case_integer@$07@?$output_processor@DV?$stream_output_adapter@D@__crt_stdio_output@@V?$format_validation_base@DV?$stream_output_adapter@D@__crt_stdio_output@@@2@@__crt_stdio_output@@AEAA_N_N@Z 000000018003d840 f i libucrtd:output.obj
 0001:0003ccc0       ??$type_case_integer@$07@?$output_processor@DV?$stream_output_adapter@D@__crt_stdio_output@@V?$positional_parameter_base@DV?$stream_output_adapter@D@__crt_stdio_output@@@2@@__crt_stdio_output@@AEAA_N_N@Z 000000018003dcc0 f i libucrtd:output.obj
 0001:0003d140       ??$type_case_integer@$07@?$output_processor@DV?$stream_output_adapter@D@__crt_stdio_output@@V?$standard_base@DV?$stream_output_adapter@D@__crt_stdio_output@@@2@@__crt_stdio_output@@AEAA_N_N@Z 000000018003e140 f i libucrtd:output.obj
 0001:0003d5c0       ??$type_case_integer@$07@?$output_processor@DV?$string_output_adapter@D@__crt_stdio_output@@V?$format_validation_base@DV?$string_output_adapter@D@__crt_stdio_output@@@2@@__crt_stdio_output@@AEAA_N_N@Z 000000018003e5c0 f i libucrtd:output.obj
 0001:0003da40       ??$type_case_integer@$07@?$output_processor@DV?$string_output_adapter@D@__crt_stdio_output@@V?$positional_parameter_base@DV?$string_output_adapter@D@__crt_stdio_output@@@2@@__crt_stdio_output@@AEAA_N_N@Z 000000018003ea40 f i libucrtd:output.obj
 0001:0003dec0       ??$type_case_integer@$07@?$output_processor@DV?$string_output_adapter@D@__crt_stdio_output@@V?$standard_base@DV?$string_output_adapter@D@__crt_stdio_output@@@2@@__crt_stdio_output@@AEAA_N_N@Z 000000018003eec0 f i libucrtd:output.obj
 0001:0003e340       ??$type_case_integer@$07@?$output_processor@_WV?$stream_output_adapter@_W@__crt_stdio_output@@V?$format_validation_base@_WV?$stream_output_adapter@_W@__crt_stdio_output@@@2@@__crt_stdio_output@@AEAA_N_N@Z 000000018003f340 f i libucrtd:output.obj
 0001:0003e7c0       ??$type_case_integer@$07@?$output_processor@_WV?$stream_output_adapter@_W@__crt_stdio_output@@V?$positional_parameter_base@_WV?$stream_output_adapter@_W@__crt_stdio_output@@@2@@__crt_stdio_output@@AEAA_N_N@Z 000000018003f7c0 f i libucrtd:output.obj
 0001:0003ec40       ??$type_case_integer@$07@?$output_processor@_WV?$stream_output_adapter@_W@__crt_stdio_output@@V?$standard_base@_WV?$stream_output_adapter@_W@__crt_stdio_output@@@2@@__crt_stdio_output@@AEAA_N_N@Z 000000018003fc40 f i libucrtd:output.obj
 0001:0003f0c0       ??$type_case_integer@$07@?$output_processor@_WV?$string_output_adapter@_W@__crt_stdio_output@@V?$format_validation_base@_WV?$string_output_adapter@_W@__crt_stdio_output@@@2@@__crt_stdio_output@@AEAA_N_N@Z 00000001800400c0 f i libucrtd:output.obj
 0001:0003f540       ??$type_case_integer@$07@?$output_processor@_WV?$string_output_adapter@_W@__crt_stdio_output@@V?$positional_parameter_base@_WV?$string_output_adapter@_W@__crt_stdio_output@@@2@@__crt_stdio_output@@AEAA_N_N@Z 0000000180040540 f i libucrtd:output.obj
 0001:0003f9c0       ??$type_case_integer@$07@?$output_processor@_WV?$string_output_adapter@_W@__crt_stdio_output@@V?$standard_base@_WV?$string_output_adapter@_W@__crt_stdio_output@@@2@@__crt_stdio_output@@AEAA_N_N@Z 00000001800409c0 f i libucrtd:output.obj
 0001:0003fe40       ??$type_case_integer@$09@?$output_processor@DV?$stream_output_adapter@D@__crt_stdio_output@@V?$format_validation_base@DV?$stream_output_adapter@D@__crt_stdio_output@@@2@@__crt_stdio_output@@AEAA_N_N@Z 0000000180040e40 f i libucrtd:output.obj
 0001:000402c0       ??$type_case_integer@$09@?$output_processor@DV?$stream_output_adapter@D@__crt_stdio_output@@V?$positional_parameter_base@DV?$stream_output_adapter@D@__crt_stdio_output@@@2@@__crt_stdio_output@@AEAA_N_N@Z 00000001800412c0 f i libucrtd:output.obj
 0001:00040740       ??$type_case_integer@$09@?$output_processor@DV?$stream_output_adapter@D@__crt_stdio_output@@V?$standard_base@DV?$stream_output_adapter@D@__crt_stdio_output@@@2@@__crt_stdio_output@@AEAA_N_N@Z 0000000180041740 f i libucrtd:output.obj
 0001:00040bc0       ??$type_case_integer@$09@?$output_processor@DV?$string_output_adapter@D@__crt_stdio_output@@V?$format_validation_base@DV?$string_output_adapter@D@__crt_stdio_output@@@2@@__crt_stdio_output@@AEAA_N_N@Z 0000000180041bc0 f i libucrtd:output.obj
 0001:00041040       ??$type_case_integer@$09@?$output_processor@DV?$string_output_adapter@D@__crt_stdio_output@@V?$positional_parameter_base@DV?$string_output_adapter@D@__crt_stdio_output@@@2@@__crt_stdio_output@@AEAA_N_N@Z 0000000180042040 f i libucrtd:output.obj
 0001:000414c0       ??$type_case_integer@$09@?$output_processor@DV?$string_output_adapter@D@__crt_stdio_output@@V?$standard_base@DV?$string_output_adapter@D@__crt_stdio_output@@@2@@__crt_stdio_output@@AEAA_N_N@Z 00000001800424c0 f i libucrtd:output.obj
 0001:00041940       ??$type_case_integer@$09@?$output_processor@_WV?$stream_output_adapter@_W@__crt_stdio_output@@V?$format_validation_base@_WV?$stream_output_adapter@_W@__crt_stdio_output@@@2@@__crt_stdio_output@@AEAA_N_N@Z 0000000180042940 f i libucrtd:output.obj
 0001:00041dc0       ??$type_case_integer@$09@?$output_processor@_WV?$stream_output_adapter@_W@__crt_stdio_output@@V?$positional_parameter_base@_WV?$stream_output_adapter@_W@__crt_stdio_output@@@2@@__crt_stdio_output@@AEAA_N_N@Z 0000000180042dc0 f i libucrtd:output.obj
 0001:00042240       ??$type_case_integer@$09@?$output_processor@_WV?$stream_output_adapter@_W@__crt_stdio_output@@V?$standard_base@_WV?$stream_output_adapter@_W@__crt_stdio_output@@@2@@__crt_stdio_output@@AEAA_N_N@Z 0000000180043240 f i libucrtd:output.obj
 0001:000426c0       ??$type_case_integer@$09@?$output_processor@_WV?$string_output_adapter@_W@__crt_stdio_output@@V?$format_validation_base@_WV?$string_output_adapter@_W@__crt_stdio_output@@@2@@__crt_stdio_output@@AEAA_N_N@Z 00000001800436c0 f i libucrtd:output.obj
 0001:00042b40       ??$type_case_integer@$09@?$output_processor@_WV?$string_output_adapter@_W@__crt_stdio_output@@V?$positional_parameter_base@_WV?$string_output_adapter@_W@__crt_stdio_output@@@2@@__crt_stdio_output@@AEAA_N_N@Z 0000000180043b40 f i libucrtd:output.obj
 0001:00042fc0       ??$type_case_integer@$09@?$output_processor@_WV?$string_output_adapter@_W@__crt_stdio_output@@V?$standard_base@_WV?$string_output_adapter@_W@__crt_stdio_output@@@2@@__crt_stdio_output@@AEAA_N_N@Z 0000000180043fc0 f i libucrtd:output.obj
 0001:00043440       ??$type_case_integer@$0BA@@?$output_processor@DV?$stream_output_adapter@D@__crt_stdio_output@@V?$format_validation_base@DV?$stream_output_adapter@D@__crt_stdio_output@@@2@@__crt_stdio_output@@AEAA_N_N@Z 0000000180044440 f i libucrtd:output.obj
 0001:000438c0       ??$type_case_integer@$0BA@@?$output_processor@DV?$stream_output_adapter@D@__crt_stdio_output@@V?$positional_parameter_base@DV?$stream_output_adapter@D@__crt_stdio_output@@@2@@__crt_stdio_output@@AEAA_N_N@Z 00000001800448c0 f i libucrtd:output.obj
 0001:00043d40       ??$type_case_integer@$0BA@@?$output_processor@DV?$stream_output_adapter@D@__crt_stdio_output@@V?$standard_base@DV?$stream_output_adapter@D@__crt_stdio_output@@@2@@__crt_stdio_output@@AEAA_N_N@Z 0000000180044d40 f i libucrtd:output.obj
 0001:000441c0       ??$type_case_integer@$0BA@@?$output_processor@DV?$string_output_adapter@D@__crt_stdio_output@@V?$format_validation_base@DV?$string_output_adapter@D@__crt_stdio_output@@@2@@__crt_stdio_output@@AEAA_N_N@Z 00000001800451c0 f i libucrtd:output.obj
 0001:00044640       ??$type_case_integer@$0BA@@?$output_processor@DV?$string_output_adapter@D@__crt_stdio_output@@V?$positional_parameter_base@DV?$string_output_adapter@D@__crt_stdio_output@@@2@@__crt_stdio_output@@AEAA_N_N@Z 0000000180045640 f i libucrtd:output.obj
 0001:00044ac0       ??$type_case_integer@$0BA@@?$output_processor@DV?$string_output_adapter@D@__crt_stdio_output@@V?$standard_base@DV?$string_output_adapter@D@__crt_stdio_output@@@2@@__crt_stdio_output@@AEAA_N_N@Z 0000000180045ac0 f i libucrtd:output.obj
 0001:00044f40       ??$type_case_integer@$0BA@@?$output_processor@_WV?$stream_output_adapter@_W@__crt_stdio_output@@V?$format_validation_base@_WV?$stream_output_adapter@_W@__crt_stdio_output@@@2@@__crt_stdio_output@@AEAA_N_N@Z 0000000180045f40 f i libucrtd:output.obj
 0001:000453c0       ??$type_case_integer@$0BA@@?$output_processor@_WV?$stream_output_adapter@_W@__crt_stdio_output@@V?$positional_parameter_base@_WV?$stream_output_adapter@_W@__crt_stdio_output@@@2@@__crt_stdio_output@@AEAA_N_N@Z 00000001800463c0 f i libucrtd:output.obj
 0001:00045840       ??$type_case_integer@$0BA@@?$output_processor@_WV?$stream_output_adapter@_W@__crt_stdio_output@@V?$standard_base@_WV?$stream_output_adapter@_W@__crt_stdio_output@@@2@@__crt_stdio_output@@AEAA_N_N@Z 0000000180046840 f i libucrtd:output.obj
 0001:00045cc0       ??$type_case_integer@$0BA@@?$output_processor@_WV?$string_output_adapter@_W@__crt_stdio_output@@V?$format_validation_base@_WV?$string_output_adapter@_W@__crt_stdio_output@@@2@@__crt_stdio_output@@AEAA_N_N@Z 0000000180046cc0 f i libucrtd:output.obj
 0001:00046140       ??$type_case_integer@$0BA@@?$output_processor@_WV?$string_output_adapter@_W@__crt_stdio_output@@V?$positional_parameter_base@_WV?$string_output_adapter@_W@__crt_stdio_output@@@2@@__crt_stdio_output@@AEAA_N_N@Z 0000000180047140 f i libucrtd:output.obj
 0001:000465c0       ??$type_case_integer@$0BA@@?$output_processor@_WV?$string_output_adapter@_W@__crt_stdio_output@@V?$standard_base@_WV?$string_output_adapter@_W@__crt_stdio_output@@@2@@__crt_stdio_output@@AEAA_N_N@Z 00000001800475c0 f i libucrtd:output.obj
 0001:00046a40       ??$type_case_integer_parse_into_buffer@I$07@?$output_processor@DV?$stream_output_adapter@D@__crt_stdio_output@@V?$format_validation_base@DV?$stream_output_adapter@D@__crt_stdio_output@@@2@@__crt_stdio_output@@AEAAXI_N@Z 0000000180047a40 f i libucrtd:output.obj
 0001:00046b70       ??$type_case_integer_parse_into_buffer@I$07@?$output_processor@DV?$stream_output_adapter@D@__crt_stdio_output@@V?$positional_parameter_base@DV?$stream_output_adapter@D@__crt_stdio_output@@@2@@__crt_stdio_output@@AEAAXI_N@Z 0000000180047b70 f i libucrtd:output.obj
 0001:00046ca0       ??$type_case_integer_parse_into_buffer@I$07@?$output_processor@DV?$stream_output_adapter@D@__crt_stdio_output@@V?$standard_base@DV?$stream_output_adapter@D@__crt_stdio_output@@@2@@__crt_stdio_output@@AEAAXI_N@Z 0000000180047ca0 f i libucrtd:output.obj
 0001:00046dd0       ??$type_case_integer_parse_into_buffer@I$07@?$output_processor@DV?$string_output_adapter@D@__crt_stdio_output@@V?$format_validation_base@DV?$string_output_adapter@D@__crt_stdio_output@@@2@@__crt_stdio_output@@AEAAXI_N@Z 0000000180047dd0 f i libucrtd:output.obj
 0001:00046f00       ??$type_case_integer_parse_into_buffer@I$07@?$output_processor@DV?$string_output_adapter@D@__crt_stdio_output@@V?$positional_parameter_base@DV?$string_output_adapter@D@__crt_stdio_output@@@2@@__crt_stdio_output@@AEAAXI_N@Z 0000000180047f00 f i libucrtd:output.obj
 0001:00047030       ??$type_case_integer_parse_into_buffer@I$07@?$output_processor@DV?$string_output_adapter@D@__crt_stdio_output@@V?$standard_base@DV?$string_output_adapter@D@__crt_stdio_output@@@2@@__crt_stdio_output@@AEAAXI_N@Z 0000000180048030 f i libucrtd:output.obj
 0001:00047160       ??$type_case_integer_parse_into_buffer@I$07@?$output_processor@_WV?$stream_output_adapter@_W@__crt_stdio_output@@V?$format_validation_base@_WV?$stream_output_adapter@_W@__crt_stdio_output@@@2@@__crt_stdio_output@@AEAAXI_N@Z 0000000180048160 f i libucrtd:output.obj
 0001:000472a0       ??$type_case_integer_parse_into_buffer@I$07@?$output_processor@_WV?$stream_output_adapter@_W@__crt_stdio_output@@V?$positional_parameter_base@_WV?$stream_output_adapter@_W@__crt_stdio_output@@@2@@__crt_stdio_output@@AEAAXI_N@Z 00000001800482a0 f i libucrtd:output.obj
 0001:000473e0       ??$type_case_integer_parse_into_buffer@I$07@?$output_processor@_WV?$stream_output_adapter@_W@__crt_stdio_output@@V?$standard_base@_WV?$stream_output_adapter@_W@__crt_stdio_output@@@2@@__crt_stdio_output@@AEAAXI_N@Z 00000001800483e0 f i libucrtd:output.obj
 0001:00047520       ??$type_case_integer_parse_into_buffer@I$07@?$output_processor@_WV?$string_output_adapter@_W@__crt_stdio_output@@V?$format_validation_base@_WV?$string_output_adapter@_W@__crt_stdio_output@@@2@@__crt_stdio_output@@AEAAXI_N@Z 0000000180048520 f i libucrtd:output.obj
 0001:00047660       ??$type_case_integer_parse_into_buffer@I$07@?$output_processor@_WV?$string_output_adapter@_W@__crt_stdio_output@@V?$positional_parameter_base@_WV?$string_output_adapter@_W@__crt_stdio_output@@@2@@__crt_stdio_output@@AEAAXI_N@Z 0000000180048660 f i libucrtd:output.obj
 0001:000477a0       ??$type_case_integer_parse_into_buffer@I$07@?$output_processor@_WV?$string_output_adapter@_W@__crt_stdio_output@@V?$standard_base@_WV?$string_output_adapter@_W@__crt_stdio_output@@@2@@__crt_stdio_output@@AEAAXI_N@Z 00000001800487a0 f i libucrtd:output.obj
 0001:000478e0       ??$type_case_integer_parse_into_buffer@I$09@?$output_processor@DV?$stream_output_adapter@D@__crt_stdio_output@@V?$format_validation_base@DV?$stream_output_adapter@D@__crt_stdio_output@@@2@@__crt_stdio_output@@AEAAXI_N@Z 00000001800488e0 f i libucrtd:output.obj
 0001:00047a10       ??$type_case_integer_parse_into_buffer@I$09@?$output_processor@DV?$stream_output_adapter@D@__crt_stdio_output@@V?$positional_parameter_base@DV?$stream_output_adapter@D@__crt_stdio_output@@@2@@__crt_stdio_output@@AEAAXI_N@Z 0000000180048a10 f i libucrtd:output.obj
 0001:00047b40       ??$type_case_integer_parse_into_buffer@I$09@?$output_processor@DV?$stream_output_adapter@D@__crt_stdio_output@@V?$standard_base@DV?$stream_output_adapter@D@__crt_stdio_output@@@2@@__crt_stdio_output@@AEAAXI_N@Z 0000000180048b40 f i libucrtd:output.obj
 0001:00047c70       ??$type_case_integer_parse_into_buffer@I$09@?$output_processor@DV?$string_output_adapter@D@__crt_stdio_output@@V?$format_validation_base@DV?$string_output_adapter@D@__crt_stdio_output@@@2@@__crt_stdio_output@@AEAAXI_N@Z 0000000180048c70 f i libucrtd:output.obj
 0001:00047da0       ??$type_case_integer_parse_into_buffer@I$09@?$output_processor@DV?$string_output_adapter@D@__crt_stdio_output@@V?$positional_parameter_base@DV?$string_output_adapter@D@__crt_stdio_output@@@2@@__crt_stdio_output@@AEAAXI_N@Z 0000000180048da0 f i libucrtd:output.obj
 0001:00047ed0       ??$type_case_integer_parse_into_buffer@I$09@?$output_processor@DV?$string_output_adapter@D@__crt_stdio_output@@V?$standard_base@DV?$string_output_adapter@D@__crt_stdio_output@@@2@@__crt_stdio_output@@AEAAXI_N@Z 0000000180048ed0 f i libucrtd:output.obj
 0001:00048000       ??$type_case_integer_parse_into_buffer@I$09@?$output_processor@_WV?$stream_output_adapter@_W@__crt_stdio_output@@V?$format_validation_base@_WV?$stream_output_adapter@_W@__crt_stdio_output@@@2@@__crt_stdio_output@@AEAAXI_N@Z 0000000180049000 f i libucrtd:output.obj
 0001:00048140       ??$type_case_integer_parse_into_buffer@I$09@?$output_processor@_WV?$stream_output_adapter@_W@__crt_stdio_output@@V?$positional_parameter_base@_WV?$stream_output_adapter@_W@__crt_stdio_output@@@2@@__crt_stdio_output@@AEAAXI_N@Z 0000000180049140 f i libucrtd:output.obj
 0001:00048280       ??$type_case_integer_parse_into_buffer@I$09@?$output_processor@_WV?$stream_output_adapter@_W@__crt_stdio_output@@V?$standard_base@_WV?$stream_output_adapter@_W@__crt_stdio_output@@@2@@__crt_stdio_output@@AEAAXI_N@Z 0000000180049280 f i libucrtd:output.obj
 0001:000483c0       ??$type_case_integer_parse_into_buffer@I$09@?$output_processor@_WV?$string_output_adapter@_W@__crt_stdio_output@@V?$format_validation_base@_WV?$string_output_adapter@_W@__crt_stdio_output@@@2@@__crt_stdio_output@@AEAAXI_N@Z 00000001800493c0 f i libucrtd:output.obj
 0001:00048500       ??$type_case_integer_parse_into_buffer@I$09@?$output_processor@_WV?$string_output_adapter@_W@__crt_stdio_output@@V?$positional_parameter_base@_WV?$string_output_adapter@_W@__crt_stdio_output@@@2@@__crt_stdio_output@@AEAAXI_N@Z 0000000180049500 f i libucrtd:output.obj
 0001:00048640       ??$type_case_integer_parse_into_buffer@I$09@?$output_processor@_WV?$string_output_adapter@_W@__crt_stdio_output@@V?$standard_base@_WV?$string_output_adapter@_W@__crt_stdio_output@@@2@@__crt_stdio_output@@AEAAXI_N@Z 0000000180049640 f i libucrtd:output.obj
 0001:00048780       ??$type_case_integer_parse_into_buffer@I$0BA@@?$output_processor@DV?$stream_output_adapter@D@__crt_stdio_output@@V?$format_validation_base@DV?$stream_output_adapter@D@__crt_stdio_output@@@2@@__crt_stdio_output@@AEAAXI_N@Z 0000000180049780 f i libucrtd:output.obj
 0001:000488b0       ??$type_case_integer_parse_into_buffer@I$0BA@@?$output_processor@DV?$stream_output_adapter@D@__crt_stdio_output@@V?$positional_parameter_base@DV?$stream_output_adapter@D@__crt_stdio_output@@@2@@__crt_stdio_output@@AEAAXI_N@Z 00000001800498b0 f i libucrtd:output.obj
 0001:000489e0       ??$type_case_integer_parse_into_buffer@I$0BA@@?$output_processor@DV?$stream_output_adapter@D@__crt_stdio_output@@V?$standard_base@DV?$stream_output_adapter@D@__crt_stdio_output@@@2@@__crt_stdio_output@@AEAAXI_N@Z 00000001800499e0 f i libucrtd:output.obj
 0001:00048b10       ??$type_case_integer_parse_into_buffer@I$0BA@@?$output_processor@DV?$string_output_adapter@D@__crt_stdio_output@@V?$format_validation_base@DV?$string_output_adapter@D@__crt_stdio_output@@@2@@__crt_stdio_output@@AEAAXI_N@Z 0000000180049b10 f i libucrtd:output.obj
 0001:00048c40       ??$type_case_integer_parse_into_buffer@I$0BA@@?$output_processor@DV?$string_output_adapter@D@__crt_stdio_output@@V?$positional_parameter_base@DV?$string_output_adapter@D@__crt_stdio_output@@@2@@__crt_stdio_output@@AEAAXI_N@Z 0000000180049c40 f i libucrtd:output.obj
 0001:00048d70       ??$type_case_integer_parse_into_buffer@I$0BA@@?$output_processor@DV?$string_output_adapter@D@__crt_stdio_output@@V?$standard_base@DV?$string_output_adapter@D@__crt_stdio_output@@@2@@__crt_stdio_output@@AEAAXI_N@Z 0000000180049d70 f i libucrtd:output.obj
 0001:00048ea0       ??$type_case_integer_parse_into_buffer@I$0BA@@?$output_processor@_WV?$stream_output_adapter@_W@__crt_stdio_output@@V?$format_validation_base@_WV?$stream_output_adapter@_W@__crt_stdio_output@@@2@@__crt_stdio_output@@AEAAXI_N@Z 0000000180049ea0 f i libucrtd:output.obj
 0001:00048fe0       ??$type_case_integer_parse_into_buffer@I$0BA@@?$output_processor@_WV?$stream_output_adapter@_W@__crt_stdio_output@@V?$positional_parameter_base@_WV?$stream_output_adapter@_W@__crt_stdio_output@@@2@@__crt_stdio_output@@AEAAXI_N@Z 0000000180049fe0 f i libucrtd:output.obj
 0001:00049120       ??$type_case_integer_parse_into_buffer@I$0BA@@?$output_processor@_WV?$stream_output_adapter@_W@__crt_stdio_output@@V?$standard_base@_WV?$stream_output_adapter@_W@__crt_stdio_output@@@2@@__crt_stdio_output@@AEAAXI_N@Z 000000018004a120 f i libucrtd:output.obj
 0001:00049260       ??$type_case_integer_parse_into_buffer@I$0BA@@?$output_processor@_WV?$string_output_adapter@_W@__crt_stdio_output@@V?$format_validation_base@_WV?$string_output_adapter@_W@__crt_stdio_output@@@2@@__crt_stdio_output@@AEAAXI_N@Z 000000018004a260 f i libucrtd:output.obj
 0001:000493a0       ??$type_case_integer_parse_into_buffer@I$0BA@@?$output_processor@_WV?$string_output_adapter@_W@__crt_stdio_output@@V?$positional_parameter_base@_WV?$string_output_adapter@_W@__crt_stdio_output@@@2@@__crt_stdio_output@@AEAAXI_N@Z 000000018004a3a0 f i libucrtd:output.obj
 0001:000494e0       ??$type_case_integer_parse_into_buffer@I$0BA@@?$output_processor@_WV?$string_output_adapter@_W@__crt_stdio_output@@V?$standard_base@_WV?$string_output_adapter@_W@__crt_stdio_output@@@2@@__crt_stdio_output@@AEAAXI_N@Z 000000018004a4e0 f i libucrtd:output.obj
 0001:00049620       ??$type_case_integer_parse_into_buffer@_K$07@?$output_processor@DV?$stream_output_adapter@D@__crt_stdio_output@@V?$format_validation_base@DV?$stream_output_adapter@D@__crt_stdio_output@@@2@@__crt_stdio_output@@AEAAX_K_N@Z 000000018004a620 f i libucrtd:output.obj
 0001:00049760       ??$type_case_integer_parse_into_buffer@_K$07@?$output_processor@DV?$stream_output_adapter@D@__crt_stdio_output@@V?$positional_parameter_base@DV?$stream_output_adapter@D@__crt_stdio_output@@@2@@__crt_stdio_output@@AEAAX_K_N@Z 000000018004a760 f i libucrtd:output.obj
 0001:000498a0       ??$type_case_integer_parse_into_buffer@_K$07@?$output_processor@DV?$stream_output_adapter@D@__crt_stdio_output@@V?$standard_base@DV?$stream_output_adapter@D@__crt_stdio_output@@@2@@__crt_stdio_output@@AEAAX_K_N@Z 000000018004a8a0 f i libucrtd:output.obj
 0001:000499e0       ??$type_case_integer_parse_into_buffer@_K$07@?$output_processor@DV?$string_output_adapter@D@__crt_stdio_output@@V?$format_validation_base@DV?$string_output_adapter@D@__crt_stdio_output@@@2@@__crt_stdio_output@@AEAAX_K_N@Z 000000018004a9e0 f i libucrtd:output.obj
 0001:00049b20       ??$type_case_integer_parse_into_buffer@_K$07@?$output_processor@DV?$string_output_adapter@D@__crt_stdio_output@@V?$positional_parameter_base@DV?$string_output_adapter@D@__crt_stdio_output@@@2@@__crt_stdio_output@@AEAAX_K_N@Z 000000018004ab20 f i libucrtd:output.obj
 0001:00049c60       ??$type_case_integer_parse_into_buffer@_K$07@?$output_processor@DV?$string_output_adapter@D@__crt_stdio_output@@V?$standard_base@DV?$string_output_adapter@D@__crt_stdio_output@@@2@@__crt_stdio_output@@AEAAX_K_N@Z 000000018004ac60 f i libucrtd:output.obj
 0001:00049da0       ??$type_case_integer_parse_into_buffer@_K$07@?$output_processor@_WV?$stream_output_adapter@_W@__crt_stdio_output@@V?$format_validation_base@_WV?$stream_output_adapter@_W@__crt_stdio_output@@@2@@__crt_stdio_output@@AEAAX_K_N@Z 000000018004ada0 f i libucrtd:output.obj
 0001:00049ee0       ??$type_case_integer_parse_into_buffer@_K$07@?$output_processor@_WV?$stream_output_adapter@_W@__crt_stdio_output@@V?$positional_parameter_base@_WV?$stream_output_adapter@_W@__crt_stdio_output@@@2@@__crt_stdio_output@@AEAAX_K_N@Z 000000018004aee0 f i libucrtd:output.obj
 0001:0004a020       ??$type_case_integer_parse_into_buffer@_K$07@?$output_processor@_WV?$stream_output_adapter@_W@__crt_stdio_output@@V?$standard_base@_WV?$stream_output_adapter@_W@__crt_stdio_output@@@2@@__crt_stdio_output@@AEAAX_K_N@Z 000000018004b020 f i libucrtd:output.obj
 0001:0004a160       ??$type_case_integer_parse_into_buffer@_K$07@?$output_processor@_WV?$string_output_adapter@_W@__crt_stdio_output@@V?$format_validation_base@_WV?$string_output_adapter@_W@__crt_stdio_output@@@2@@__crt_stdio_output@@AEAAX_K_N@Z 000000018004b160 f i libucrtd:output.obj
 0001:0004a2a0       ??$type_case_integer_parse_into_buffer@_K$07@?$output_processor@_WV?$string_output_adapter@_W@__crt_stdio_output@@V?$positional_parameter_base@_WV?$string_output_adapter@_W@__crt_stdio_output@@@2@@__crt_stdio_output@@AEAAX_K_N@Z 000000018004b2a0 f i libucrtd:output.obj
 0001:0004a3e0       ??$type_case_integer_parse_into_buffer@_K$07@?$output_processor@_WV?$string_output_adapter@_W@__crt_stdio_output@@V?$standard_base@_WV?$string_output_adapter@_W@__crt_stdio_output@@@2@@__crt_stdio_output@@AEAAX_K_N@Z 000000018004b3e0 f i libucrtd:output.obj
 0001:0004a520       ??$type_case_integer_parse_into_buffer@_K$09@?$output_processor@DV?$stream_output_adapter@D@__crt_stdio_output@@V?$format_validation_base@DV?$stream_output_adapter@D@__crt_stdio_output@@@2@@__crt_stdio_output@@AEAAX_K_N@Z 000000018004b520 f i libucrtd:output.obj
 0001:0004a660       ??$type_case_integer_parse_into_buffer@_K$09@?$output_processor@DV?$stream_output_adapter@D@__crt_stdio_output@@V?$positional_parameter_base@DV?$stream_output_adapter@D@__crt_stdio_output@@@2@@__crt_stdio_output@@AEAAX_K_N@Z 000000018004b660 f i libucrtd:output.obj
 0001:0004a7a0       ??$type_case_integer_parse_into_buffer@_K$09@?$output_processor@DV?$stream_output_adapter@D@__crt_stdio_output@@V?$standard_base@DV?$stream_output_adapter@D@__crt_stdio_output@@@2@@__crt_stdio_output@@AEAAX_K_N@Z 000000018004b7a0 f i libucrtd:output.obj
 0001:0004a8e0       ??$type_case_integer_parse_into_buffer@_K$09@?$output_processor@DV?$string_output_adapter@D@__crt_stdio_output@@V?$format_validation_base@DV?$string_output_adapter@D@__crt_stdio_output@@@2@@__crt_stdio_output@@AEAAX_K_N@Z 000000018004b8e0 f i libucrtd:output.obj
 0001:0004aa20       ??$type_case_integer_parse_into_buffer@_K$09@?$output_processor@DV?$string_output_adapter@D@__crt_stdio_output@@V?$positional_parameter_base@DV?$string_output_adapter@D@__crt_stdio_output@@@2@@__crt_stdio_output@@AEAAX_K_N@Z 000000018004ba20 f i libucrtd:output.obj
 0001:0004ab60       ??$type_case_integer_parse_into_buffer@_K$09@?$output_processor@DV?$string_output_adapter@D@__crt_stdio_output@@V?$standard_base@DV?$string_output_adapter@D@__crt_stdio_output@@@2@@__crt_stdio_output@@AEAAX_K_N@Z 000000018004bb60 f i libucrtd:output.obj
 0001:0004aca0       ??$type_case_integer_parse_into_buffer@_K$09@?$output_processor@_WV?$stream_output_adapter@_W@__crt_stdio_output@@V?$format_validation_base@_WV?$stream_output_adapter@_W@__crt_stdio_output@@@2@@__crt_stdio_output@@AEAAX_K_N@Z 000000018004bca0 f i libucrtd:output.obj
 0001:0004ade0       ??$type_case_integer_parse_into_buffer@_K$09@?$output_processor@_WV?$stream_output_adapter@_W@__crt_stdio_output@@V?$positional_parameter_base@_WV?$stream_output_adapter@_W@__crt_stdio_output@@@2@@__crt_stdio_output@@AEAAX_K_N@Z 000000018004bde0 f i libucrtd:output.obj
 0001:0004af20       ??$type_case_integer_parse_into_buffer@_K$09@?$output_processor@_WV?$stream_output_adapter@_W@__crt_stdio_output@@V?$standard_base@_WV?$stream_output_adapter@_W@__crt_stdio_output@@@2@@__crt_stdio_output@@AEAAX_K_N@Z 000000018004bf20 f i libucrtd:output.obj
 0001:0004b060       ??$type_case_integer_parse_into_buffer@_K$09@?$output_processor@_WV?$string_output_adapter@_W@__crt_stdio_output@@V?$format_validation_base@_WV?$string_output_adapter@_W@__crt_stdio_output@@@2@@__crt_stdio_output@@AEAAX_K_N@Z 000000018004c060 f i libucrtd:output.obj
 0001:0004b1a0       ??$type_case_integer_parse_into_buffer@_K$09@?$output_processor@_WV?$string_output_adapter@_W@__crt_stdio_output@@V?$positional_parameter_base@_WV?$string_output_adapter@_W@__crt_stdio_output@@@2@@__crt_stdio_output@@AEAAX_K_N@Z 000000018004c1a0 f i libucrtd:output.obj
 0001:0004b2e0       ??$type_case_integer_parse_into_buffer@_K$09@?$output_processor@_WV?$string_output_adapter@_W@__crt_stdio_output@@V?$standard_base@_WV?$string_output_adapter@_W@__crt_stdio_output@@@2@@__crt_stdio_output@@AEAAX_K_N@Z 000000018004c2e0 f i libucrtd:output.obj
 0001:0004b420       ??$type_case_integer_parse_into_buffer@_K$0BA@@?$output_processor@DV?$stream_output_adapter@D@__crt_stdio_output@@V?$format_validation_base@DV?$stream_output_adapter@D@__crt_stdio_output@@@2@@__crt_stdio_output@@AEAAX_K_N@Z 000000018004c420 f i libucrtd:output.obj
 0001:0004b560       ??$type_case_integer_parse_into_buffer@_K$0BA@@?$output_processor@DV?$stream_output_adapter@D@__crt_stdio_output@@V?$positional_parameter_base@DV?$stream_output_adapter@D@__crt_stdio_output@@@2@@__crt_stdio_output@@AEAAX_K_N@Z 000000018004c560 f i libucrtd:output.obj
 0001:0004b6a0       ??$type_case_integer_parse_into_buffer@_K$0BA@@?$output_processor@DV?$stream_output_adapter@D@__crt_stdio_output@@V?$standard_base@DV?$stream_output_adapter@D@__crt_stdio_output@@@2@@__crt_stdio_output@@AEAAX_K_N@Z 000000018004c6a0 f i libucrtd:output.obj
 0001:0004b7e0       ??$type_case_integer_parse_into_buffer@_K$0BA@@?$output_processor@DV?$string_output_adapter@D@__crt_stdio_output@@V?$format_validation_base@DV?$string_output_adapter@D@__crt_stdio_output@@@2@@__crt_stdio_output@@AEAAX_K_N@Z 000000018004c7e0 f i libucrtd:output.obj
 0001:0004b920       ??$type_case_integer_parse_into_buffer@_K$0BA@@?$output_processor@DV?$string_output_adapter@D@__crt_stdio_output@@V?$positional_parameter_base@DV?$string_output_adapter@D@__crt_stdio_output@@@2@@__crt_stdio_output@@AEAAX_K_N@Z 000000018004c920 f i libucrtd:output.obj
 0001:0004ba60       ??$type_case_integer_parse_into_buffer@_K$0BA@@?$output_processor@DV?$string_output_adapter@D@__crt_stdio_output@@V?$standard_base@DV?$string_output_adapter@D@__crt_stdio_output@@@2@@__crt_stdio_output@@AEAAX_K_N@Z 000000018004ca60 f i libucrtd:output.obj
 0001:0004bba0       ??$type_case_integer_parse_into_buffer@_K$0BA@@?$output_processor@_WV?$stream_output_adapter@_W@__crt_stdio_output@@V?$format_validation_base@_WV?$stream_output_adapter@_W@__crt_stdio_output@@@2@@__crt_stdio_output@@AEAAX_K_N@Z 000000018004cba0 f i libucrtd:output.obj
 0001:0004bce0       ??$type_case_integer_parse_into_buffer@_K$0BA@@?$output_processor@_WV?$stream_output_adapter@_W@__crt_stdio_output@@V?$positional_parameter_base@_WV?$stream_output_adapter@_W@__crt_stdio_output@@@2@@__crt_stdio_output@@AEAAX_K_N@Z 000000018004cce0 f i libucrtd:output.obj
 0001:0004be20       ??$type_case_integer_parse_into_buffer@_K$0BA@@?$output_processor@_WV?$stream_output_adapter@_W@__crt_stdio_output@@V?$standard_base@_WV?$stream_output_adapter@_W@__crt_stdio_output@@@2@@__crt_stdio_output@@AEAAX_K_N@Z 000000018004ce20 f i libucrtd:output.obj
 0001:0004bf60       ??$type_case_integer_parse_into_buffer@_K$0BA@@?$output_processor@_WV?$string_output_adapter@_W@__crt_stdio_output@@V?$format_validation_base@_WV?$string_output_adapter@_W@__crt_stdio_output@@@2@@__crt_stdio_output@@AEAAX_K_N@Z 000000018004cf60 f i libucrtd:output.obj
 0001:0004c0a0       ??$type_case_integer_parse_into_buffer@_K$0BA@@?$output_processor@_WV?$string_output_adapter@_W@__crt_stdio_output@@V?$positional_parameter_base@_WV?$string_output_adapter@_W@__crt_stdio_output@@@2@@__crt_stdio_output@@AEAAX_K_N@Z 000000018004d0a0 f i libucrtd:output.obj
 0001:0004c1e0       ??$type_case_integer_parse_into_buffer@_K$0BA@@?$output_processor@_WV?$string_output_adapter@_W@__crt_stdio_output@@V?$standard_base@_WV?$string_output_adapter@_W@__crt_stdio_output@@@2@@__crt_stdio_output@@AEAAX_K_N@Z 000000018004d1e0 f i libucrtd:output.obj
 0001:0004c320       ??$write_multiple_characters@V?$stream_output_adapter@D@__crt_stdio_output@@D@__crt_stdio_output@@YAXAEBV?$stream_output_adapter@D@0@DHQEAHAEAV__crt_cached_ptd_host@@@Z 000000018004d320 f i libucrtd:output.obj
 0001:0004c390       ??$write_multiple_characters@V?$stream_output_adapter@_W@__crt_stdio_output@@D@__crt_stdio_output@@YAXAEBV?$stream_output_adapter@_W@0@DHQEAHAEAV__crt_cached_ptd_host@@@Z 000000018004d390 f i libucrtd:output.obj
 0001:0004c400       ??$write_multiple_characters@V?$string_output_adapter@D@__crt_stdio_output@@D@__crt_stdio_output@@YAXAEBV?$string_output_adapter@D@0@DHQEAHAEAV__crt_cached_ptd_host@@@Z 000000018004d400 f i libucrtd:output.obj
 0001:0004c470       ??$write_multiple_characters@V?$string_output_adapter@_W@__crt_stdio_output@@D@__crt_stdio_output@@YAXAEBV?$string_output_adapter@_W@0@DHQEAHAEAV__crt_cached_ptd_host@@@Z 000000018004d470 f i libucrtd:output.obj
 0001:0004c8a0       ??0?$c_string_character_source@D@__crt_strtox@@QEAA@QEBDQEAPEBD@Z 000000018004d8a0 f i libucrtd:output.obj
 0001:0004c8f0       ??0?$c_string_character_source@_W@__crt_strtox@@QEAA@QEB_WQEAPEB_W@Z 000000018004d8f0 f i libucrtd:output.obj
 0001:0004c940       ??0?$cached@H@__crt_cached_ptd_host@@QEAA@XZ 000000018004d940 f i libucrtd:output.obj
 0001:0004c960       ??0?$cached@K@__crt_cached_ptd_host@@QEAA@XZ 000000018004d960 f i libucrtd:output.obj
 0001:0004c980       ??0?$common_data@D@__crt_stdio_output@@IEAA@AEAV__crt_cached_ptd_host@@@Z 000000018004d980 f i libucrtd:output.obj
 0001:0004ca40       ??0?$common_data@_W@__crt_stdio_output@@IEAA@AEAV__crt_cached_ptd_host@@@Z 000000018004da40 f i libucrtd:output.obj
 0001:0004cb00       ??0?$output_adapter_data@DV?$stream_output_adapter@D@__crt_stdio_output@@@__crt_stdio_output@@IEAA@AEBV?$stream_output_adapter@D@1@_KQEBDAEAV__crt_cached_ptd_host@@QEAD@Z 000000018004db00 f i libucrtd:output.obj
 0001:0004cb80       ??0?$output_adapter_data@DV?$string_output_adapter@D@__crt_stdio_output@@@__crt_stdio_output@@IEAA@AEBV?$string_output_adapter@D@1@_KQEBDAEAV__crt_cached_ptd_host@@QEAD@Z 000000018004db80 f i libucrtd:output.obj
 0001:0004cc00       ??0?$output_adapter_data@_WV?$stream_output_adapter@_W@__crt_stdio_output@@@__crt_stdio_output@@IEAA@AEBV?$stream_output_adapter@_W@1@_KQEB_WAEAV__crt_cached_ptd_host@@QEAD@Z 000000018004dc00 f i libucrtd:output.obj
 0001:0004cc80       ??0?$output_adapter_data@_WV?$string_output_adapter@_W@__crt_stdio_output@@@__crt_stdio_output@@IEAA@AEBV?$string_output_adapter@_W@1@_KQEB_WAEAV__crt_cached_ptd_host@@QEAD@Z 000000018004dc80 f i libucrtd:output.obj
 0001:0004cd00       ??0?$output_processor@DV?$stream_output_adapter@D@__crt_stdio_output@@V?$format_validation_base@DV?$stream_output_adapter@D@__crt_stdio_output@@@2@@__crt_stdio_output@@QEAA@AEBV?$stream_output_adapter@D@1@_KQEBDAEAV__crt_cached_ptd_host@@QEAD@Z 000000018004dd00 f i libucrtd:output.obj
 0001:0004cd50       ??0?$output_processor@DV?$stream_output_adapter@D@__crt_stdio_output@@V?$positional_parameter_base@DV?$stream_output_adapter@D@__crt_stdio_output@@@2@@__crt_stdio_output@@QEAA@AEBV?$stream_output_adapter@D@1@_KQEBDAEAV__crt_cached_ptd_host@@QEAD@Z 000000018004dd50 f i libucrtd:output.obj
 0001:0004cda0       ??0?$output_processor@DV?$stream_output_adapter@D@__crt_stdio_output@@V?$standard_base@DV?$stream_output_adapter@D@__crt_stdio_output@@@2@@__crt_stdio_output@@QEAA@AEBV?$stream_output_adapter@D@1@_KQEBDAEAV__crt_cached_ptd_host@@QEAD@Z 000000018004dda0 f i libucrtd:output.obj
 0001:0004cdf0       ??0?$output_processor@DV?$string_output_adapter@D@__crt_stdio_output@@V?$format_validation_base@DV?$string_output_adapter@D@__crt_stdio_output@@@2@@__crt_stdio_output@@QEAA@AEBV?$string_output_adapter@D@1@_KQEBDAEAV__crt_cached_ptd_host@@QEAD@Z 000000018004ddf0 f i libucrtd:output.obj
 0001:0004ce40       ??0?$output_processor@DV?$string_output_adapter@D@__crt_stdio_output@@V?$positional_parameter_base@DV?$string_output_adapter@D@__crt_stdio_output@@@2@@__crt_stdio_output@@QEAA@AEBV?$string_output_adapter@D@1@_KQEBDAEAV__crt_cached_ptd_host@@QEAD@Z 000000018004de40 f i libucrtd:output.obj
 0001:0004ce90       ??0?$output_processor@DV?$string_output_adapter@D@__crt_stdio_output@@V?$standard_base@DV?$string_output_adapter@D@__crt_stdio_output@@@2@@__crt_stdio_output@@QEAA@AEBV?$string_output_adapter@D@1@_KQEBDAEAV__crt_cached_ptd_host@@QEAD@Z 000000018004de90 f i libucrtd:output.obj
 0001:0004cee0       ??0?$output_processor@_WV?$stream_output_adapter@_W@__crt_stdio_output@@V?$format_validation_base@_WV?$stream_output_adapter@_W@__crt_stdio_output@@@2@@__crt_stdio_output@@QEAA@AEBV?$stream_output_adapter@_W@1@_KQEB_WAEAV__crt_cached_ptd_host@@QEAD@Z 000000018004dee0 f i libucrtd:output.obj
 0001:0004cf30       ??0?$output_processor@_WV?$stream_output_adapter@_W@__crt_stdio_output@@V?$positional_parameter_base@_WV?$stream_output_adapter@_W@__crt_stdio_output@@@2@@__crt_stdio_output@@QEAA@AEBV?$stream_output_adapter@_W@1@_KQEB_WAEAV__crt_cached_ptd_host@@QEAD@Z 000000018004df30 f i libucrtd:output.obj
 0001:0004cf80       ??0?$output_processor@_WV?$stream_output_adapter@_W@__crt_stdio_output@@V?$standard_base@_WV?$stream_output_adapter@_W@__crt_stdio_output@@@2@@__crt_stdio_output@@QEAA@AEBV?$stream_output_adapter@_W@1@_KQEB_WAEAV__crt_cached_ptd_host@@QEAD@Z 000000018004df80 f i libucrtd:output.obj
 0001:0004cfd0       ??0?$output_processor@_WV?$string_output_adapter@_W@__crt_stdio_output@@V?$format_validation_base@_WV?$string_output_adapter@_W@__crt_stdio_output@@@2@@__crt_stdio_output@@QEAA@AEBV?$string_output_adapter@_W@1@_KQEB_WAEAV__crt_cached_ptd_host@@QEAD@Z 000000018004dfd0 f i libucrtd:output.obj
 0001:0004d020       ??0?$output_processor@_WV?$string_output_adapter@_W@__crt_stdio_output@@V?$positional_parameter_base@_WV?$string_output_adapter@_W@__crt_stdio_output@@@2@@__crt_stdio_output@@QEAA@AEBV?$string_output_adapter@_W@1@_KQEB_WAEAV__crt_cached_ptd_host@@QEAD@Z 000000018004e020 f i libucrtd:output.obj
 0001:0004d070       ??0?$output_processor@_WV?$string_output_adapter@_W@__crt_stdio_output@@V?$standard_base@_WV?$string_output_adapter@_W@__crt_stdio_output@@@2@@__crt_stdio_output@@QEAA@AEBV?$string_output_adapter@_W@1@_KQEB_WAEAV__crt_cached_ptd_host@@QEAD@Z 000000018004e070 f i libucrtd:output.obj
 0001:0004d0c0       ??0?$stream_output_adapter@D@__crt_stdio_output@@QEAA@QEAU_iobuf@@@Z 000000018004e0c0 f i libucrtd:output.obj
 0001:0004d100       ??0?$stream_output_adapter@_W@__crt_stdio_output@@QEAA@QEAU_iobuf@@@Z 000000018004e100 f i libucrtd:output.obj
 0001:0004d140       ??0?$string_output_adapter@D@__crt_stdio_output@@QEAA@QEAU?$string_output_adapter_context@D@1@@Z 000000018004e140 f i libucrtd:output.obj
 0001:0004d160       ??0?$string_output_adapter@_W@__crt_stdio_output@@QEAA@QEAU?$string_output_adapter_context@_W@1@@Z 000000018004e160 f i libucrtd:output.obj
 0001:0004d180       ??0__acrt_stdio_temporary_buffering_guard@@QEAA@QEAU_iobuf@@AEAV__crt_cached_ptd_host@@@Z 000000018004e180 f i libucrtd:output.obj
 0001:0004d1d0       ??0__crt_cached_ptd_host@@QEAA@QEAU__crt_locale_pointers@@@Z 000000018004e1d0 f i libucrtd:output.obj
 0001:0004d290       ??0__crt_scoped_get_last_error_reset@@QEAA@XZ 000000018004e290 f i libucrtd:output.obj
 0001:0004d2b0       ??0__crt_stdio_stream@@QEAA@QEAU_iobuf@@@Z 000000018004e2b0 f i libucrtd:output.obj
 0001:0004d2d0       ??0formatting_buffer@__crt_stdio_output@@QEAA@XZ 000000018004e2d0 f i libucrtd:output.obj
 0001:0004d310       ??0guard@?$cached@H@__crt_cached_ptd_host@@QEAA@AEAU12@@Z 000000018004e310 f i libucrtd:output.obj
 0001:0004d350       ??1?$c_string_character_source@D@__crt_strtox@@QEAA@XZ 000000018004e350 f i libucrtd:output.obj
 0001:0004d380       ??1?$c_string_character_source@_W@__crt_strtox@@QEAA@XZ 000000018004e380 f i libucrtd:output.obj
 0001:0004d3b0       ??1?$common_data@D@__crt_stdio_output@@QEAA@XZ 000000018004e3b0 f i libucrtd:output.obj
 0001:0004d3d0       ??1?$common_data@_W@__crt_stdio_output@@QEAA@XZ 000000018004e3d0 f i libucrtd:output.obj
 0001:0004d3f0       ??1?$format_validation_base@DV?$stream_output_adapter@D@__crt_stdio_output@@@__crt_stdio_output@@QEAA@XZ 000000018004e3f0 f i libucrtd:output.obj
 0001:0004d410       ??1?$format_validation_base@DV?$string_output_adapter@D@__crt_stdio_output@@@__crt_stdio_output@@QEAA@XZ 000000018004e410 f i libucrtd:output.obj
 0001:0004d430       ??1?$format_validation_base@_WV?$stream_output_adapter@_W@__crt_stdio_output@@@__crt_stdio_output@@QEAA@XZ 000000018004e430 f i libucrtd:output.obj
 0001:0004d450       ??1?$format_validation_base@_WV?$string_output_adapter@_W@__crt_stdio_output@@@__crt_stdio_output@@QEAA@XZ 000000018004e450 f i libucrtd:output.obj
 0001:0004d470       ??1?$output_adapter_data@DV?$stream_output_adapter@D@__crt_stdio_output@@@__crt_stdio_output@@QEAA@XZ 000000018004e470 f i libucrtd:output.obj
 0001:0004d490       ??1?$output_adapter_data@DV?$string_output_adapter@D@__crt_stdio_output@@@__crt_stdio_output@@QEAA@XZ 000000018004e490 f i libucrtd:output.obj
 0001:0004d4b0       ??1?$output_adapter_data@_WV?$stream_output_adapter@_W@__crt_stdio_output@@@__crt_stdio_output@@QEAA@XZ 000000018004e4b0 f i libucrtd:output.obj
 0001:0004d4d0       ??1?$output_adapter_data@_WV?$string_output_adapter@_W@__crt_stdio_output@@@__crt_stdio_output@@QEAA@XZ 000000018004e4d0 f i libucrtd:output.obj
 0001:0004d4f0       ??1?$output_processor@DV?$stream_output_adapter@D@__crt_stdio_output@@V?$format_validation_base@DV?$stream_output_adapter@D@__crt_stdio_output@@@2@@__crt_stdio_output@@QEAA@XZ 000000018004e4f0 f i libucrtd:output.obj
 0001:0004d510       ??1?$output_processor@DV?$stream_output_adapter@D@__crt_stdio_output@@V?$positional_parameter_base@DV?$stream_output_adapter@D@__crt_stdio_output@@@2@@__crt_stdio_output@@QEAA@XZ 000000018004e510 f i libucrtd:output.obj
 0001:0004d530       ??1?$output_processor@DV?$stream_output_adapter@D@__crt_stdio_output@@V?$standard_base@DV?$stream_output_adapter@D@__crt_stdio_output@@@2@@__crt_stdio_output@@QEAA@XZ 000000018004e530 f i libucrtd:output.obj
 0001:0004d550       ??1?$output_processor@DV?$string_output_adapter@D@__crt_stdio_output@@V?$format_validation_base@DV?$string_output_adapter@D@__crt_stdio_output@@@2@@__crt_stdio_output@@QEAA@XZ 000000018004e550 f i libucrtd:output.obj
 0001:0004d570       ??1?$output_processor@DV?$string_output_adapter@D@__crt_stdio_output@@V?$positional_parameter_base@DV?$string_output_adapter@D@__crt_stdio_output@@@2@@__crt_stdio_output@@QEAA@XZ 000000018004e570 f i libucrtd:output.obj
 0001:0004d590       ??1?$output_processor@DV?$string_output_adapter@D@__crt_stdio_output@@V?$standard_base@DV?$string_output_adapter@D@__crt_stdio_output@@@2@@__crt_stdio_output@@QEAA@XZ 000000018004e590 f i libucrtd:output.obj
 0001:0004d5b0       ??1?$output_processor@_WV?$stream_output_adapter@_W@__crt_stdio_output@@V?$format_validation_base@_WV?$stream_output_adapter@_W@__crt_stdio_output@@@2@@__crt_stdio_output@@QEAA@XZ 000000018004e5b0 f i libucrtd:output.obj
 0001:0004d5d0       ??1?$output_processor@_WV?$stream_output_adapter@_W@__crt_stdio_output@@V?$positional_parameter_base@_WV?$stream_output_adapter@_W@__crt_stdio_output@@@2@@__crt_stdio_output@@QEAA@XZ 000000018004e5d0 f i libucrtd:output.obj
 0001:0004d5f0       ??1?$output_processor@_WV?$stream_output_adapter@_W@__crt_stdio_output@@V?$standard_base@_WV?$stream_output_adapter@_W@__crt_stdio_output@@@2@@__crt_stdio_output@@QEAA@XZ 000000018004e5f0 f i libucrtd:output.obj
 0001:0004d610       ??1?$output_processor@_WV?$string_output_adapter@_W@__crt_stdio_output@@V?$format_validation_base@_WV?$string_output_adapter@_W@__crt_stdio_output@@@2@@__crt_stdio_output@@QEAA@XZ 000000018004e610 f i libucrtd:output.obj
 0001:0004d630       ??1?$output_processor@_WV?$string_output_adapter@_W@__crt_stdio_output@@V?$positional_parameter_base@_WV?$string_output_adapter@_W@__crt_stdio_output@@@2@@__crt_stdio_output@@QEAA@XZ 000000018004e630 f i libucrtd:output.obj
 0001:0004d650       ??1?$output_processor@_WV?$string_output_adapter@_W@__crt_stdio_output@@V?$standard_base@_WV?$string_output_adapter@_W@__crt_stdio_output@@@2@@__crt_stdio_output@@QEAA@XZ 000000018004e650 f i libucrtd:output.obj
 0001:0004d670       ??1?$positional_parameter_base@DV?$stream_output_adapter@D@__crt_stdio_output@@@__crt_stdio_output@@QEAA@XZ 000000018004e670 f i libucrtd:output.obj
 0001:0004d690       ??1?$positional_parameter_base@DV?$string_output_adapter@D@__crt_stdio_output@@@__crt_stdio_output@@QEAA@XZ 000000018004e690 f i libucrtd:output.obj
 0001:0004d6b0       ??1?$positional_parameter_base@_WV?$stream_output_adapter@_W@__crt_stdio_output@@@__crt_stdio_output@@QEAA@XZ 000000018004e6b0 f i libucrtd:output.obj
 0001:0004d6d0       ??1?$positional_parameter_base@_WV?$string_output_adapter@_W@__crt_stdio_output@@@__crt_stdio_output@@QEAA@XZ 000000018004e6d0 f i libucrtd:output.obj
 0001:0004d6f0       ??1?$standard_base@DV?$stream_output_adapter@D@__crt_stdio_output@@@__crt_stdio_output@@QEAA@XZ 000000018004e6f0 f i libucrtd:output.obj
 0001:0004d710       ??1?$standard_base@DV?$string_output_adapter@D@__crt_stdio_output@@@__crt_stdio_output@@QEAA@XZ 000000018004e710 f i libucrtd:output.obj
 0001:0004d730       ??1?$standard_base@_WV?$stream_output_adapter@_W@__crt_stdio_output@@@__crt_stdio_output@@QEAA@XZ 000000018004e730 f i libucrtd:output.obj
 0001:0004d750       ??1?$standard_base@_WV?$string_output_adapter@_W@__crt_stdio_output@@@__crt_stdio_output@@QEAA@XZ 000000018004e750 f i libucrtd:output.obj
 0001:0004d770       ??1__acrt_stdio_temporary_buffering_guard@@QEAA@XZ 000000018004e770 f i libucrtd:output.obj
 0001:0004d7a0       ??1__crt_cached_ptd_host@@QEAA@XZ 000000018004e7a0 f i libucrtd:output.obj
 0001:0004d850       ??1__crt_scoped_get_last_error_reset@@QEAA@XZ 000000018004e850 f i libucrtd:output.obj
 0001:0004d870       ??1formatting_buffer@__crt_stdio_output@@QEAA@XZ 000000018004e870 f i libucrtd:output.obj
 0001:0004d8a0       ??1guard@?$cached@H@__crt_cached_ptd_host@@QEAA@XZ 000000018004e8a0 f i libucrtd:output.obj
 0001:0004d8d0       ??4?$__crt_unique_heap_ptr@DU__crt_internal_free_policy@@@@QEAAAEAV0@$$QEAV0@@Z 000000018004e8d0 f i libucrtd:output.obj
 0001:0004d910       ??A?$spectre_mitigated_lookup_table@Ustate_transition_pair@__crt_stdio_output@@$0IA@@__crt_stdio_output@@QEBAAEBUstate_transition_pair@1@_K@Z 000000018004e910 f i libucrtd:output.obj
 0001:0004d930       ??C__crt_stdio_stream@@QEBAPEAU__crt_stdio_stream_data@@XZ 000000018004e930 f i libucrtd:output.obj
 0001:0004e180       ?adjust_hexit@?$output_processor@DV?$stream_output_adapter@D@__crt_stdio_output@@V?$format_validation_base@DV?$stream_output_adapter@D@__crt_stdio_output@@@2@@__crt_stdio_output@@CADH_N@Z 000000018004f180 f i libucrtd:output.obj
 0001:0004e1d0       ?adjust_hexit@?$output_processor@DV?$stream_output_adapter@D@__crt_stdio_output@@V?$positional_parameter_base@DV?$stream_output_adapter@D@__crt_stdio_output@@@2@@__crt_stdio_output@@CADH_N@Z 000000018004f1d0 f i libucrtd:output.obj
 0001:0004e220       ?adjust_hexit@?$output_processor@DV?$stream_output_adapter@D@__crt_stdio_output@@V?$standard_base@DV?$stream_output_adapter@D@__crt_stdio_output@@@2@@__crt_stdio_output@@CADH_N@Z 000000018004f220 f i libucrtd:output.obj
 0001:0004e270       ?adjust_hexit@?$output_processor@DV?$string_output_adapter@D@__crt_stdio_output@@V?$format_validation_base@DV?$string_output_adapter@D@__crt_stdio_output@@@2@@__crt_stdio_output@@CADH_N@Z 000000018004f270 f i libucrtd:output.obj
 0001:0004e2c0       ?adjust_hexit@?$output_processor@DV?$string_output_adapter@D@__crt_stdio_output@@V?$positional_parameter_base@DV?$string_output_adapter@D@__crt_stdio_output@@@2@@__crt_stdio_output@@CADH_N@Z 000000018004f2c0 f i libucrtd:output.obj
 0001:0004e310       ?adjust_hexit@?$output_processor@DV?$string_output_adapter@D@__crt_stdio_output@@V?$standard_base@DV?$string_output_adapter@D@__crt_stdio_output@@@2@@__crt_stdio_output@@CADH_N@Z 000000018004f310 f i libucrtd:output.obj
 0001:0004e360       ?adjust_hexit@?$output_processor@_WV?$stream_output_adapter@_W@__crt_stdio_output@@V?$format_validation_base@_WV?$stream_output_adapter@_W@__crt_stdio_output@@@2@@__crt_stdio_output@@CADH_N@Z 000000018004f360 f i libucrtd:output.obj
 0001:0004e3b0       ?adjust_hexit@?$output_processor@_WV?$stream_output_adapter@_W@__crt_stdio_output@@V?$positional_parameter_base@_WV?$stream_output_adapter@_W@__crt_stdio_output@@@2@@__crt_stdio_output@@CADH_N@Z 000000018004f3b0 f i libucrtd:output.obj
 0001:0004e400       ?adjust_hexit@?$output_processor@_WV?$stream_output_adapter@_W@__crt_stdio_output@@V?$standard_base@_WV?$stream_output_adapter@_W@__crt_stdio_output@@@2@@__crt_stdio_output@@CADH_N@Z 000000018004f400 f i libucrtd:output.obj
 0001:0004e450       ?adjust_hexit@?$output_processor@_WV?$string_output_adapter@_W@__crt_stdio_output@@V?$format_validation_base@_WV?$string_output_adapter@_W@__crt_stdio_output@@@2@@__crt_stdio_output@@CADH_N@Z 000000018004f450 f i libucrtd:output.obj
 0001:0004e4a0       ?adjust_hexit@?$output_processor@_WV?$string_output_adapter@_W@__crt_stdio_output@@V?$positional_parameter_base@_WV?$string_output_adapter@_W@__crt_stdio_output@@@2@@__crt_stdio_output@@CADH_N@Z 000000018004f4a0 f i libucrtd:output.obj
 0001:0004e4f0       ?adjust_hexit@?$output_processor@_WV?$string_output_adapter@_W@__crt_stdio_output@@V?$standard_base@_WV?$string_output_adapter@_W@__crt_stdio_output@@@2@@__crt_stdio_output@@CADH_N@Z 000000018004f4f0 f i libucrtd:output.obj
 0001:0004e540       ?advance_to_next_pass@?$positional_parameter_base@DV?$stream_output_adapter@D@__crt_stdio_output@@@__crt_stdio_output@@IEAA_NXZ 000000018004f540 f i libucrtd:output.obj
 0001:0004e5f0       ?advance_to_next_pass@?$positional_parameter_base@DV?$string_output_adapter@D@__crt_stdio_output@@@__crt_stdio_output@@IEAA_NXZ 000000018004f5f0 f i libucrtd:output.obj
 0001:0004e6a0       ?advance_to_next_pass@?$positional_parameter_base@_WV?$stream_output_adapter@_W@__crt_stdio_output@@@__crt_stdio_output@@IEAA_NXZ 000000018004f6a0 f i libucrtd:output.obj
 0001:0004e750       ?advance_to_next_pass@?$positional_parameter_base@_WV?$string_output_adapter@_W@__crt_stdio_output@@@__crt_stdio_output@@IEAA_NXZ 000000018004f750 f i libucrtd:output.obj
 0001:0004e800       ?advance_to_next_pass@?$standard_base@DV?$stream_output_adapter@D@__crt_stdio_output@@@__crt_stdio_output@@IEAA_NXZ 000000018004f800 f i libucrtd:output.obj
 0001:0004e850       ?advance_to_next_pass@?$standard_base@DV?$string_output_adapter@D@__crt_stdio_output@@@__crt_stdio_output@@IEAA_NXZ 000000018004f850 f i libucrtd:output.obj
 0001:0004e8a0       ?advance_to_next_pass@?$standard_base@_WV?$stream_output_adapter@_W@__crt_stdio_output@@@__crt_stdio_output@@IEAA_NXZ 000000018004f8a0 f i libucrtd:output.obj
 0001:0004e8f0       ?advance_to_next_pass@?$standard_base@_WV?$string_output_adapter@_W@__crt_stdio_output@@@__crt_stdio_output@@IEAA_NXZ 000000018004f8f0 f i libucrtd:output.obj
 0001:0004e940       ?check@?$cached@H@__crt_cached_ptd_host@@QEBA_NH@Z 000000018004f940 f i libucrtd:output.obj
 0001:0004e980       ?check_synchronize_global_state_index@__crt_cached_ptd_host@@AEAA_KAEBV__crt_scoped_get_last_error_reset@@@Z 000000018004f980 f i libucrtd:output.obj
 0001:0004e9c0       ?check_synchronize_per_thread_data@__crt_cached_ptd_host@@AEAAPEAU__acrt_ptd@@XZ 000000018004f9c0 f i libucrtd:output.obj
 0001:0004ea00       ?create_guard@?$cached@H@__crt_cached_ptd_host@@QEAA?AVguard@12@XZ 000000018004fa00 f i libucrtd:output.obj
 0001:0004ea30       ?crop_zeroes@__crt_stdio_output@@YAXPEADQEAU__crt_locale_pointers@@@Z 000000018004fa30 f i libucrtd:output.obj
 0001:0004eb80       ?disable@guard@?$cached@H@__crt_cached_ptd_host@@QEAAXXZ 000000018004fb80 f i libucrtd:output.obj
 0001:0004eb90       ?enable@guard@?$cached@H@__crt_cached_ptd_host@@QEAAXXZ 000000018004fb90 f i libucrtd:output.obj
 0001:0004eba0       ?find_next_state@?$output_processor@DV?$stream_output_adapter@D@__crt_stdio_output@@V?$format_validation_base@DV?$stream_output_adapter@D@__crt_stdio_output@@@2@@__crt_stdio_output@@AEBA?AW4state@2@DW432@@Z 000000018004fba0 f i libucrtd:output.obj
 0001:0004ec40       ?find_next_state@?$output_processor@DV?$stream_output_adapter@D@__crt_stdio_output@@V?$positional_parameter_base@DV?$stream_output_adapter@D@__crt_stdio_output@@@2@@__crt_stdio_output@@AEBA?AW4state@2@DW432@@Z 000000018004fc40 f i libucrtd:output.obj
 0001:0004ece0       ?find_next_state@?$output_processor@DV?$stream_output_adapter@D@__crt_stdio_output@@V?$standard_base@DV?$stream_output_adapter@D@__crt_stdio_output@@@2@@__crt_stdio_output@@AEBA?AW4state@2@DW432@@Z 000000018004fce0 f i libucrtd:output.obj
 0001:0004ed80       ?find_next_state@?$output_processor@DV?$string_output_adapter@D@__crt_stdio_output@@V?$format_validation_base@DV?$string_output_adapter@D@__crt_stdio_output@@@2@@__crt_stdio_output@@AEBA?AW4state@2@DW432@@Z 000000018004fd80 f i libucrtd:output.obj
 0001:0004ee20       ?find_next_state@?$output_processor@DV?$string_output_adapter@D@__crt_stdio_output@@V?$positional_parameter_base@DV?$string_output_adapter@D@__crt_stdio_output@@@2@@__crt_stdio_output@@AEBA?AW4state@2@DW432@@Z 000000018004fe20 f i libucrtd:output.obj
 0001:0004eec0       ?find_next_state@?$output_processor@DV?$string_output_adapter@D@__crt_stdio_output@@V?$standard_base@DV?$string_output_adapter@D@__crt_stdio_output@@@2@@__crt_stdio_output@@AEBA?AW4state@2@DW432@@Z 000000018004fec0 f i libucrtd:output.obj
 0001:0004ef60       ?find_next_state@?$output_processor@_WV?$stream_output_adapter@_W@__crt_stdio_output@@V?$format_validation_base@_WV?$stream_output_adapter@_W@__crt_stdio_output@@@2@@__crt_stdio_output@@AEBA?AW4state@2@_WW432@@Z 000000018004ff60 f i libucrtd:output.obj
 0001:0004f000       ?find_next_state@?$output_processor@_WV?$stream_output_adapter@_W@__crt_stdio_output@@V?$positional_parameter_base@_WV?$stream_output_adapter@_W@__crt_stdio_output@@@2@@__crt_stdio_output@@AEBA?AW4state@2@_WW432@@Z 0000000180050000 f i libucrtd:output.obj
 0001:0004f0a0       ?find_next_state@?$output_processor@_WV?$stream_output_adapter@_W@__crt_stdio_output@@V?$standard_base@_WV?$stream_output_adapter@_W@__crt_stdio_output@@@2@@__crt_stdio_output@@AEBA?AW4state@2@_WW432@@Z 00000001800500a0 f i libucrtd:output.obj
 0001:0004f140       ?find_next_state@?$output_processor@_WV?$string_output_adapter@_W@__crt_stdio_output@@V?$format_validation_base@_WV?$string_output_adapter@_W@__crt_stdio_output@@@2@@__crt_stdio_output@@AEBA?AW4state@2@_WW432@@Z 0000000180050140 f i libucrtd:output.obj
 0001:0004f1e0       ?find_next_state@?$output_processor@_WV?$string_output_adapter@_W@__crt_stdio_output@@V?$positional_parameter_base@_WV?$string_output_adapter@_W@__crt_stdio_output@@@2@@__crt_stdio_output@@AEBA?AW4state@2@_WW432@@Z 00000001800501e0 f i libucrtd:output.obj
 0001:0004f280       ?find_next_state@?$output_processor@_WV?$string_output_adapter@_W@__crt_stdio_output@@V?$standard_base@_WV?$string_output_adapter@_W@__crt_stdio_output@@@2@@__crt_stdio_output@@AEBA?AW4state@2@_WW432@@Z 0000000180050280 f i libucrtd:output.obj
 0001:0004f320       ?force_decimal_point@__crt_stdio_output@@YAXPEADQEAU__crt_locale_pointers@@@Z 0000000180050320 f i libucrtd:output.obj
 0001:0004f420       ?force_synchronize_global_state_index@__crt_cached_ptd_host@@AEAA_KAEBV__crt_scoped_get_last_error_reset@@@Z 0000000180050420 f i libucrtd:output.obj
 0001:0004f460       ?force_synchronize_per_thread_data@__crt_cached_ptd_host@@AEAAPEAU__acrt_ptd@@XZ 0000000180050460 f i libucrtd:output.obj
 0001:0004f4c0       ?get@?$c_string_character_source@D@__crt_strtox@@QEAADXZ 00000001800504c0 f i libucrtd:output.obj
 0001:0004f500       ?get@?$c_string_character_source@_W@__crt_strtox@@QEAA_WXZ 0000000180050500 f i libucrtd:output.obj
 0001:0004f540       ?get_current_state_index@__crt_state_management@@YA_KAEBV__crt_scoped_get_last_error_reset@@@Z 0000000180050540 f i libucrtd:output.obj
 0001:0004f550       ?get_errno@__crt_cached_ptd_host@@QEAA@XZ 0000000180050550 f i libucrtd:output.obj
 0001:0004f560       ?get_flags@__crt_stdio_stream@@QEBAJXZ 0000000180050560 f i libucrtd:output.obj
 0001:0004f590       ?get_locale@__crt_cached_ptd_host@@QEAAPEAU__crt_locale_pointers@@XZ 0000000180050590 f i libucrtd:output.obj
 0001:0004f5c0       ?get_parameter_type@?$positional_parameter_base@DV?$stream_output_adapter@D@__crt_stdio_output@@@__crt_stdio_output@@CA?AW4parameter_type@12@F@Z 00000001800505c0 f i libucrtd:output.obj
 0001:0004f5d0       ?get_parameter_type@?$positional_parameter_base@DV?$stream_output_adapter@D@__crt_stdio_output@@@__crt_stdio_output@@CA?AW4parameter_type@12@G@Z 00000001800505d0 f i libucrtd:output.obj
 0001:0004f5e0       ?get_parameter_type@?$positional_parameter_base@DV?$stream_output_adapter@D@__crt_stdio_output@@@__crt_stdio_output@@CA?AW4parameter_type@12@H@Z 00000001800505e0 f i libucrtd:output.obj
 0001:0004f5f0       ?get_parameter_type@?$positional_parameter_base@DV?$stream_output_adapter@D@__crt_stdio_output@@@__crt_stdio_output@@CA?AW4parameter_type@12@I@Z 00000001800505f0 f i libucrtd:output.obj
 0001:0004f600       ?get_parameter_type@?$positional_parameter_base@DV?$stream_output_adapter@D@__crt_stdio_output@@@__crt_stdio_output@@CA?AW4parameter_type@12@U_CRT_DOUBLE@@@Z 0000000180050600 f i libucrtd:output.obj
 0001:0004f610       ?get_parameter_type@?$positional_parameter_base@DV?$stream_output_adapter@D@__crt_stdio_output@@@__crt_stdio_output@@CA?AW4parameter_type@12@_J@Z 0000000180050610 f i libucrtd:output.obj
 0001:0004f620       ?get_parameter_type@?$positional_parameter_base@DV?$stream_output_adapter@D@__crt_stdio_output@@@__crt_stdio_output@@CA?AW4parameter_type@12@_K@Z 0000000180050620 f i libucrtd:output.obj
 0001:0004f630       ?get_parameter_type@?$positional_parameter_base@DV?$stream_output_adapter@D@__crt_stdio_output@@@__crt_stdio_output@@CA?AW4parameter_type@12@_W@Z 0000000180050630 f i libucrtd:output.obj
 0001:0004f640       ?get_parameter_type@?$positional_parameter_base@DV?$string_output_adapter@D@__crt_stdio_output@@@__crt_stdio_output@@CA?AW4parameter_type@12@F@Z 0000000180050640 f i libucrtd:output.obj
 0001:0004f650       ?get_parameter_type@?$positional_parameter_base@DV?$string_output_adapter@D@__crt_stdio_output@@@__crt_stdio_output@@CA?AW4parameter_type@12@G@Z 0000000180050650 f i libucrtd:output.obj
 0001:0004f660       ?get_parameter_type@?$positional_parameter_base@DV?$string_output_adapter@D@__crt_stdio_output@@@__crt_stdio_output@@CA?AW4parameter_type@12@H@Z 0000000180050660 f i libucrtd:output.obj
 0001:0004f670       ?get_parameter_type@?$positional_parameter_base@DV?$string_output_adapter@D@__crt_stdio_output@@@__crt_stdio_output@@CA?AW4parameter_type@12@I@Z 0000000180050670 f i libucrtd:output.obj
 0001:0004f680       ?get_parameter_type@?$positional_parameter_base@DV?$string_output_adapter@D@__crt_stdio_output@@@__crt_stdio_output@@CA?AW4parameter_type@12@U_CRT_DOUBLE@@@Z 0000000180050680 f i libucrtd:output.obj
 0001:0004f690       ?get_parameter_type@?$positional_parameter_base@DV?$string_output_adapter@D@__crt_stdio_output@@@__crt_stdio_output@@CA?AW4parameter_type@12@_J@Z 0000000180050690 f i libucrtd:output.obj
 0001:0004f6a0       ?get_parameter_type@?$positional_parameter_base@DV?$string_output_adapter@D@__crt_stdio_output@@@__crt_stdio_output@@CA?AW4parameter_type@12@_K@Z 00000001800506a0 f i libucrtd:output.obj
 0001:0004f6b0       ?get_parameter_type@?$positional_parameter_base@DV?$string_output_adapter@D@__crt_stdio_output@@@__crt_stdio_output@@CA?AW4parameter_type@12@_W@Z 00000001800506b0 f i libucrtd:output.obj
 0001:0004f6c0       ?get_parameter_type@?$positional_parameter_base@_WV?$stream_output_adapter@_W@__crt_stdio_output@@@__crt_stdio_output@@CA?AW4parameter_type@12@F@Z 00000001800506c0 f i libucrtd:output.obj
 0001:0004f6d0       ?get_parameter_type@?$positional_parameter_base@_WV?$stream_output_adapter@_W@__crt_stdio_output@@@__crt_stdio_output@@CA?AW4parameter_type@12@G@Z 00000001800506d0 f i libucrtd:output.obj
 0001:0004f6e0       ?get_parameter_type@?$positional_parameter_base@_WV?$stream_output_adapter@_W@__crt_stdio_output@@@__crt_stdio_output@@CA?AW4parameter_type@12@H@Z 00000001800506e0 f i libucrtd:output.obj
 0001:0004f6f0       ?get_parameter_type@?$positional_parameter_base@_WV?$stream_output_adapter@_W@__crt_stdio_output@@@__crt_stdio_output@@CA?AW4parameter_type@12@I@Z 00000001800506f0 f i libucrtd:output.obj
 0001:0004f700       ?get_parameter_type@?$positional_parameter_base@_WV?$stream_output_adapter@_W@__crt_stdio_output@@@__crt_stdio_output@@CA?AW4parameter_type@12@U_CRT_DOUBLE@@@Z 0000000180050700 f i libucrtd:output.obj
 0001:0004f710       ?get_parameter_type@?$positional_parameter_base@_WV?$stream_output_adapter@_W@__crt_stdio_output@@@__crt_stdio_output@@CA?AW4parameter_type@12@_J@Z 0000000180050710 f i libucrtd:output.obj
 0001:0004f720       ?get_parameter_type@?$positional_parameter_base@_WV?$stream_output_adapter@_W@__crt_stdio_output@@@__crt_stdio_output@@CA?AW4parameter_type@12@_K@Z 0000000180050720 f i libucrtd:output.obj
 0001:0004f730       ?get_parameter_type@?$positional_parameter_base@_WV?$stream_output_adapter@_W@__crt_stdio_output@@@__crt_stdio_output@@CA?AW4parameter_type@12@_W@Z 0000000180050730 f i libucrtd:output.obj
 0001:0004f740       ?get_parameter_type@?$positional_parameter_base@_WV?$string_output_adapter@_W@__crt_stdio_output@@@__crt_stdio_output@@CA?AW4parameter_type@12@F@Z 0000000180050740 f i libucrtd:output.obj
 0001:0004f750       ?get_parameter_type@?$positional_parameter_base@_WV?$string_output_adapter@_W@__crt_stdio_output@@@__crt_stdio_output@@CA?AW4parameter_type@12@G@Z 0000000180050750 f i libucrtd:output.obj
 0001:0004f760       ?get_parameter_type@?$positional_parameter_base@_WV?$string_output_adapter@_W@__crt_stdio_output@@@__crt_stdio_output@@CA?AW4parameter_type@12@H@Z 0000000180050760 f i libucrtd:output.obj
 0001:0004f770       ?get_parameter_type@?$positional_parameter_base@_WV?$string_output_adapter@_W@__crt_stdio_output@@@__crt_stdio_output@@CA?AW4parameter_type@12@I@Z 0000000180050770 f i libucrtd:output.obj
 0001:0004f780       ?get_parameter_type@?$positional_parameter_base@_WV?$string_output_adapter@_W@__crt_stdio_output@@@__crt_stdio_output@@CA?AW4parameter_type@12@U_CRT_DOUBLE@@@Z 0000000180050780 f i libucrtd:output.obj
 0001:0004f790       ?get_parameter_type@?$positional_parameter_base@_WV?$string_output_adapter@_W@__crt_stdio_output@@@__crt_stdio_output@@CA?AW4parameter_type@12@_J@Z 0000000180050790 f i libucrtd:output.obj
 0001:0004f7a0       ?get_parameter_type@?$positional_parameter_base@_WV?$string_output_adapter@_W@__crt_stdio_output@@@__crt_stdio_output@@CA?AW4parameter_type@12@_K@Z 00000001800507a0 f i libucrtd:output.obj
 0001:0004f7b0       ?get_parameter_type@?$positional_parameter_base@_WV?$string_output_adapter@_W@__crt_stdio_output@@@__crt_stdio_output@@CA?AW4parameter_type@12@_W@Z 00000001800507b0 f i libucrtd:output.obj
 0001:0004f7c0       ?get_raw_ptd@__crt_cached_ptd_host@@QEAAPEAU__acrt_ptd@@XZ 00000001800507c0 f i libucrtd:output.obj
 0001:0004f7e0       ?has_flag@?$output_processor@DV?$stream_output_adapter@D@__crt_stdio_output@@V?$format_validation_base@DV?$stream_output_adapter@D@__crt_stdio_output@@@2@@__crt_stdio_output@@AEBA_NI@Z 00000001800507e0 f i libucrtd:output.obj
 0001:0004f820       ?has_flag@?$output_processor@DV?$stream_output_adapter@D@__crt_stdio_output@@V?$positional_parameter_base@DV?$stream_output_adapter@D@__crt_stdio_output@@@2@@__crt_stdio_output@@AEBA_NI@Z 0000000180050820 f i libucrtd:output.obj
 0001:0004f860       ?has_flag@?$output_processor@DV?$stream_output_adapter@D@__crt_stdio_output@@V?$standard_base@DV?$stream_output_adapter@D@__crt_stdio_output@@@2@@__crt_stdio_output@@AEBA_NI@Z 0000000180050860 f i libucrtd:output.obj
 0001:0004f8a0       ?has_flag@?$output_processor@DV?$string_output_adapter@D@__crt_stdio_output@@V?$format_validation_base@DV?$string_output_adapter@D@__crt_stdio_output@@@2@@__crt_stdio_output@@AEBA_NI@Z 00000001800508a0 f i libucrtd:output.obj
 0001:0004f8e0       ?has_flag@?$output_processor@DV?$string_output_adapter@D@__crt_stdio_output@@V?$positional_parameter_base@DV?$string_output_adapter@D@__crt_stdio_output@@@2@@__crt_stdio_output@@AEBA_NI@Z 00000001800508e0 f i libucrtd:output.obj
 0001:0004f920       ?has_flag@?$output_processor@DV?$string_output_adapter@D@__crt_stdio_output@@V?$standard_base@DV?$string_output_adapter@D@__crt_stdio_output@@@2@@__crt_stdio_output@@AEBA_NI@Z 0000000180050920 f i libucrtd:output.obj
 0001:0004f960       ?has_flag@?$output_processor@_WV?$stream_output_adapter@_W@__crt_stdio_output@@V?$format_validation_base@_WV?$stream_output_adapter@_W@__crt_stdio_output@@@2@@__crt_stdio_output@@AEBA_NI@Z 0000000180050960 f i libucrtd:output.obj
 0001:0004f9a0       ?has_flag@?$output_processor@_WV?$stream_output_adapter@_W@__crt_stdio_output@@V?$positional_parameter_base@_WV?$stream_output_adapter@_W@__crt_stdio_output@@@2@@__crt_stdio_output@@AEBA_NI@Z 00000001800509a0 f i libucrtd:output.obj
 0001:0004f9e0       ?has_flag@?$output_processor@_WV?$stream_output_adapter@_W@__crt_stdio_output@@V?$standard_base@_WV?$stream_output_adapter@_W@__crt_stdio_output@@@2@@__crt_stdio_output@@AEBA_NI@Z 00000001800509e0 f i libucrtd:output.obj
 0001:0004fa20       ?has_flag@?$output_processor@_WV?$string_output_adapter@_W@__crt_stdio_output@@V?$format_validation_base@_WV?$string_output_adapter@_W@__crt_stdio_output@@@2@@__crt_stdio_output@@AEBA_NI@Z 0000000180050a20 f i libucrtd:output.obj
 0001:0004fa60       ?has_flag@?$output_processor@_WV?$string_output_adapter@_W@__crt_stdio_output@@V?$positional_parameter_base@_WV?$string_output_adapter@_W@__crt_stdio_output@@@2@@__crt_stdio_output@@AEBA_NI@Z 0000000180050a60 f i libucrtd:output.obj
 0001:0004faa0       ?has_flag@?$output_processor@_WV?$string_output_adapter@_W@__crt_stdio_output@@V?$standard_base@_WV?$string_output_adapter@_W@__crt_stdio_output@@@2@@__crt_stdio_output@@AEBA_NI@Z 0000000180050aa0 f i libucrtd:output.obj
 0001:0004fae0       ?is_positional_parameter_reappearance_consistent@?$positional_parameter_base@DV?$stream_output_adapter@D@__crt_stdio_output@@@__crt_stdio_output@@AEAA_NAEBUparameter_data@12@W4parameter_type@12@DW4length_modifier@2@@Z 0000000180050ae0 f i libucrtd:output.obj
 0001:0004fd40       ?is_positional_parameter_reappearance_consistent@?$positional_parameter_base@DV?$string_output_adapter@D@__crt_stdio_output@@@__crt_stdio_output@@AEAA_NAEBUparameter_data@12@W4parameter_type@12@DW4length_modifier@2@@Z 0000000180050d40 f i libucrtd:output.obj
 0001:0004ffa0       ?is_positional_parameter_reappearance_consistent@?$positional_parameter_base@_WV?$stream_output_adapter@_W@__crt_stdio_output@@@__crt_stdio_output@@AEAA_NAEBUparameter_data@12@W4parameter_type@12@_WW4length_modifier@2@@Z 0000000180050fa0 f i libucrtd:output.obj
 0001:00050200       ?is_positional_parameter_reappearance_consistent@?$positional_parameter_base@_WV?$string_output_adapter@_W@__crt_stdio_output@@@__crt_stdio_output@@AEAA_NAEBUparameter_data@12@W4parameter_type@12@_WW4length_modifier@2@@Z 0000000180051200 f i libucrtd:output.obj
 0001:00050460       ?is_string_backed@__crt_stdio_stream@@QEBA_NXZ 0000000180051460 f i libucrtd:output.obj
 0001:000504a0       ?maximum_signed_value@__crt_strtox@@YAJK@Z 00000001800514a0 f i libucrtd:output.obj
 0001:000504b0       ?minimum_signed_value@__crt_strtox@@YAJK@Z 00000001800514b0 f i libucrtd:output.obj
 0001:000504c0       ?narrow_null_string@?$output_processor@DV?$stream_output_adapter@D@__crt_stdio_output@@V?$format_validation_base@DV?$stream_output_adapter@D@__crt_stdio_output@@@2@@__crt_stdio_output@@CAPEADXZ 00000001800514c0 f i libucrtd:output.obj
 0001:000504d0       ?narrow_null_string@?$output_processor@DV?$stream_output_adapter@D@__crt_stdio_output@@V?$positional_parameter_base@DV?$stream_output_adapter@D@__crt_stdio_output@@@2@@__crt_stdio_output@@CAPEADXZ 00000001800514d0 f i libucrtd:output.obj
 0001:000504e0       ?narrow_null_string@?$output_processor@DV?$stream_output_adapter@D@__crt_stdio_output@@V?$standard_base@DV?$stream_output_adapter@D@__crt_stdio_output@@@2@@__crt_stdio_output@@CAPEADXZ 00000001800514e0 f i libucrtd:output.obj
 0001:000504f0       ?narrow_null_string@?$output_processor@DV?$string_output_adapter@D@__crt_stdio_output@@V?$format_validation_base@DV?$string_output_adapter@D@__crt_stdio_output@@@2@@__crt_stdio_output@@CAPEADXZ 00000001800514f0 f i libucrtd:output.obj
 0001:00050500       ?narrow_null_string@?$output_processor@DV?$string_output_adapter@D@__crt_stdio_output@@V?$positional_parameter_base@DV?$string_output_adapter@D@__crt_stdio_output@@@2@@__crt_stdio_output@@CAPEADXZ 0000000180051500 f i libucrtd:output.obj
 0001:00050510       ?narrow_null_string@?$output_processor@DV?$string_output_adapter@D@__crt_stdio_output@@V?$standard_base@DV?$string_output_adapter@D@__crt_stdio_output@@@2@@__crt_stdio_output@@CAPEADXZ 0000000180051510 f i libucrtd:output.obj
 0001:00050520       ?narrow_null_string@?$output_processor@_WV?$stream_output_adapter@_W@__crt_stdio_output@@V?$format_validation_base@_WV?$stream_output_adapter@_W@__crt_stdio_output@@@2@@__crt_stdio_output@@CAPEADXZ 0000000180051520 f i libucrtd:output.obj
 0001:00050530       ?narrow_null_string@?$output_processor@_WV?$stream_output_adapter@_W@__crt_stdio_output@@V?$positional_parameter_base@_WV?$stream_output_adapter@_W@__crt_stdio_output@@@2@@__crt_stdio_output@@CAPEADXZ 0000000180051530 f i libucrtd:output.obj
 0001:00050540       ?narrow_null_string@?$output_processor@_WV?$stream_output_adapter@_W@__crt_stdio_output@@V?$standard_base@_WV?$stream_output_adapter@_W@__crt_stdio_output@@@2@@__crt_stdio_output@@CAPEADXZ 0000000180051540 f i libucrtd:output.obj
 0001:00050550       ?narrow_null_string@?$output_processor@_WV?$string_output_adapter@_W@__crt_stdio_output@@V?$format_validation_base@_WV?$string_output_adapter@_W@__crt_stdio_output@@@2@@__crt_stdio_output@@CAPEADXZ 0000000180051550 f i libucrtd:output.obj
 0001:00050560       ?narrow_null_string@?$output_processor@_WV?$string_output_adapter@_W@__crt_stdio_output@@V?$positional_parameter_base@_WV?$string_output_adapter@_W@__crt_stdio_output@@@2@@__crt_stdio_output@@CAPEADXZ 0000000180051560 f i libucrtd:output.obj
 0001:00050570       ?narrow_null_string@?$output_processor@_WV?$string_output_adapter@_W@__crt_stdio_output@@V?$standard_base@_WV?$string_output_adapter@_W@__crt_stdio_output@@@2@@__crt_stdio_output@@CAPEADXZ 0000000180051570 f i libucrtd:output.obj
 0001:00050580       ?parse_digit@__crt_strtox@@YAID@Z 0000000180051580 f i libucrtd:output.obj
 0001:000505f0       ?parse_digit@__crt_strtox@@YAI_W@Z 00000001800515f0 f i libucrtd:output.obj
 0001:00050640       ?parse_int_from_format_string@?$output_processor@DV?$stream_output_adapter@D@__crt_stdio_output@@V?$format_validation_base@DV?$stream_output_adapter@D@__crt_stdio_output@@@2@@__crt_stdio_output@@AEAA_NQEAH@Z 0000000180051640 f i libucrtd:output.obj
 0001:00050740       ?parse_int_from_format_string@?$output_processor@DV?$stream_output_adapter@D@__crt_stdio_output@@V?$positional_parameter_base@DV?$stream_output_adapter@D@__crt_stdio_output@@@2@@__crt_stdio_output@@AEAA_NQEAH@Z 0000000180051740 f i libucrtd:output.obj
 0001:00050840       ?parse_int_from_format_string@?$output_processor@DV?$stream_output_adapter@D@__crt_stdio_output@@V?$standard_base@DV?$stream_output_adapter@D@__crt_stdio_output@@@2@@__crt_stdio_output@@AEAA_NQEAH@Z 0000000180051840 f i libucrtd:output.obj
 0001:00050940       ?parse_int_from_format_string@?$output_processor@DV?$string_output_adapter@D@__crt_stdio_output@@V?$format_validation_base@DV?$string_output_adapter@D@__crt_stdio_output@@@2@@__crt_stdio_output@@AEAA_NQEAH@Z 0000000180051940 f i libucrtd:output.obj
 0001:00050a40       ?parse_int_from_format_string@?$output_processor@DV?$string_output_adapter@D@__crt_stdio_output@@V?$positional_parameter_base@DV?$string_output_adapter@D@__crt_stdio_output@@@2@@__crt_stdio_output@@AEAA_NQEAH@Z 0000000180051a40 f i libucrtd:output.obj
 0001:00050b40       ?parse_int_from_format_string@?$output_processor@DV?$string_output_adapter@D@__crt_stdio_output@@V?$standard_base@DV?$string_output_adapter@D@__crt_stdio_output@@@2@@__crt_stdio_output@@AEAA_NQEAH@Z 0000000180051b40 f i libucrtd:output.obj
 0001:00050c40       ?parse_int_from_format_string@?$output_processor@_WV?$stream_output_adapter@_W@__crt_stdio_output@@V?$format_validation_base@_WV?$stream_output_adapter@_W@__crt_stdio_output@@@2@@__crt_stdio_output@@AEAA_NQEAH@Z 0000000180051c40 f i libucrtd:output.obj
 0001:00050d40       ?parse_int_from_format_string@?$output_processor@_WV?$stream_output_adapter@_W@__crt_stdio_output@@V?$positional_parameter_base@_WV?$stream_output_adapter@_W@__crt_stdio_output@@@2@@__crt_stdio_output@@AEAA_NQEAH@Z 0000000180051d40 f i libucrtd:output.obj
 0001:00050e40       ?parse_int_from_format_string@?$output_processor@_WV?$stream_output_adapter@_W@__crt_stdio_output@@V?$standard_base@_WV?$stream_output_adapter@_W@__crt_stdio_output@@@2@@__crt_stdio_output@@AEAA_NQEAH@Z 0000000180051e40 f i libucrtd:output.obj
 0001:00050f40       ?parse_int_from_format_string@?$output_processor@_WV?$string_output_adapter@_W@__crt_stdio_output@@V?$format_validation_base@_WV?$string_output_adapter@_W@__crt_stdio_output@@@2@@__crt_stdio_output@@AEAA_NQEAH@Z 0000000180051f40 f i libucrtd:output.obj
 0001:00051040       ?parse_int_from_format_string@?$output_processor@_WV?$string_output_adapter@_W@__crt_stdio_output@@V?$positional_parameter_base@_WV?$string_output_adapter@_W@__crt_stdio_output@@@2@@__crt_stdio_output@@AEAA_NQEAH@Z 0000000180052040 f i libucrtd:output.obj
 0001:00051140       ?parse_int_from_format_string@?$output_processor@_WV?$string_output_adapter@_W@__crt_stdio_output@@V?$standard_base@_WV?$string_output_adapter@_W@__crt_stdio_output@@@2@@__crt_stdio_output@@AEAA_NQEAH@Z 0000000180052140 f i libucrtd:output.obj
 0001:00051240       ?process@?$output_processor@DV?$stream_output_adapter@D@__crt_stdio_output@@V?$format_validation_base@DV?$stream_output_adapter@D@__crt_stdio_output@@@2@@__crt_stdio_output@@QEAAHXZ 0000000180052240 f i libucrtd:output.obj
 0001:00051600       ?process@?$output_processor@DV?$stream_output_adapter@D@__crt_stdio_output@@V?$positional_parameter_base@DV?$stream_output_adapter@D@__crt_stdio_output@@@2@@__crt_stdio_output@@QEAAHXZ 0000000180052600 f i libucrtd:output.obj
 0001:000519c0       ?process@?$output_processor@DV?$stream_output_adapter@D@__crt_stdio_output@@V?$standard_base@DV?$stream_output_adapter@D@__crt_stdio_output@@@2@@__crt_stdio_output@@QEAAHXZ 00000001800529c0 f i libucrtd:output.obj
 0001:00051d80       ?process@?$output_processor@DV?$string_output_adapter@D@__crt_stdio_output@@V?$format_validation_base@DV?$string_output_adapter@D@__crt_stdio_output@@@2@@__crt_stdio_output@@QEAAHXZ 0000000180052d80 f i libucrtd:output.obj
 0001:00052140       ?process@?$output_processor@DV?$string_output_adapter@D@__crt_stdio_output@@V?$positional_parameter_base@DV?$string_output_adapter@D@__crt_stdio_output@@@2@@__crt_stdio_output@@QEAAHXZ 0000000180053140 f i libucrtd:output.obj
 0001:00052500       ?process@?$output_processor@DV?$string_output_adapter@D@__crt_stdio_output@@V?$standard_base@DV?$string_output_adapter@D@__crt_stdio_output@@@2@@__crt_stdio_output@@QEAAHXZ 0000000180053500 f i libucrtd:output.obj
 0001:000528c0       ?process@?$output_processor@_WV?$stream_output_adapter@_W@__crt_stdio_output@@V?$format_validation_base@_WV?$stream_output_adapter@_W@__crt_stdio_output@@@2@@__crt_stdio_output@@QEAAHXZ 00000001800538c0 f i libucrtd:output.obj
 0001:00052c80       ?process@?$output_processor@_WV?$stream_output_adapter@_W@__crt_stdio_output@@V?$positional_parameter_base@_WV?$stream_output_adapter@_W@__crt_stdio_output@@@2@@__crt_stdio_output@@QEAAHXZ 0000000180053c80 f i libucrtd:output.obj
 0001:00053040       ?process@?$output_processor@_WV?$stream_output_adapter@_W@__crt_stdio_output@@V?$standard_base@_WV?$stream_output_adapter@_W@__crt_stdio_output@@@2@@__crt_stdio_output@@QEAAHXZ 0000000180054040 f i libucrtd:output.obj
 0001:00053400       ?process@?$output_processor@_WV?$string_output_adapter@_W@__crt_stdio_output@@V?$format_validation_base@_WV?$string_output_adapter@_W@__crt_stdio_output@@@2@@__crt_stdio_output@@QEAAHXZ 0000000180054400 f i libucrtd:output.obj
 0001:000537c0       ?process@?$output_processor@_WV?$string_output_adapter@_W@__crt_stdio_output@@V?$positional_parameter_base@_WV?$string_output_adapter@_W@__crt_stdio_output@@@2@@__crt_stdio_output@@QEAAHXZ 00000001800547c0 f i libucrtd:output.obj
 0001:00053b80       ?process@?$output_processor@_WV?$string_output_adapter@_W@__crt_stdio_output@@V?$standard_base@_WV?$string_output_adapter@_W@__crt_stdio_output@@@2@@__crt_stdio_output@@QEAAHXZ 0000000180054b80 f i libucrtd:output.obj
 0001:00053f40       ?public_stream@__crt_stdio_stream@@QEBAPEAU_iobuf@@XZ 0000000180054f40 f i libucrtd:output.obj
 0001:00053f50       ?restore_state@?$c_string_character_source@D@__crt_strtox@@QEAA_NQEBD@Z 0000000180054f50 f i libucrtd:output.obj
 0001:00053f70       ?restore_state@?$c_string_character_source@_W@__crt_strtox@@QEAA_NQEB_W@Z 0000000180054f70 f i libucrtd:output.obj
 0001:00053f90       ?save_state@?$c_string_character_source@D@__crt_strtox@@QEBAPEBDXZ 0000000180054f90 f i libucrtd:output.obj
 0001:00053fa0       ?save_state@?$c_string_character_source@_W@__crt_strtox@@QEBAPEB_WXZ 0000000180054fa0 f i libucrtd:output.obj
 0001:00053fb0       ?set@?$cached@H@__crt_cached_ptd_host@@QEAAHH@Z 0000000180054fb0 f i libucrtd:output.obj
 0001:00053fe0       ?set_flag@?$output_processor@DV?$stream_output_adapter@D@__crt_stdio_output@@V?$format_validation_base@DV?$stream_output_adapter@D@__crt_stdio_output@@@2@@__crt_stdio_output@@AEAAXI@Z 0000000180054fe0 f i libucrtd:output.obj
 0001:00054000       ?set_flag@?$output_processor@DV?$stream_output_adapter@D@__crt_stdio_output@@V?$positional_parameter_base@DV?$stream_output_adapter@D@__crt_stdio_output@@@2@@__crt_stdio_output@@AEAAXI@Z 0000000180055000 f i libucrtd:output.obj
 0001:00054020       ?set_flag@?$output_processor@DV?$stream_output_adapter@D@__crt_stdio_output@@V?$standard_base@DV?$stream_output_adapter@D@__crt_stdio_output@@@2@@__crt_stdio_output@@AEAAXI@Z 0000000180055020 f i libucrtd:output.obj
 0001:00054040       ?set_flag@?$output_processor@DV?$string_output_adapter@D@__crt_stdio_output@@V?$format_validation_base@DV?$string_output_adapter@D@__crt_stdio_output@@@2@@__crt_stdio_output@@AEAAXI@Z 0000000180055040 f i libucrtd:output.obj
 0001:00054060       ?set_flag@?$output_processor@DV?$string_output_adapter@D@__crt_stdio_output@@V?$positional_parameter_base@DV?$string_output_adapter@D@__crt_stdio_output@@@2@@__crt_stdio_output@@AEAAXI@Z 0000000180055060 f i libucrtd:output.obj
 0001:00054080       ?set_flag@?$output_processor@DV?$string_output_adapter@D@__crt_stdio_output@@V?$standard_base@DV?$string_output_adapter@D@__crt_stdio_output@@@2@@__crt_stdio_output@@AEAAXI@Z 0000000180055080 f i libucrtd:output.obj
 0001:000540a0       ?set_flag@?$output_processor@_WV?$stream_output_adapter@_W@__crt_stdio_output@@V?$format_validation_base@_WV?$stream_output_adapter@_W@__crt_stdio_output@@@2@@__crt_stdio_output@@AEAAXI@Z 00000001800550a0 f i libucrtd:output.obj
 0001:000540c0       ?set_flag@?$output_processor@_WV?$stream_output_adapter@_W@__crt_stdio_output@@V?$positional_parameter_base@_WV?$stream_output_adapter@_W@__crt_stdio_output@@@2@@__crt_stdio_output@@AEAAXI@Z 00000001800550c0 f i libucrtd:output.obj
 0001:000540e0       ?set_flag@?$output_processor@_WV?$stream_output_adapter@_W@__crt_stdio_output@@V?$standard_base@_WV?$stream_output_adapter@_W@__crt_stdio_output@@@2@@__crt_stdio_output@@AEAAXI@Z 00000001800550e0 f i libucrtd:output.obj
 0001:00054100       ?set_flag@?$output_processor@_WV?$string_output_adapter@_W@__crt_stdio_output@@V?$format_validation_base@_WV?$string_output_adapter@_W@__crt_stdio_output@@@2@@__crt_stdio_output@@AEAAXI@Z 0000000180055100 f i libucrtd:output.obj
 0001:00054120       ?set_flag@?$output_processor@_WV?$string_output_adapter@_W@__crt_stdio_output@@V?$positional_parameter_base@_WV?$string_output_adapter@_W@__crt_stdio_output@@@2@@__crt_stdio_output@@AEAAXI@Z 0000000180055120 f i libucrtd:output.obj
 0001:00054140       ?set_flag@?$output_processor@_WV?$string_output_adapter@_W@__crt_stdio_output@@V?$standard_base@_WV?$string_output_adapter@_W@__crt_stdio_output@@@2@@__crt_stdio_output@@AEAAXI@Z 0000000180055140 f i libucrtd:output.obj
 0001:00054160       ?should_format@?$positional_parameter_base@DV?$stream_output_adapter@D@__crt_stdio_output@@@__crt_stdio_output@@IEAA_NXZ 0000000180055160 f i libucrtd:output.obj
 0001:000541a0       ?should_format@?$positional_parameter_base@DV?$string_output_adapter@D@__crt_stdio_output@@@__crt_stdio_output@@IEAA_NXZ 00000001800551a0 f i libucrtd:output.obj
 0001:000541e0       ?should_format@?$positional_parameter_base@_WV?$stream_output_adapter@_W@__crt_stdio_output@@@__crt_stdio_output@@IEAA_NXZ 00000001800551e0 f i libucrtd:output.obj
 0001:00054220       ?should_format@?$positional_parameter_base@_WV?$string_output_adapter@_W@__crt_stdio_output@@@__crt_stdio_output@@IEAA_NXZ 0000000180055220 f i libucrtd:output.obj
 0001:00054260       ?should_format@?$standard_base@DV?$stream_output_adapter@D@__crt_stdio_output@@@__crt_stdio_output@@IEAA_NXZ 0000000180055260 f i libucrtd:output.obj
 0001:00054270       ?should_format@?$standard_base@DV?$string_output_adapter@D@__crt_stdio_output@@@__crt_stdio_output@@IEAA_NXZ 0000000180055270 f i libucrtd:output.obj
 0001:00054280       ?should_format@?$standard_base@_WV?$stream_output_adapter@_W@__crt_stdio_output@@@__crt_stdio_output@@IEAA_NXZ 0000000180055280 f i libucrtd:output.obj
 0001:00054290       ?should_format@?$standard_base@_WV?$string_output_adapter@_W@__crt_stdio_output@@@__crt_stdio_output@@IEAA_NXZ 0000000180055290 f i libucrtd:output.obj
 0001:000542a0       ?should_skip_normal_state_processing@?$positional_parameter_base@DV?$stream_output_adapter@D@__crt_stdio_output@@@__crt_stdio_output@@IEAA_NXZ 00000001800552a0 f i libucrtd:output.obj
 0001:000542f0       ?should_skip_normal_state_processing@?$positional_parameter_base@DV?$string_output_adapter@D@__crt_stdio_output@@@__crt_stdio_output@@IEAA_NXZ 00000001800552f0 f i libucrtd:output.obj
 0001:00054340       ?should_skip_normal_state_processing@?$positional_parameter_base@_WV?$stream_output_adapter@_W@__crt_stdio_output@@@__crt_stdio_output@@IEAA_NXZ 0000000180055340 f i libucrtd:output.obj
 0001:00054390       ?should_skip_normal_state_processing@?$positional_parameter_base@_WV?$string_output_adapter@_W@__crt_stdio_output@@@__crt_stdio_output@@IEAA_NXZ 0000000180055390 f i libucrtd:output.obj
 0001:000543e0       ?should_skip_normal_state_processing@?$standard_base@DV?$stream_output_adapter@D@__crt_stdio_output@@@__crt_stdio_output@@IEAA_NXZ 00000001800553e0 f i libucrtd:output.obj
 0001:000543f0       ?should_skip_normal_state_processing@?$standard_base@DV?$string_output_adapter@D@__crt_stdio_output@@@__crt_stdio_output@@IEAA_NXZ 00000001800553f0 f i libucrtd:output.obj
 0001:00054400       ?should_skip_normal_state_processing@?$standard_base@_WV?$stream_output_adapter@_W@__crt_stdio_output@@@__crt_stdio_output@@IEAA_NXZ 0000000180055400 f i libucrtd:output.obj
 0001:00054410       ?should_skip_normal_state_processing@?$standard_base@_WV?$string_output_adapter@_W@__crt_stdio_output@@@__crt_stdio_output@@IEAA_NXZ 0000000180055410 f i libucrtd:output.obj
 0001:00054420       ?should_skip_type_state_output@?$positional_parameter_base@DV?$stream_output_adapter@D@__crt_stdio_output@@@__crt_stdio_output@@IEBA_NXZ 0000000180055420 f i libucrtd:output.obj
 0001:00054460       ?should_skip_type_state_output@?$positional_parameter_base@DV?$string_output_adapter@D@__crt_stdio_output@@@__crt_stdio_output@@IEBA_NXZ 0000000180055460 f i libucrtd:output.obj
 0001:000544a0       ?should_skip_type_state_output@?$positional_parameter_base@_WV?$stream_output_adapter@_W@__crt_stdio_output@@@__crt_stdio_output@@IEBA_NXZ 00000001800554a0 f i libucrtd:output.obj
 0001:000544e0       ?should_skip_type_state_output@?$positional_parameter_base@_WV?$string_output_adapter@_W@__crt_stdio_output@@@__crt_stdio_output@@IEBA_NXZ 00000001800554e0 f i libucrtd:output.obj
 0001:00054520       ?should_skip_type_state_output@?$standard_base@DV?$stream_output_adapter@D@__crt_stdio_output@@@__crt_stdio_output@@IEBA_NXZ 0000000180055520 f i libucrtd:output.obj
 0001:00054530       ?should_skip_type_state_output@?$standard_base@DV?$string_output_adapter@D@__crt_stdio_output@@@__crt_stdio_output@@IEBA_NXZ 0000000180055530 f i libucrtd:output.obj
 0001:00054540       ?should_skip_type_state_output@?$standard_base@_WV?$stream_output_adapter@_W@__crt_stdio_output@@@__crt_stdio_output@@IEBA_NXZ 0000000180055540 f i libucrtd:output.obj
 0001:00054550       ?should_skip_type_state_output@?$standard_base@_WV?$string_output_adapter@_W@__crt_stdio_output@@@__crt_stdio_output@@IEBA_NXZ 0000000180055550 f i libucrtd:output.obj
 0001:00054560       ?state_case_dot@?$output_processor@DV?$stream_output_adapter@D@__crt_stdio_output@@V?$format_validation_base@DV?$stream_output_adapter@D@__crt_stdio_output@@@2@@__crt_stdio_output@@AEAA_NXZ 0000000180055560 f i libucrtd:output.obj
 0001:00054580       ?state_case_dot@?$output_processor@DV?$stream_output_adapter@D@__crt_stdio_output@@V?$positional_parameter_base@DV?$stream_output_adapter@D@__crt_stdio_output@@@2@@__crt_stdio_output@@AEAA_NXZ 0000000180055580 f i libucrtd:output.obj
 0001:000545a0       ?state_case_dot@?$output_processor@DV?$stream_output_adapter@D@__crt_stdio_output@@V?$standard_base@DV?$stream_output_adapter@D@__crt_stdio_output@@@2@@__crt_stdio_output@@AEAA_NXZ 00000001800555a0 f i libucrtd:output.obj
 0001:000545c0       ?state_case_dot@?$output_processor@DV?$string_output_adapter@D@__crt_stdio_output@@V?$format_validation_base@DV?$string_output_adapter@D@__crt_stdio_output@@@2@@__crt_stdio_output@@AEAA_NXZ 00000001800555c0 f i libucrtd:output.obj
 0001:000545e0       ?state_case_dot@?$output_processor@DV?$string_output_adapter@D@__crt_stdio_output@@V?$positional_parameter_base@DV?$string_output_adapter@D@__crt_stdio_output@@@2@@__crt_stdio_output@@AEAA_NXZ 00000001800555e0 f i libucrtd:output.obj
 0001:00054600       ?state_case_dot@?$output_processor@DV?$string_output_adapter@D@__crt_stdio_output@@V?$standard_base@DV?$string_output_adapter@D@__crt_stdio_output@@@2@@__crt_stdio_output@@AEAA_NXZ 0000000180055600 f i libucrtd:output.obj
 0001:00054620       ?state_case_dot@?$output_processor@_WV?$stream_output_adapter@_W@__crt_stdio_output@@V?$format_validation_base@_WV?$stream_output_adapter@_W@__crt_stdio_output@@@2@@__crt_stdio_output@@AEAA_NXZ 0000000180055620 f i libucrtd:output.obj
 0001:00054640       ?state_case_dot@?$output_processor@_WV?$stream_output_adapter@_W@__crt_stdio_output@@V?$positional_parameter_base@_WV?$stream_output_adapter@_W@__crt_stdio_output@@@2@@__crt_stdio_output@@AEAA_NXZ 0000000180055640 f i libucrtd:output.obj
 0001:00054660       ?state_case_dot@?$output_processor@_WV?$stream_output_adapter@_W@__crt_stdio_output@@V?$standard_base@_WV?$stream_output_adapter@_W@__crt_stdio_output@@@2@@__crt_stdio_output@@AEAA_NXZ 0000000180055660 f i libucrtd:output.obj
 0001:00054680       ?state_case_dot@?$output_processor@_WV?$string_output_adapter@_W@__crt_stdio_output@@V?$format_validation_base@_WV?$string_output_adapter@_W@__crt_stdio_output@@@2@@__crt_stdio_output@@AEAA_NXZ 0000000180055680 f i libucrtd:output.obj
 0001:000546a0       ?state_case_dot@?$output_processor@_WV?$string_output_adapter@_W@__crt_stdio_output@@V?$positional_parameter_base@_WV?$string_output_adapter@_W@__crt_stdio_output@@@2@@__crt_stdio_output@@AEAA_NXZ 00000001800556a0 f i libucrtd:output.obj
 0001:000546c0       ?state_case_dot@?$output_processor@_WV?$string_output_adapter@_W@__crt_stdio_output@@V?$standard_base@_WV?$string_output_adapter@_W@__crt_stdio_output@@@2@@__crt_stdio_output@@AEAA_NXZ 00000001800556c0 f i libucrtd:output.obj
 0001:000546e0       ?state_case_flag@?$output_processor@DV?$stream_output_adapter@D@__crt_stdio_output@@V?$format_validation_base@DV?$stream_output_adapter@D@__crt_stdio_output@@@2@@__crt_stdio_output@@AEAA_NXZ 00000001800556e0 f i libucrtd:output.obj
 0001:00054780       ?state_case_flag@?$output_processor@DV?$stream_output_adapter@D@__crt_stdio_output@@V?$positional_parameter_base@DV?$stream_output_adapter@D@__crt_stdio_output@@@2@@__crt_stdio_output@@AEAA_NXZ 0000000180055780 f i libucrtd:output.obj
 0001:00054820       ?state_case_flag@?$output_processor@DV?$stream_output_adapter@D@__crt_stdio_output@@V?$standard_base@DV?$stream_output_adapter@D@__crt_stdio_output@@@2@@__crt_stdio_output@@AEAA_NXZ 0000000180055820 f i libucrtd:output.obj
 0001:000548c0       ?state_case_flag@?$output_processor@DV?$string_output_adapter@D@__crt_stdio_output@@V?$format_validation_base@DV?$string_output_adapter@D@__crt_stdio_output@@@2@@__crt_stdio_output@@AEAA_NXZ 00000001800558c0 f i libucrtd:output.obj
 0001:00054960       ?state_case_flag@?$output_processor@DV?$string_output_adapter@D@__crt_stdio_output@@V?$positional_parameter_base@DV?$string_output_adapter@D@__crt_stdio_output@@@2@@__crt_stdio_output@@AEAA_NXZ 0000000180055960 f i libucrtd:output.obj
 0001:00054a00       ?state_case_flag@?$output_processor@DV?$string_output_adapter@D@__crt_stdio_output@@V?$standard_base@DV?$string_output_adapter@D@__crt_stdio_output@@@2@@__crt_stdio_output@@AEAA_NXZ 0000000180055a00 f i libucrtd:output.obj
 0001:00054aa0       ?state_case_flag@?$output_processor@_WV?$stream_output_adapter@_W@__crt_stdio_output@@V?$format_validation_base@_WV?$stream_output_adapter@_W@__crt_stdio_output@@@2@@__crt_stdio_output@@AEAA_NXZ 0000000180055aa0 f i libucrtd:output.obj
 0001:00054b40       ?state_case_flag@?$output_processor@_WV?$stream_output_adapter@_W@__crt_stdio_output@@V?$positional_parameter_base@_WV?$stream_output_adapter@_W@__crt_stdio_output@@@2@@__crt_stdio_output@@AEAA_NXZ 0000000180055b40 f i libucrtd:output.obj
 0001:00054be0       ?state_case_flag@?$output_processor@_WV?$stream_output_adapter@_W@__crt_stdio_output@@V?$standard_base@_WV?$stream_output_adapter@_W@__crt_stdio_output@@@2@@__crt_stdio_output@@AEAA_NXZ 0000000180055be0 f i libucrtd:output.obj
 0001:00054c80       ?state_case_flag@?$output_processor@_WV?$string_output_adapter@_W@__crt_stdio_output@@V?$format_validation_base@_WV?$string_output_adapter@_W@__crt_stdio_output@@@2@@__crt_stdio_output@@AEAA_NXZ 0000000180055c80 f i libucrtd:output.obj
 0001:00054d20       ?state_case_flag@?$output_processor@_WV?$string_output_adapter@_W@__crt_stdio_output@@V?$positional_parameter_base@_WV?$string_output_adapter@_W@__crt_stdio_output@@@2@@__crt_stdio_output@@AEAA_NXZ 0000000180055d20 f i libucrtd:output.obj
 0001:00054dc0       ?state_case_flag@?$output_processor@_WV?$string_output_adapter@_W@__crt_stdio_output@@V?$standard_base@_WV?$string_output_adapter@_W@__crt_stdio_output@@@2@@__crt_stdio_output@@AEAA_NXZ 0000000180055dc0 f i libucrtd:output.obj
 0001:00054e60       ?state_case_normal@?$output_processor@DV?$stream_output_adapter@D@__crt_stdio_output@@V?$format_validation_base@DV?$stream_output_adapter@D@__crt_stdio_output@@@2@@__crt_stdio_output@@AEAA_NXZ 0000000180055e60 f i libucrtd:output.obj
 0001:00054f60       ?state_case_normal@?$output_processor@DV?$stream_output_adapter@D@__crt_stdio_output@@V?$positional_parameter_base@DV?$stream_output_adapter@D@__crt_stdio_output@@@2@@__crt_stdio_output@@AEAA_NXZ 0000000180055f60 f i libucrtd:output.obj
 0001:00055060       ?state_case_normal@?$output_processor@DV?$stream_output_adapter@D@__crt_stdio_output@@V?$standard_base@DV?$stream_output_adapter@D@__crt_stdio_output@@@2@@__crt_stdio_output@@AEAA_NXZ 0000000180056060 f i libucrtd:output.obj
 0001:00055160       ?state_case_normal@?$output_processor@DV?$string_output_adapter@D@__crt_stdio_output@@V?$format_validation_base@DV?$string_output_adapter@D@__crt_stdio_output@@@2@@__crt_stdio_output@@AEAA_NXZ 0000000180056160 f i libucrtd:output.obj
 0001:00055260       ?state_case_normal@?$output_processor@DV?$string_output_adapter@D@__crt_stdio_output@@V?$positional_parameter_base@DV?$string_output_adapter@D@__crt_stdio_output@@@2@@__crt_stdio_output@@AEAA_NXZ 0000000180056260 f i libucrtd:output.obj
 0001:00055360       ?state_case_normal@?$output_processor@DV?$string_output_adapter@D@__crt_stdio_output@@V?$standard_base@DV?$string_output_adapter@D@__crt_stdio_output@@@2@@__crt_stdio_output@@AEAA_NXZ 0000000180056360 f i libucrtd:output.obj
 0001:00055460       ?state_case_normal@?$output_processor@_WV?$stream_output_adapter@_W@__crt_stdio_output@@V?$format_validation_base@_WV?$stream_output_adapter@_W@__crt_stdio_output@@@2@@__crt_stdio_output@@AEAA_NXZ 0000000180056460 f i libucrtd:output.obj
 0001:00055560       ?state_case_normal@?$output_processor@_WV?$stream_output_adapter@_W@__crt_stdio_output@@V?$positional_parameter_base@_WV?$stream_output_adapter@_W@__crt_stdio_output@@@2@@__crt_stdio_output@@AEAA_NXZ 0000000180056560 f i libucrtd:output.obj
 0001:00055660       ?state_case_normal@?$output_processor@_WV?$stream_output_adapter@_W@__crt_stdio_output@@V?$standard_base@_WV?$stream_output_adapter@_W@__crt_stdio_output@@@2@@__crt_stdio_output@@AEAA_NXZ 0000000180056660 f i libucrtd:output.obj
 0001:00055760       ?state_case_normal@?$output_processor@_WV?$string_output_adapter@_W@__crt_stdio_output@@V?$format_validation_base@_WV?$string_output_adapter@_W@__crt_stdio_output@@@2@@__crt_stdio_output@@AEAA_NXZ 0000000180056760 f i libucrtd:output.obj
 0001:00055860       ?state_case_normal@?$output_processor@_WV?$string_output_adapter@_W@__crt_stdio_output@@V?$positional_parameter_base@_WV?$string_output_adapter@_W@__crt_stdio_output@@@2@@__crt_stdio_output@@AEAA_NXZ 0000000180056860 f i libucrtd:output.obj
 0001:00055960       ?state_case_normal@?$output_processor@_WV?$string_output_adapter@_W@__crt_stdio_output@@V?$standard_base@_WV?$string_output_adapter@_W@__crt_stdio_output@@@2@@__crt_stdio_output@@AEAA_NXZ 0000000180056960 f i libucrtd:output.obj
 0001:00055a60       ?state_case_normal_common@?$output_processor@DV?$stream_output_adapter@D@__crt_stdio_output@@V?$format_validation_base@DV?$stream_output_adapter@D@__crt_stdio_output@@@2@@__crt_stdio_output@@AEAA_NXZ 0000000180056a60 f i libucrtd:output.obj
 0001:00055ac0       ?state_case_normal_common@?$output_processor@DV?$stream_output_adapter@D@__crt_stdio_output@@V?$positional_parameter_base@DV?$stream_output_adapter@D@__crt_stdio_output@@@2@@__crt_stdio_output@@AEAA_NXZ 0000000180056ac0 f i libucrtd:output.obj
 0001:00055b20       ?state_case_normal_common@?$output_processor@DV?$stream_output_adapter@D@__crt_stdio_output@@V?$standard_base@DV?$stream_output_adapter@D@__crt_stdio_output@@@2@@__crt_stdio_output@@AEAA_NXZ 0000000180056b20 f i libucrtd:output.obj
 0001:00055b80       ?state_case_normal_common@?$output_processor@DV?$string_output_adapter@D@__crt_stdio_output@@V?$format_validation_base@DV?$string_output_adapter@D@__crt_stdio_output@@@2@@__crt_stdio_output@@AEAA_NXZ 0000000180056b80 f i libucrtd:output.obj
 0001:00055be0       ?state_case_normal_common@?$output_processor@DV?$string_output_adapter@D@__crt_stdio_output@@V?$positional_parameter_base@DV?$string_output_adapter@D@__crt_stdio_output@@@2@@__crt_stdio_output@@AEAA_NXZ 0000000180056be0 f i libucrtd:output.obj
 0001:00055c40       ?state_case_normal_common@?$output_processor@DV?$string_output_adapter@D@__crt_stdio_output@@V?$standard_base@DV?$string_output_adapter@D@__crt_stdio_output@@@2@@__crt_stdio_output@@AEAA_NXZ 0000000180056c40 f i libucrtd:output.obj
 0001:00055ca0       ?state_case_normal_common@?$output_processor@_WV?$stream_output_adapter@_W@__crt_stdio_output@@V?$format_validation_base@_WV?$stream_output_adapter@_W@__crt_stdio_output@@@2@@__crt_stdio_output@@AEAA_NXZ 0000000180056ca0 f i libucrtd:output.obj
 0001:00055d00       ?state_case_normal_common@?$output_processor@_WV?$stream_output_adapter@_W@__crt_stdio_output@@V?$positional_parameter_base@_WV?$stream_output_adapter@_W@__crt_stdio_output@@@2@@__crt_stdio_output@@AEAA_NXZ 0000000180056d00 f i libucrtd:output.obj
 0001:00055d60       ?state_case_normal_common@?$output_processor@_WV?$stream_output_adapter@_W@__crt_stdio_output@@V?$standard_base@_WV?$stream_output_adapter@_W@__crt_stdio_output@@@2@@__crt_stdio_output@@AEAA_NXZ 0000000180056d60 f i libucrtd:output.obj
 0001:00055dc0       ?state_case_normal_common@?$output_processor@_WV?$string_output_adapter@_W@__crt_stdio_output@@V?$format_validation_base@_WV?$string_output_adapter@_W@__crt_stdio_output@@@2@@__crt_stdio_output@@AEAA_NXZ 0000000180056dc0 f i libucrtd:output.obj
 0001:00055e20       ?state_case_normal_common@?$output_processor@_WV?$string_output_adapter@_W@__crt_stdio_output@@V?$positional_parameter_base@_WV?$string_output_adapter@_W@__crt_stdio_output@@@2@@__crt_stdio_output@@AEAA_NXZ 0000000180056e20 f i libucrtd:output.obj
 0001:00055e80       ?state_case_normal_common@?$output_processor@_WV?$string_output_adapter@_W@__crt_stdio_output@@V?$standard_base@_WV?$string_output_adapter@_W@__crt_stdio_output@@@2@@__crt_stdio_output@@AEAA_NXZ 0000000180056e80 f i libucrtd:output.obj
 0001:00055ee0       ?state_case_normal_tchar@?$output_processor@DV?$stream_output_adapter@D@__crt_stdio_output@@V?$format_validation_base@DV?$stream_output_adapter@D@__crt_stdio_output@@@2@@__crt_stdio_output@@AEAA_ND@Z 0000000180056ee0 f i libucrtd:output.obj
 0001:00056070       ?state_case_normal_tchar@?$output_processor@DV?$stream_output_adapter@D@__crt_stdio_output@@V?$positional_parameter_base@DV?$stream_output_adapter@D@__crt_stdio_output@@@2@@__crt_stdio_output@@AEAA_ND@Z 0000000180057070 f i libucrtd:output.obj
 0001:00056200       ?state_case_normal_tchar@?$output_processor@DV?$stream_output_adapter@D@__crt_stdio_output@@V?$standard_base@DV?$stream_output_adapter@D@__crt_stdio_output@@@2@@__crt_stdio_output@@AEAA_ND@Z 0000000180057200 f i libucrtd:output.obj
 0001:00056390       ?state_case_normal_tchar@?$output_processor@DV?$string_output_adapter@D@__crt_stdio_output@@V?$format_validation_base@DV?$string_output_adapter@D@__crt_stdio_output@@@2@@__crt_stdio_output@@AEAA_ND@Z 0000000180057390 f i libucrtd:output.obj
 0001:00056520       ?state_case_normal_tchar@?$output_processor@DV?$string_output_adapter@D@__crt_stdio_output@@V?$positional_parameter_base@DV?$string_output_adapter@D@__crt_stdio_output@@@2@@__crt_stdio_output@@AEAA_ND@Z 0000000180057520 f i libucrtd:output.obj
 0001:000566b0       ?state_case_normal_tchar@?$output_processor@DV?$string_output_adapter@D@__crt_stdio_output@@V?$standard_base@DV?$string_output_adapter@D@__crt_stdio_output@@@2@@__crt_stdio_output@@AEAA_ND@Z 00000001800576b0 f i libucrtd:output.obj
 0001:00056840       ?state_case_normal_tchar@?$output_processor@_WV?$stream_output_adapter@_W@__crt_stdio_output@@V?$format_validation_base@_WV?$stream_output_adapter@_W@__crt_stdio_output@@@2@@__crt_stdio_output@@AEAA_N_W@Z 0000000180057840 f i libucrtd:output.obj
 0001:00056860       ?state_case_normal_tchar@?$output_processor@_WV?$stream_output_adapter@_W@__crt_stdio_output@@V?$positional_parameter_base@_WV?$stream_output_adapter@_W@__crt_stdio_output@@@2@@__crt_stdio_output@@AEAA_N_W@Z 0000000180057860 f i libucrtd:output.obj
 0001:00056880       ?state_case_normal_tchar@?$output_processor@_WV?$stream_output_adapter@_W@__crt_stdio_output@@V?$standard_base@_WV?$stream_output_adapter@_W@__crt_stdio_output@@@2@@__crt_stdio_output@@AEAA_N_W@Z 0000000180057880 f i libucrtd:output.obj
 0001:000568a0       ?state_case_normal_tchar@?$output_processor@_WV?$string_output_adapter@_W@__crt_stdio_output@@V?$format_validation_base@_WV?$string_output_adapter@_W@__crt_stdio_output@@@2@@__crt_stdio_output@@AEAA_N_W@Z 00000001800578a0 f i libucrtd:output.obj
 0001:000568c0       ?state_case_normal_tchar@?$output_processor@_WV?$string_output_adapter@_W@__crt_stdio_output@@V?$positional_parameter_base@_WV?$string_output_adapter@_W@__crt_stdio_output@@@2@@__crt_stdio_output@@AEAA_N_W@Z 00000001800578c0 f i libucrtd:output.obj
 0001:000568e0       ?state_case_normal_tchar@?$output_processor@_WV?$string_output_adapter@_W@__crt_stdio_output@@V?$standard_base@_WV?$string_output_adapter@_W@__crt_stdio_output@@@2@@__crt_stdio_output@@AEAA_N_W@Z 00000001800578e0 f i libucrtd:output.obj
 0001:00056900       ?state_case_percent@?$output_processor@DV?$stream_output_adapter@D@__crt_stdio_output@@V?$format_validation_base@DV?$stream_output_adapter@D@__crt_stdio_output@@@2@@__crt_stdio_output@@AEAA_NXZ 0000000180057900 f i libucrtd:output.obj
 0001:00056950       ?state_case_percent@?$output_processor@DV?$stream_output_adapter@D@__crt_stdio_output@@V?$positional_parameter_base@DV?$stream_output_adapter@D@__crt_stdio_output@@@2@@__crt_stdio_output@@AEAA_NXZ 0000000180057950 f i libucrtd:output.obj
 0001:000569a0       ?state_case_percent@?$output_processor@DV?$stream_output_adapter@D@__crt_stdio_output@@V?$standard_base@DV?$stream_output_adapter@D@__crt_stdio_output@@@2@@__crt_stdio_output@@AEAA_NXZ 00000001800579a0 f i libucrtd:output.obj
 0001:000569f0       ?state_case_percent@?$output_processor@DV?$string_output_adapter@D@__crt_stdio_output@@V?$format_validation_base@DV?$string_output_adapter@D@__crt_stdio_output@@@2@@__crt_stdio_output@@AEAA_NXZ 00000001800579f0 f i libucrtd:output.obj
 0001:00056a40       ?state_case_percent@?$output_processor@DV?$string_output_adapter@D@__crt_stdio_output@@V?$positional_parameter_base@DV?$string_output_adapter@D@__crt_stdio_output@@@2@@__crt_stdio_output@@AEAA_NXZ 0000000180057a40 f i libucrtd:output.obj
 0001:00056a90       ?state_case_percent@?$output_processor@DV?$string_output_adapter@D@__crt_stdio_output@@V?$standard_base@DV?$string_output_adapter@D@__crt_stdio_output@@@2@@__crt_stdio_output@@AEAA_NXZ 0000000180057a90 f i libucrtd:output.obj
 0001:00056ae0       ?state_case_percent@?$output_processor@_WV?$stream_output_adapter@_W@__crt_stdio_output@@V?$format_validation_base@_WV?$stream_output_adapter@_W@__crt_stdio_output@@@2@@__crt_stdio_output@@AEAA_NXZ 0000000180057ae0 f i libucrtd:output.obj
 0001:00056b30       ?state_case_percent@?$output_processor@_WV?$stream_output_adapter@_W@__crt_stdio_output@@V?$positional_parameter_base@_WV?$stream_output_adapter@_W@__crt_stdio_output@@@2@@__crt_stdio_output@@AEAA_NXZ 0000000180057b30 f i libucrtd:output.obj
 0001:00056b80       ?state_case_percent@?$output_processor@_WV?$stream_output_adapter@_W@__crt_stdio_output@@V?$standard_base@_WV?$stream_output_adapter@_W@__crt_stdio_output@@@2@@__crt_stdio_output@@AEAA_NXZ 0000000180057b80 f i libucrtd:output.obj
 0001:00056bd0       ?state_case_percent@?$output_processor@_WV?$string_output_adapter@_W@__crt_stdio_output@@V?$format_validation_base@_WV?$string_output_adapter@_W@__crt_stdio_output@@@2@@__crt_stdio_output@@AEAA_NXZ 0000000180057bd0 f i libucrtd:output.obj
 0001:00056c20       ?state_case_percent@?$output_processor@_WV?$string_output_adapter@_W@__crt_stdio_output@@V?$positional_parameter_base@_WV?$string_output_adapter@_W@__crt_stdio_output@@@2@@__crt_stdio_output@@AEAA_NXZ 0000000180057c20 f i libucrtd:output.obj
 0001:00056c70       ?state_case_percent@?$output_processor@_WV?$string_output_adapter@_W@__crt_stdio_output@@V?$standard_base@_WV?$string_output_adapter@_W@__crt_stdio_output@@@2@@__crt_stdio_output@@AEAA_NXZ 0000000180057c70 f i libucrtd:output.obj
 0001:00056cc0       ?state_case_precision@?$output_processor@DV?$stream_output_adapter@D@__crt_stdio_output@@V?$format_validation_base@DV?$stream_output_adapter@D@__crt_stdio_output@@@2@@__crt_stdio_output@@AEAA_NXZ 0000000180057cc0 f i libucrtd:output.obj
 0001:00056d40       ?state_case_precision@?$output_processor@DV?$stream_output_adapter@D@__crt_stdio_output@@V?$positional_parameter_base@DV?$stream_output_adapter@D@__crt_stdio_output@@@2@@__crt_stdio_output@@AEAA_NXZ 0000000180057d40 f i libucrtd:output.obj
 0001:00056dc0       ?state_case_precision@?$output_processor@DV?$stream_output_adapter@D@__crt_stdio_output@@V?$standard_base@DV?$stream_output_adapter@D@__crt_stdio_output@@@2@@__crt_stdio_output@@AEAA_NXZ 0000000180057dc0 f i libucrtd:output.obj
 0001:00056e40       ?state_case_precision@?$output_processor@DV?$string_output_adapter@D@__crt_stdio_output@@V?$format_validation_base@DV?$string_output_adapter@D@__crt_stdio_output@@@2@@__crt_stdio_output@@AEAA_NXZ 0000000180057e40 f i libucrtd:output.obj
 0001:00056ec0       ?state_case_precision@?$output_processor@DV?$string_output_adapter@D@__crt_stdio_output@@V?$positional_parameter_base@DV?$string_output_adapter@D@__crt_stdio_output@@@2@@__crt_stdio_output@@AEAA_NXZ 0000000180057ec0 f i libucrtd:output.obj
 0001:00056f40       ?state_case_precision@?$output_processor@DV?$string_output_adapter@D@__crt_stdio_output@@V?$standard_base@DV?$string_output_adapter@D@__crt_stdio_output@@@2@@__crt_stdio_output@@AEAA_NXZ 0000000180057f40 f i libucrtd:output.obj
 0001:00056fc0       ?state_case_precision@?$output_processor@_WV?$stream_output_adapter@_W@__crt_stdio_output@@V?$format_validation_base@_WV?$stream_output_adapter@_W@__crt_stdio_output@@@2@@__crt_stdio_output@@AEAA_NXZ 0000000180057fc0 f i libucrtd:output.obj
 0001:00057040       ?state_case_precision@?$output_processor@_WV?$stream_output_adapter@_W@__crt_stdio_output@@V?$positional_parameter_base@_WV?$stream_output_adapter@_W@__crt_stdio_output@@@2@@__crt_stdio_output@@AEAA_NXZ 0000000180058040 f i libucrtd:output.obj
 0001:000570c0       ?state_case_precision@?$output_processor@_WV?$stream_output_adapter@_W@__crt_stdio_output@@V?$standard_base@_WV?$stream_output_adapter@_W@__crt_stdio_output@@@2@@__crt_stdio_output@@AEAA_NXZ 00000001800580c0 f i libucrtd:output.obj
 0001:00057140       ?state_case_precision@?$output_processor@_WV?$string_output_adapter@_W@__crt_stdio_output@@V?$format_validation_base@_WV?$string_output_adapter@_W@__crt_stdio_output@@@2@@__crt_stdio_output@@AEAA_NXZ 0000000180058140 f i libucrtd:output.obj
 0001:000571c0       ?state_case_precision@?$output_processor@_WV?$string_output_adapter@_W@__crt_stdio_output@@V?$positional_parameter_base@_WV?$string_output_adapter@_W@__crt_stdio_output@@@2@@__crt_stdio_output@@AEAA_NXZ 00000001800581c0 f i libucrtd:output.obj
 0001:00057240       ?state_case_precision@?$output_processor@_WV?$string_output_adapter@_W@__crt_stdio_output@@V?$standard_base@_WV?$string_output_adapter@_W@__crt_stdio_output@@@2@@__crt_stdio_output@@AEAA_NXZ 0000000180058240 f i libucrtd:output.obj
 0001:000572c0       ?state_case_size@?$output_processor@DV?$stream_output_adapter@D@__crt_stdio_output@@V?$format_validation_base@DV?$stream_output_adapter@D@__crt_stdio_output@@@2@@__crt_stdio_output@@AEAA_NXZ 00000001800582c0 f i libucrtd:output.obj
 0001:00057780       ?state_case_size@?$output_processor@DV?$stream_output_adapter@D@__crt_stdio_output@@V?$positional_parameter_base@DV?$stream_output_adapter@D@__crt_stdio_output@@@2@@__crt_stdio_output@@AEAA_NXZ 0000000180058780 f i libucrtd:output.obj
 0001:00057c40       ?state_case_size@?$output_processor@DV?$stream_output_adapter@D@__crt_stdio_output@@V?$standard_base@DV?$stream_output_adapter@D@__crt_stdio_output@@@2@@__crt_stdio_output@@AEAA_NXZ 0000000180058c40 f i libucrtd:output.obj
 0001:00058100       ?state_case_size@?$output_processor@DV?$string_output_adapter@D@__crt_stdio_output@@V?$format_validation_base@DV?$string_output_adapter@D@__crt_stdio_output@@@2@@__crt_stdio_output@@AEAA_NXZ 0000000180059100 f i libucrtd:output.obj
 0001:000585c0       ?state_case_size@?$output_processor@DV?$string_output_adapter@D@__crt_stdio_output@@V?$positional_parameter_base@DV?$string_output_adapter@D@__crt_stdio_output@@@2@@__crt_stdio_output@@AEAA_NXZ 00000001800595c0 f i libucrtd:output.obj
 0001:00058a80       ?state_case_size@?$output_processor@DV?$string_output_adapter@D@__crt_stdio_output@@V?$standard_base@DV?$string_output_adapter@D@__crt_stdio_output@@@2@@__crt_stdio_output@@AEAA_NXZ 0000000180059a80 f i libucrtd:output.obj
 0001:00058f40       ?state_case_size@?$output_processor@_WV?$stream_output_adapter@_W@__crt_stdio_output@@V?$format_validation_base@_WV?$stream_output_adapter@_W@__crt_stdio_output@@@2@@__crt_stdio_output@@AEAA_NXZ 0000000180059f40 f i libucrtd:output.obj
 0001:00059400       ?state_case_size@?$output_processor@_WV?$stream_output_adapter@_W@__crt_stdio_output@@V?$positional_parameter_base@_WV?$stream_output_adapter@_W@__crt_stdio_output@@@2@@__crt_stdio_output@@AEAA_NXZ 000000018005a400 f i libucrtd:output.obj
 0001:000598c0       ?state_case_size@?$output_processor@_WV?$stream_output_adapter@_W@__crt_stdio_output@@V?$standard_base@_WV?$stream_output_adapter@_W@__crt_stdio_output@@@2@@__crt_stdio_output@@AEAA_NXZ 000000018005a8c0 f i libucrtd:output.obj
 0001:00059d80       ?state_case_size@?$output_processor@_WV?$string_output_adapter@_W@__crt_stdio_output@@V?$format_validation_base@_WV?$string_output_adapter@_W@__crt_stdio_output@@@2@@__crt_stdio_output@@AEAA_NXZ 000000018005ad80 f i libucrtd:output.obj
 0001:0005a240       ?state_case_size@?$output_processor@_WV?$string_output_adapter@_W@__crt_stdio_output@@V?$positional_parameter_base@_WV?$string_output_adapter@_W@__crt_stdio_output@@@2@@__crt_stdio_output@@AEAA_NXZ 000000018005b240 f i libucrtd:output.obj
 0001:0005a700       ?state_case_size@?$output_processor@_WV?$string_output_adapter@_W@__crt_stdio_output@@V?$standard_base@_WV?$string_output_adapter@_W@__crt_stdio_output@@@2@@__crt_stdio_output@@AEAA_NXZ 000000018005b700 f i libucrtd:output.obj
 0001:0005abc0       ?state_case_type@?$output_processor@DV?$stream_output_adapter@D@__crt_stdio_output@@V?$format_validation_base@DV?$stream_output_adapter@D@__crt_stdio_output@@@2@@__crt_stdio_output@@AEAA_NXZ 000000018005bbc0 f i libucrtd:output.obj
 0001:0005b080       ?state_case_type@?$output_processor@DV?$stream_output_adapter@D@__crt_stdio_output@@V?$positional_parameter_base@DV?$stream_output_adapter@D@__crt_stdio_output@@@2@@__crt_stdio_output@@AEAA_NXZ 000000018005c080 f i libucrtd:output.obj
 0001:0005b540       ?state_case_type@?$output_processor@DV?$stream_output_adapter@D@__crt_stdio_output@@V?$standard_base@DV?$stream_output_adapter@D@__crt_stdio_output@@@2@@__crt_stdio_output@@AEAA_NXZ 000000018005c540 f i libucrtd:output.obj
 0001:0005ba00       ?state_case_type@?$output_processor@DV?$string_output_adapter@D@__crt_stdio_output@@V?$format_validation_base@DV?$string_output_adapter@D@__crt_stdio_output@@@2@@__crt_stdio_output@@AEAA_NXZ 000000018005ca00 f i libucrtd:output.obj
 0001:0005bec0       ?state_case_type@?$output_processor@DV?$string_output_adapter@D@__crt_stdio_output@@V?$positional_parameter_base@DV?$string_output_adapter@D@__crt_stdio_output@@@2@@__crt_stdio_output@@AEAA_NXZ 000000018005cec0 f i libucrtd:output.obj
 0001:0005c380       ?state_case_type@?$output_processor@DV?$string_output_adapter@D@__crt_stdio_output@@V?$standard_base@DV?$string_output_adapter@D@__crt_stdio_output@@@2@@__crt_stdio_output@@AEAA_NXZ 000000018005d380 f i libucrtd:output.obj
 0001:0005c840       ?state_case_type@?$output_processor@_WV?$stream_output_adapter@_W@__crt_stdio_output@@V?$format_validation_base@_WV?$stream_output_adapter@_W@__crt_stdio_output@@@2@@__crt_stdio_output@@AEAA_NXZ 000000018005d840 f i libucrtd:output.obj
 0001:0005cdd0       ?state_case_type@?$output_processor@_WV?$stream_output_adapter@_W@__crt_stdio_output@@V?$positional_parameter_base@_WV?$stream_output_adapter@_W@__crt_stdio_output@@@2@@__crt_stdio_output@@AEAA_NXZ 000000018005ddd0 f i libucrtd:output.obj
 0001:0005d360       ?state_case_type@?$output_processor@_WV?$stream_output_adapter@_W@__crt_stdio_output@@V?$standard_base@_WV?$stream_output_adapter@_W@__crt_stdio_output@@@2@@__crt_stdio_output@@AEAA_NXZ 000000018005e360 f i libucrtd:output.obj
 0001:0005d8f0       ?state_case_type@?$output_processor@_WV?$string_output_adapter@_W@__crt_stdio_output@@V?$format_validation_base@_WV?$string_output_adapter@_W@__crt_stdio_output@@@2@@__crt_stdio_output@@AEAA_NXZ 000000018005e8f0 f i libucrtd:output.obj
 0001:0005de80       ?state_case_type@?$output_processor@_WV?$string_output_adapter@_W@__crt_stdio_output@@V?$positional_parameter_base@_WV?$string_output_adapter@_W@__crt_stdio_output@@@2@@__crt_stdio_output@@AEAA_NXZ 000000018005ee80 f i libucrtd:output.obj
 0001:0005e410       ?state_case_type@?$output_processor@_WV?$string_output_adapter@_W@__crt_stdio_output@@V?$standard_base@_WV?$string_output_adapter@_W@__crt_stdio_output@@@2@@__crt_stdio_output@@AEAA_NXZ 000000018005f410 f i libucrtd:output.obj
 0001:0005e9a0       ?state_case_width@?$output_processor@DV?$stream_output_adapter@D@__crt_stdio_output@@V?$format_validation_base@DV?$stream_output_adapter@D@__crt_stdio_output@@@2@@__crt_stdio_output@@AEAA_NXZ 000000018005f9a0 f i libucrtd:output.obj
 0001:0005ea30       ?state_case_width@?$output_processor@DV?$stream_output_adapter@D@__crt_stdio_output@@V?$positional_parameter_base@DV?$stream_output_adapter@D@__crt_stdio_output@@@2@@__crt_stdio_output@@AEAA_NXZ 000000018005fa30 f i libucrtd:output.obj
 0001:0005eac0       ?state_case_width@?$output_processor@DV?$stream_output_adapter@D@__crt_stdio_output@@V?$standard_base@DV?$stream_output_adapter@D@__crt_stdio_output@@@2@@__crt_stdio_output@@AEAA_NXZ 000000018005fac0 f i libucrtd:output.obj
 0001:0005eb50       ?state_case_width@?$output_processor@DV?$string_output_adapter@D@__crt_stdio_output@@V?$format_validation_base@DV?$string_output_adapter@D@__crt_stdio_output@@@2@@__crt_stdio_output@@AEAA_NXZ 000000018005fb50 f i libucrtd:output.obj
 0001:0005ebe0       ?state_case_width@?$output_processor@DV?$string_output_adapter@D@__crt_stdio_output@@V?$positional_parameter_base@DV?$string_output_adapter@D@__crt_stdio_output@@@2@@__crt_stdio_output@@AEAA_NXZ 000000018005fbe0 f i libucrtd:output.obj
 0001:0005ec70       ?state_case_width@?$output_processor@DV?$string_output_adapter@D@__crt_stdio_output@@V?$standard_base@DV?$string_output_adapter@D@__crt_stdio_output@@@2@@__crt_stdio_output@@AEAA_NXZ 000000018005fc70 f i libucrtd:output.obj
 0001:0005ed00       ?state_case_width@?$output_processor@_WV?$stream_output_adapter@_W@__crt_stdio_output@@V?$format_validation_base@_WV?$stream_output_adapter@_W@__crt_stdio_output@@@2@@__crt_stdio_output@@AEAA_NXZ 000000018005fd00 f i libucrtd:output.obj
 0001:0005ed90       ?state_case_width@?$output_processor@_WV?$stream_output_adapter@_W@__crt_stdio_output@@V?$positional_parameter_base@_WV?$stream_output_adapter@_W@__crt_stdio_output@@@2@@__crt_stdio_output@@AEAA_NXZ 000000018005fd90 f i libucrtd:output.obj
 0001:0005ee20       ?state_case_width@?$output_processor@_WV?$stream_output_adapter@_W@__crt_stdio_output@@V?$standard_base@_WV?$stream_output_adapter@_W@__crt_stdio_output@@@2@@__crt_stdio_output@@AEAA_NXZ 000000018005fe20 f i libucrtd:output.obj
 0001:0005eeb0       ?state_case_width@?$output_processor@_WV?$string_output_adapter@_W@__crt_stdio_output@@V?$format_validation_base@_WV?$string_output_adapter@_W@__crt_stdio_output@@@2@@__crt_stdio_output@@AEAA_NXZ 000000018005feb0 f i libucrtd:output.obj
 0001:0005ef40       ?state_case_width@?$output_processor@_WV?$string_output_adapter@_W@__crt_stdio_output@@V?$positional_parameter_base@_WV?$string_output_adapter@_W@__crt_stdio_output@@@2@@__crt_stdio_output@@AEAA_NXZ 000000018005ff40 f i libucrtd:output.obj
 0001:0005efd0       ?state_case_width@?$output_processor@_WV?$string_output_adapter@_W@__crt_stdio_output@@V?$standard_base@_WV?$string_output_adapter@_W@__crt_stdio_output@@@2@@__crt_stdio_output@@AEAA_NXZ 000000018005ffd0 f i libucrtd:output.obj
 0001:0005f060       ?state_count@?$format_validation_base@DV?$stream_output_adapter@D@__crt_stdio_output@@@__crt_stdio_output@@KAIXZ 0000000180060060 f i libucrtd:output.obj
 0001:0005f070       ?state_count@?$format_validation_base@DV?$string_output_adapter@D@__crt_stdio_output@@@__crt_stdio_output@@KAIXZ 0000000180060070 f i libucrtd:output.obj
 0001:0005f080       ?state_count@?$format_validation_base@_WV?$stream_output_adapter@_W@__crt_stdio_output@@@__crt_stdio_output@@KAIXZ 0000000180060080 f i libucrtd:output.obj
 0001:0005f090       ?state_count@?$format_validation_base@_WV?$string_output_adapter@_W@__crt_stdio_output@@@__crt_stdio_output@@KAIXZ 0000000180060090 f i libucrtd:output.obj
 0001:0005f0a0       ?state_count@?$standard_base@DV?$stream_output_adapter@D@__crt_stdio_output@@@__crt_stdio_output@@KAIXZ 00000001800600a0 f i libucrtd:output.obj
 0001:0005f0b0       ?state_count@?$standard_base@DV?$string_output_adapter@D@__crt_stdio_output@@@__crt_stdio_output@@KAIXZ 00000001800600b0 f i libucrtd:output.obj
 0001:0005f0c0       ?state_count@?$standard_base@_WV?$stream_output_adapter@_W@__crt_stdio_output@@@__crt_stdio_output@@KAIXZ 00000001800600c0 f i libucrtd:output.obj
 0001:0005f0d0       ?state_count@?$standard_base@_WV?$string_output_adapter@_W@__crt_stdio_output@@@__crt_stdio_output@@KAIXZ 00000001800600d0 f i libucrtd:output.obj
 0001:0005f0e0       ?state_transition_table@?$format_validation_base@DV?$stream_output_adapter@D@__crt_stdio_output@@@__crt_stdio_output@@KAAEBV?$spectre_mitigated_lookup_table@Ustate_transition_pair@__crt_stdio_output@@$0IA@@2@XZ 00000001800600e0 f i libucrtd:output.obj
 0001:0005f0f0       ?state_transition_table@?$format_validation_base@DV?$string_output_adapter@D@__crt_stdio_output@@@__crt_stdio_output@@KAAEBV?$spectre_mitigated_lookup_table@Ustate_transition_pair@__crt_stdio_output@@$0IA@@2@XZ 00000001800600f0 f i libucrtd:output.obj
 0001:0005f100       ?state_transition_table@?$format_validation_base@_WV?$stream_output_adapter@_W@__crt_stdio_output@@@__crt_stdio_output@@KAAEBV?$spectre_mitigated_lookup_table@Ustate_transition_pair@__crt_stdio_output@@$0IA@@2@XZ 0000000180060100 f i libucrtd:output.obj
 0001:0005f110       ?state_transition_table@?$format_validation_base@_WV?$string_output_adapter@_W@__crt_stdio_output@@@__crt_stdio_output@@KAAEBV?$spectre_mitigated_lookup_table@Ustate_transition_pair@__crt_stdio_output@@$0IA@@2@XZ 0000000180060110 f i libucrtd:output.obj
 0001:0005f120       ?state_transition_table@?$standard_base@DV?$stream_output_adapter@D@__crt_stdio_output@@@__crt_stdio_output@@KAAEBV?$spectre_mitigated_lookup_table@Ustate_transition_pair@__crt_stdio_output@@$0IA@@2@XZ 0000000180060120 f i libucrtd:output.obj
 0001:0005f130       ?state_transition_table@?$standard_base@DV?$string_output_adapter@D@__crt_stdio_output@@@__crt_stdio_output@@KAAEBV?$spectre_mitigated_lookup_table@Ustate_transition_pair@__crt_stdio_output@@$0IA@@2@XZ 0000000180060130 f i libucrtd:output.obj
 0001:0005f140       ?state_transition_table@?$standard_base@_WV?$stream_output_adapter@_W@__crt_stdio_output@@@__crt_stdio_output@@KAAEBV?$spectre_mitigated_lookup_table@Ustate_transition_pair@__crt_stdio_output@@$0IA@@2@XZ 0000000180060140 f i libucrtd:output.obj
 0001:0005f150       ?state_transition_table@?$standard_base@_WV?$string_output_adapter@_W@__crt_stdio_output@@@__crt_stdio_output@@KAAEBV?$spectre_mitigated_lookup_table@Ustate_transition_pair@__crt_stdio_output@@$0IA@@2@XZ 0000000180060150 f i libucrtd:output.obj
 0001:0005f160       ?tchar_string@?$common_data@D@__crt_stdio_output@@IEAAAEAPEADD@Z 0000000180060160 f i libucrtd:output.obj
 0001:0005f180       ?tchar_string@?$common_data@D@__crt_stdio_output@@IEAAAEAPEADXZ 0000000180060180 f i libucrtd:output.obj
 0001:0005f1a0       ?tchar_string@?$common_data@_W@__crt_stdio_output@@IEAAAEAPEA_WXZ 00000001800601a0 f i libucrtd:output.obj
 0001:0005f1c0       ?tchar_string@?$common_data@_W@__crt_stdio_output@@IEAAAEAPEA_W_W@Z 00000001800601c0 f i libucrtd:output.obj
 0001:0005f1e0       ?to_integer_size@__crt_stdio_output@@YA_KW4length_modifier@1@@Z 00000001800601e0 f i libucrtd:output.obj
 0001:0005f290       ?type_case_X@?$output_processor@DV?$stream_output_adapter@D@__crt_stdio_output@@V?$format_validation_base@DV?$stream_output_adapter@D@__crt_stdio_output@@@2@@__crt_stdio_output@@AEAA_NXZ 0000000180060290 f i libucrtd:output.obj
 0001:0005f2b0       ?type_case_X@?$output_processor@DV?$stream_output_adapter@D@__crt_stdio_output@@V?$positional_parameter_base@DV?$stream_output_adapter@D@__crt_stdio_output@@@2@@__crt_stdio_output@@AEAA_NXZ 00000001800602b0 f i libucrtd:output.obj
 0001:0005f2d0       ?type_case_X@?$output_processor@DV?$stream_output_adapter@D@__crt_stdio_output@@V?$standard_base@DV?$stream_output_adapter@D@__crt_stdio_output@@@2@@__crt_stdio_output@@AEAA_NXZ 00000001800602d0 f i libucrtd:output.obj
 0001:0005f2f0       ?type_case_X@?$output_processor@DV?$string_output_adapter@D@__crt_stdio_output@@V?$format_validation_base@DV?$string_output_adapter@D@__crt_stdio_output@@@2@@__crt_stdio_output@@AEAA_NXZ 00000001800602f0 f i libucrtd:output.obj
 0001:0005f310       ?type_case_X@?$output_processor@DV?$string_output_adapter@D@__crt_stdio_output@@V?$positional_parameter_base@DV?$string_output_adapter@D@__crt_stdio_output@@@2@@__crt_stdio_output@@AEAA_NXZ 0000000180060310 f i libucrtd:output.obj
 0001:0005f330       ?type_case_X@?$output_processor@DV?$string_output_adapter@D@__crt_stdio_output@@V?$standard_base@DV?$string_output_adapter@D@__crt_stdio_output@@@2@@__crt_stdio_output@@AEAA_NXZ 0000000180060330 f i libucrtd:output.obj
 0001:0005f350       ?type_case_X@?$output_processor@_WV?$stream_output_adapter@_W@__crt_stdio_output@@V?$format_validation_base@_WV?$stream_output_adapter@_W@__crt_stdio_output@@@2@@__crt_stdio_output@@AEAA_NXZ 0000000180060350 f i libucrtd:output.obj
 0001:0005f370       ?type_case_X@?$output_processor@_WV?$stream_output_adapter@_W@__crt_stdio_output@@V?$positional_parameter_base@_WV?$stream_output_adapter@_W@__crt_stdio_output@@@2@@__crt_stdio_output@@AEAA_NXZ 0000000180060370 f i libucrtd:output.obj
 0001:0005f390       ?type_case_X@?$output_processor@_WV?$stream_output_adapter@_W@__crt_stdio_output@@V?$standard_base@_WV?$stream_output_adapter@_W@__crt_stdio_output@@@2@@__crt_stdio_output@@AEAA_NXZ 0000000180060390 f i libucrtd:output.obj
 0001:0005f3b0       ?type_case_X@?$output_processor@_WV?$string_output_adapter@_W@__crt_stdio_output@@V?$format_validation_base@_WV?$string_output_adapter@_W@__crt_stdio_output@@@2@@__crt_stdio_output@@AEAA_NXZ 00000001800603b0 f i libucrtd:output.obj
 0001:0005f3d0       ?type_case_X@?$output_processor@_WV?$string_output_adapter@_W@__crt_stdio_output@@V?$positional_parameter_base@_WV?$string_output_adapter@_W@__crt_stdio_output@@@2@@__crt_stdio_output@@AEAA_NXZ 00000001800603d0 f i libucrtd:output.obj
 0001:0005f3f0       ?type_case_X@?$output_processor@_WV?$string_output_adapter@_W@__crt_stdio_output@@V?$standard_base@_WV?$string_output_adapter@_W@__crt_stdio_output@@@2@@__crt_stdio_output@@AEAA_NXZ 00000001800603f0 f i libucrtd:output.obj
 0001:0005f410       ?type_case_Z@?$output_processor@DV?$stream_output_adapter@D@__crt_stdio_output@@V?$format_validation_base@DV?$stream_output_adapter@D@__crt_stdio_output@@@2@@__crt_stdio_output@@AEAA_NXZ 0000000180060410 f i libucrtd:output.obj
 0001:0005f530       ?type_case_Z@?$output_processor@DV?$stream_output_adapter@D@__crt_stdio_output@@V?$positional_parameter_base@DV?$stream_output_adapter@D@__crt_stdio_output@@@2@@__crt_stdio_output@@AEAA_NXZ 0000000180060530 f i libucrtd:output.obj
 0001:0005f650       ?type_case_Z@?$output_processor@DV?$stream_output_adapter@D@__crt_stdio_output@@V?$standard_base@DV?$stream_output_adapter@D@__crt_stdio_output@@@2@@__crt_stdio_output@@AEAA_NXZ 0000000180060650 f i libucrtd:output.obj
 0001:0005f770       ?type_case_Z@?$output_processor@DV?$string_output_adapter@D@__crt_stdio_output@@V?$format_validation_base@DV?$string_output_adapter@D@__crt_stdio_output@@@2@@__crt_stdio_output@@AEAA_NXZ 0000000180060770 f i libucrtd:output.obj
 0001:0005f890       ?type_case_Z@?$output_processor@DV?$string_output_adapter@D@__crt_stdio_output@@V?$positional_parameter_base@DV?$string_output_adapter@D@__crt_stdio_output@@@2@@__crt_stdio_output@@AEAA_NXZ 0000000180060890 f i libucrtd:output.obj
 0001:0005f9b0       ?type_case_Z@?$output_processor@DV?$string_output_adapter@D@__crt_stdio_output@@V?$standard_base@DV?$string_output_adapter@D@__crt_stdio_output@@@2@@__crt_stdio_output@@AEAA_NXZ 00000001800609b0 f i libucrtd:output.obj
 0001:0005fad0       ?type_case_Z@?$output_processor@_WV?$stream_output_adapter@_W@__crt_stdio_output@@V?$format_validation_base@_WV?$stream_output_adapter@_W@__crt_stdio_output@@@2@@__crt_stdio_output@@AEAA_NXZ 0000000180060ad0 f i libucrtd:output.obj
 0001:0005fbf0       ?type_case_Z@?$output_processor@_WV?$stream_output_adapter@_W@__crt_stdio_output@@V?$positional_parameter_base@_WV?$stream_output_adapter@_W@__crt_stdio_output@@@2@@__crt_stdio_output@@AEAA_NXZ 0000000180060bf0 f i libucrtd:output.obj
 0001:0005fd10       ?type_case_Z@?$output_processor@_WV?$stream_output_adapter@_W@__crt_stdio_output@@V?$standard_base@_WV?$stream_output_adapter@_W@__crt_stdio_output@@@2@@__crt_stdio_output@@AEAA_NXZ 0000000180060d10 f i libucrtd:output.obj
 0001:0005fe30       ?type_case_Z@?$output_processor@_WV?$string_output_adapter@_W@__crt_stdio_output@@V?$format_validation_base@_WV?$string_output_adapter@_W@__crt_stdio_output@@@2@@__crt_stdio_output@@AEAA_NXZ 0000000180060e30 f i libucrtd:output.obj
 0001:0005ff50       ?type_case_Z@?$output_processor@_WV?$string_output_adapter@_W@__crt_stdio_output@@V?$positional_parameter_base@_WV?$string_output_adapter@_W@__crt_stdio_output@@@2@@__crt_stdio_output@@AEAA_NXZ 0000000180060f50 f i libucrtd:output.obj
 0001:00060070       ?type_case_Z@?$output_processor@_WV?$string_output_adapter@_W@__crt_stdio_output@@V?$standard_base@_WV?$string_output_adapter@_W@__crt_stdio_output@@@2@@__crt_stdio_output@@AEAA_NXZ 0000000180061070 f i libucrtd:output.obj
 0001:00060190       ?type_case_a@?$output_processor@DV?$stream_output_adapter@D@__crt_stdio_output@@V?$format_validation_base@DV?$stream_output_adapter@D@__crt_stdio_output@@@2@@__crt_stdio_output@@AEAA_NXZ 0000000180061190 f i libucrtd:output.obj
 0001:000605f0       ?type_case_a@?$output_processor@DV?$stream_output_adapter@D@__crt_stdio_output@@V?$positional_parameter_base@DV?$stream_output_adapter@D@__crt_stdio_output@@@2@@__crt_stdio_output@@AEAA_NXZ 00000001800615f0 f i libucrtd:output.obj
 0001:00060a50       ?type_case_a@?$output_processor@DV?$stream_output_adapter@D@__crt_stdio_output@@V?$standard_base@DV?$stream_output_adapter@D@__crt_stdio_output@@@2@@__crt_stdio_output@@AEAA_NXZ 0000000180061a50 f i libucrtd:output.obj
 0001:00060eb0       ?type_case_a@?$output_processor@DV?$string_output_adapter@D@__crt_stdio_output@@V?$format_validation_base@DV?$string_output_adapter@D@__crt_stdio_output@@@2@@__crt_stdio_output@@AEAA_NXZ 0000000180061eb0 f i libucrtd:output.obj
 0001:00061310       ?type_case_a@?$output_processor@DV?$string_output_adapter@D@__crt_stdio_output@@V?$positional_parameter_base@DV?$string_output_adapter@D@__crt_stdio_output@@@2@@__crt_stdio_output@@AEAA_NXZ 0000000180062310 f i libucrtd:output.obj
 0001:00061770       ?type_case_a@?$output_processor@DV?$string_output_adapter@D@__crt_stdio_output@@V?$standard_base@DV?$string_output_adapter@D@__crt_stdio_output@@@2@@__crt_stdio_output@@AEAA_NXZ 0000000180062770 f i libucrtd:output.obj
 0001:00061bd0       ?type_case_a@?$output_processor@_WV?$stream_output_adapter@_W@__crt_stdio_output@@V?$format_validation_base@_WV?$stream_output_adapter@_W@__crt_stdio_output@@@2@@__crt_stdio_output@@AEAA_NXZ 0000000180062bd0 f i libucrtd:output.obj
 0001:00062040       ?type_case_a@?$output_processor@_WV?$stream_output_adapter@_W@__crt_stdio_output@@V?$positional_parameter_base@_WV?$stream_output_adapter@_W@__crt_stdio_output@@@2@@__crt_stdio_output@@AEAA_NXZ 0000000180063040 f i libucrtd:output.obj
 0001:000624b0       ?type_case_a@?$output_processor@_WV?$stream_output_adapter@_W@__crt_stdio_output@@V?$standard_base@_WV?$stream_output_adapter@_W@__crt_stdio_output@@@2@@__crt_stdio_output@@AEAA_NXZ 00000001800634b0 f i libucrtd:output.obj
 0001:00062920       ?type_case_a@?$output_processor@_WV?$string_output_adapter@_W@__crt_stdio_output@@V?$format_validation_base@_WV?$string_output_adapter@_W@__crt_stdio_output@@@2@@__crt_stdio_output@@AEAA_NXZ 0000000180063920 f i libucrtd:output.obj
 0001:00062d90       ?type_case_a@?$output_processor@_WV?$string_output_adapter@_W@__crt_stdio_output@@V?$positional_parameter_base@_WV?$string_output_adapter@_W@__crt_stdio_output@@@2@@__crt_stdio_output@@AEAA_NXZ 0000000180063d90 f i libucrtd:output.obj
 0001:00063200       ?type_case_a@?$output_processor@_WV?$string_output_adapter@_W@__crt_stdio_output@@V?$standard_base@_WV?$string_output_adapter@_W@__crt_stdio_output@@@2@@__crt_stdio_output@@AEAA_NXZ 0000000180064200 f i libucrtd:output.obj
 0001:00063670       ?type_case_c@?$output_processor@DV?$stream_output_adapter@D@__crt_stdio_output@@V?$format_validation_base@DV?$stream_output_adapter@D@__crt_stdio_output@@@2@@__crt_stdio_output@@AEAA_NXZ 0000000180064670 f i libucrtd:output.obj
 0001:00063690       ?type_case_c@?$output_processor@DV?$stream_output_adapter@D@__crt_stdio_output@@V?$positional_parameter_base@DV?$stream_output_adapter@D@__crt_stdio_output@@@2@@__crt_stdio_output@@AEAA_NXZ 0000000180064690 f i libucrtd:output.obj
 0001:000636b0       ?type_case_c@?$output_processor@DV?$stream_output_adapter@D@__crt_stdio_output@@V?$standard_base@DV?$stream_output_adapter@D@__crt_stdio_output@@@2@@__crt_stdio_output@@AEAA_NXZ 00000001800646b0 f i libucrtd:output.obj
 0001:000636d0       ?type_case_c@?$output_processor@DV?$string_output_adapter@D@__crt_stdio_output@@V?$format_validation_base@DV?$string_output_adapter@D@__crt_stdio_output@@@2@@__crt_stdio_output@@AEAA_NXZ 00000001800646d0 f i libucrtd:output.obj
 0001:000636f0       ?type_case_c@?$output_processor@DV?$string_output_adapter@D@__crt_stdio_output@@V?$positional_parameter_base@DV?$string_output_adapter@D@__crt_stdio_output@@@2@@__crt_stdio_output@@AEAA_NXZ 00000001800646f0 f i libucrtd:output.obj
 0001:00063710       ?type_case_c@?$output_processor@DV?$string_output_adapter@D@__crt_stdio_output@@V?$standard_base@DV?$string_output_adapter@D@__crt_stdio_output@@@2@@__crt_stdio_output@@AEAA_NXZ 0000000180064710 f i libucrtd:output.obj
 0001:00063730       ?type_case_c@?$output_processor@_WV?$stream_output_adapter@_W@__crt_stdio_output@@V?$format_validation_base@_WV?$stream_output_adapter@_W@__crt_stdio_output@@@2@@__crt_stdio_output@@AEAA_NXZ 0000000180064730 f i libucrtd:output.obj
 0001:00063750       ?type_case_c@?$output_processor@_WV?$stream_output_adapter@_W@__crt_stdio_output@@V?$positional_parameter_base@_WV?$stream_output_adapter@_W@__crt_stdio_output@@@2@@__crt_stdio_output@@AEAA_NXZ 0000000180064750 f i libucrtd:output.obj
 0001:00063770       ?type_case_c@?$output_processor@_WV?$stream_output_adapter@_W@__crt_stdio_output@@V?$standard_base@_WV?$stream_output_adapter@_W@__crt_stdio_output@@@2@@__crt_stdio_output@@AEAA_NXZ 0000000180064770 f i libucrtd:output.obj
 0001:00063790       ?type_case_c@?$output_processor@_WV?$string_output_adapter@_W@__crt_stdio_output@@V?$format_validation_base@_WV?$string_output_adapter@_W@__crt_stdio_output@@@2@@__crt_stdio_output@@AEAA_NXZ 0000000180064790 f i libucrtd:output.obj
 0001:000637b0       ?type_case_c@?$output_processor@_WV?$string_output_adapter@_W@__crt_stdio_output@@V?$positional_parameter_base@_WV?$string_output_adapter@_W@__crt_stdio_output@@@2@@__crt_stdio_output@@AEAA_NXZ 00000001800647b0 f i libucrtd:output.obj
 0001:000637d0       ?type_case_c@?$output_processor@_WV?$string_output_adapter@_W@__crt_stdio_output@@V?$standard_base@_WV?$string_output_adapter@_W@__crt_stdio_output@@@2@@__crt_stdio_output@@AEAA_NXZ 00000001800647d0 f i libucrtd:output.obj
 0001:000637f0       ?type_case_c_tchar@?$output_processor@DV?$stream_output_adapter@D@__crt_stdio_output@@V?$format_validation_base@DV?$stream_output_adapter@D@__crt_stdio_output@@@2@@__crt_stdio_output@@AEAA_ND@Z 00000001800647f0 f i libucrtd:output.obj
 0001:00063960       ?type_case_c_tchar@?$output_processor@DV?$stream_output_adapter@D@__crt_stdio_output@@V?$positional_parameter_base@DV?$stream_output_adapter@D@__crt_stdio_output@@@2@@__crt_stdio_output@@AEAA_ND@Z 0000000180064960 f i libucrtd:output.obj
 0001:00063ad0       ?type_case_c_tchar@?$output_processor@DV?$stream_output_adapter@D@__crt_stdio_output@@V?$standard_base@DV?$stream_output_adapter@D@__crt_stdio_output@@@2@@__crt_stdio_output@@AEAA_ND@Z 0000000180064ad0 f i libucrtd:output.obj
 0001:00063c40       ?type_case_c_tchar@?$output_processor@DV?$string_output_adapter@D@__crt_stdio_output@@V?$format_validation_base@DV?$string_output_adapter@D@__crt_stdio_output@@@2@@__crt_stdio_output@@AEAA_ND@Z 0000000180064c40 f i libucrtd:output.obj
 0001:00063db0       ?type_case_c_tchar@?$output_processor@DV?$string_output_adapter@D@__crt_stdio_output@@V?$positional_parameter_base@DV?$string_output_adapter@D@__crt_stdio_output@@@2@@__crt_stdio_output@@AEAA_ND@Z 0000000180064db0 f i libucrtd:output.obj
 0001:00063f20       ?type_case_c_tchar@?$output_processor@DV?$string_output_adapter@D@__crt_stdio_output@@V?$standard_base@DV?$string_output_adapter@D@__crt_stdio_output@@@2@@__crt_stdio_output@@AEAA_ND@Z 0000000180064f20 f i libucrtd:output.obj
 0001:00064090       ?type_case_c_tchar@?$output_processor@_WV?$stream_output_adapter@_W@__crt_stdio_output@@V?$format_validation_base@_WV?$stream_output_adapter@_W@__crt_stdio_output@@@2@@__crt_stdio_output@@AEAA_N_W@Z 0000000180065090 f i libucrtd:output.obj
 0001:000641f0       ?type_case_c_tchar@?$output_processor@_WV?$stream_output_adapter@_W@__crt_stdio_output@@V?$positional_parameter_base@_WV?$stream_output_adapter@_W@__crt_stdio_output@@@2@@__crt_stdio_output@@AEAA_N_W@Z 00000001800651f0 f i libucrtd:output.obj
 0001:00064350       ?type_case_c_tchar@?$output_processor@_WV?$stream_output_adapter@_W@__crt_stdio_output@@V?$standard_base@_WV?$stream_output_adapter@_W@__crt_stdio_output@@@2@@__crt_stdio_output@@AEAA_N_W@Z 0000000180065350 f i libucrtd:output.obj
 0001:000644b0       ?type_case_c_tchar@?$output_processor@_WV?$string_output_adapter@_W@__crt_stdio_output@@V?$format_validation_base@_WV?$string_output_adapter@_W@__crt_stdio_output@@@2@@__crt_stdio_output@@AEAA_N_W@Z 00000001800654b0 f i libucrtd:output.obj
 0001:00064610       ?type_case_c_tchar@?$output_processor@_WV?$string_output_adapter@_W@__crt_stdio_output@@V?$positional_parameter_base@_WV?$string_output_adapter@_W@__crt_stdio_output@@@2@@__crt_stdio_output@@AEAA_N_W@Z 0000000180065610 f i libucrtd:output.obj
 0001:00064770       ?type_case_c_tchar@?$output_processor@_WV?$string_output_adapter@_W@__crt_stdio_output@@V?$standard_base@_WV?$string_output_adapter@_W@__crt_stdio_output@@@2@@__crt_stdio_output@@AEAA_N_W@Z 0000000180065770 f i libucrtd:output.obj
 0001:000648d0       ?type_case_d@?$output_processor@DV?$stream_output_adapter@D@__crt_stdio_output@@V?$format_validation_base@DV?$stream_output_adapter@D@__crt_stdio_output@@@2@@__crt_stdio_output@@AEAA_NXZ 00000001800658d0 f i libucrtd:output.obj
 0001:00064900       ?type_case_d@?$output_processor@DV?$stream_output_adapter@D@__crt_stdio_output@@V?$positional_parameter_base@DV?$stream_output_adapter@D@__crt_stdio_output@@@2@@__crt_stdio_output@@AEAA_NXZ 0000000180065900 f i libucrtd:output.obj
 0001:00064930       ?type_case_d@?$output_processor@DV?$stream_output_adapter@D@__crt_stdio_output@@V?$standard_base@DV?$stream_output_adapter@D@__crt_stdio_output@@@2@@__crt_stdio_output@@AEAA_NXZ 0000000180065930 f i libucrtd:output.obj
 0001:00064960       ?type_case_d@?$output_processor@DV?$string_output_adapter@D@__crt_stdio_output@@V?$format_validation_base@DV?$string_output_adapter@D@__crt_stdio_output@@@2@@__crt_stdio_output@@AEAA_NXZ 0000000180065960 f i libucrtd:output.obj
 0001:00064990       ?type_case_d@?$output_processor@DV?$string_output_adapter@D@__crt_stdio_output@@V?$positional_parameter_base@DV?$string_output_adapter@D@__crt_stdio_output@@@2@@__crt_stdio_output@@AEAA_NXZ 0000000180065990 f i libucrtd:output.obj
 0001:000649c0       ?type_case_d@?$output_processor@DV?$string_output_adapter@D@__crt_stdio_output@@V?$standard_base@DV?$string_output_adapter@D@__crt_stdio_output@@@2@@__crt_stdio_output@@AEAA_NXZ 00000001800659c0 f i libucrtd:output.obj
 0001:000649f0       ?type_case_d@?$output_processor@_WV?$stream_output_adapter@_W@__crt_stdio_output@@V?$format_validation_base@_WV?$stream_output_adapter@_W@__crt_stdio_output@@@2@@__crt_stdio_output@@AEAA_NXZ 00000001800659f0 f i libucrtd:output.obj
 0001:00064a20       ?type_case_d@?$output_processor@_WV?$stream_output_adapter@_W@__crt_stdio_output@@V?$positional_parameter_base@_WV?$stream_output_adapter@_W@__crt_stdio_output@@@2@@__crt_stdio_output@@AEAA_NXZ 0000000180065a20 f i libucrtd:output.obj
 0001:00064a50       ?type_case_d@?$output_processor@_WV?$stream_output_adapter@_W@__crt_stdio_output@@V?$standard_base@_WV?$stream_output_adapter@_W@__crt_stdio_output@@@2@@__crt_stdio_output@@AEAA_NXZ 0000000180065a50 f i libucrtd:output.obj
 0001:00064a80       ?type_case_d@?$output_processor@_WV?$string_output_adapter@_W@__crt_stdio_output@@V?$format_validation_base@_WV?$string_output_adapter@_W@__crt_stdio_output@@@2@@__crt_stdio_output@@AEAA_NXZ 0000000180065a80 f i libucrtd:output.obj
 0001:00064ab0       ?type_case_d@?$output_processor@_WV?$string_output_adapter@_W@__crt_stdio_output@@V?$positional_parameter_base@_WV?$string_output_adapter@_W@__crt_stdio_output@@@2@@__crt_stdio_output@@AEAA_NXZ 0000000180065ab0 f i libucrtd:output.obj
 0001:00064ae0       ?type_case_d@?$output_processor@_WV?$string_output_adapter@_W@__crt_stdio_output@@V?$standard_base@_WV?$string_output_adapter@_W@__crt_stdio_output@@@2@@__crt_stdio_output@@AEAA_NXZ 0000000180065ae0 f i libucrtd:output.obj
 0001:00064b10       ?type_case_n@?$output_processor@DV?$stream_output_adapter@D@__crt_stdio_output@@V?$format_validation_base@DV?$stream_output_adapter@D@__crt_stdio_output@@@2@@__crt_stdio_output@@AEAA_NXZ 0000000180065b10 f i libucrtd:output.obj
 0001:00064da0       ?type_case_n@?$output_processor@DV?$stream_output_adapter@D@__crt_stdio_output@@V?$positional_parameter_base@DV?$stream_output_adapter@D@__crt_stdio_output@@@2@@__crt_stdio_output@@AEAA_NXZ 0000000180065da0 f i libucrtd:output.obj
 0001:00065030       ?type_case_n@?$output_processor@DV?$stream_output_adapter@D@__crt_stdio_output@@V?$standard_base@DV?$stream_output_adapter@D@__crt_stdio_output@@@2@@__crt_stdio_output@@AEAA_NXZ 0000000180066030 f i libucrtd:output.obj
 0001:000652c0       ?type_case_n@?$output_processor@DV?$string_output_adapter@D@__crt_stdio_output@@V?$format_validation_base@DV?$string_output_adapter@D@__crt_stdio_output@@@2@@__crt_stdio_output@@AEAA_NXZ 00000001800662c0 f i libucrtd:output.obj
 0001:00065550       ?type_case_n@?$output_processor@DV?$string_output_adapter@D@__crt_stdio_output@@V?$positional_parameter_base@DV?$string_output_adapter@D@__crt_stdio_output@@@2@@__crt_stdio_output@@AEAA_NXZ 0000000180066550 f i libucrtd:output.obj
 0001:000657e0       ?type_case_n@?$output_processor@DV?$string_output_adapter@D@__crt_stdio_output@@V?$standard_base@DV?$string_output_adapter@D@__crt_stdio_output@@@2@@__crt_stdio_output@@AEAA_NXZ 00000001800667e0 f i libucrtd:output.obj
 0001:00065a70       ?type_case_n@?$output_processor@_WV?$stream_output_adapter@_W@__crt_stdio_output@@V?$format_validation_base@_WV?$stream_output_adapter@_W@__crt_stdio_output@@@2@@__crt_stdio_output@@AEAA_NXZ 0000000180066a70 f i libucrtd:output.obj
 0001:00065d00       ?type_case_n@?$output_processor@_WV?$stream_output_adapter@_W@__crt_stdio_output@@V?$positional_parameter_base@_WV?$stream_output_adapter@_W@__crt_stdio_output@@@2@@__crt_stdio_output@@AEAA_NXZ 0000000180066d00 f i libucrtd:output.obj
 0001:00065f90       ?type_case_n@?$output_processor@_WV?$stream_output_adapter@_W@__crt_stdio_output@@V?$standard_base@_WV?$stream_output_adapter@_W@__crt_stdio_output@@@2@@__crt_stdio_output@@AEAA_NXZ 0000000180066f90 f i libucrtd:output.obj
 0001:00066220       ?type_case_n@?$output_processor@_WV?$string_output_adapter@_W@__crt_stdio_output@@V?$format_validation_base@_WV?$string_output_adapter@_W@__crt_stdio_output@@@2@@__crt_stdio_output@@AEAA_NXZ 0000000180067220 f i libucrtd:output.obj
 0001:000664b0       ?type_case_n@?$output_processor@_WV?$string_output_adapter@_W@__crt_stdio_output@@V?$positional_parameter_base@_WV?$string_output_adapter@_W@__crt_stdio_output@@@2@@__crt_stdio_output@@AEAA_NXZ 00000001800674b0 f i libucrtd:output.obj
 0001:00066740       ?type_case_n@?$output_processor@_WV?$string_output_adapter@_W@__crt_stdio_output@@V?$standard_base@_WV?$string_output_adapter@_W@__crt_stdio_output@@@2@@__crt_stdio_output@@AEAA_NXZ 0000000180067740 f i libucrtd:output.obj
 0001:000669d0       ?type_case_o@?$output_processor@DV?$stream_output_adapter@D@__crt_stdio_output@@V?$format_validation_base@DV?$stream_output_adapter@D@__crt_stdio_output@@@2@@__crt_stdio_output@@AEAA_NXZ 00000001800679d0 f i libucrtd:output.obj
 0001:00066a10       ?type_case_o@?$output_processor@DV?$stream_output_adapter@D@__crt_stdio_output@@V?$positional_parameter_base@DV?$stream_output_adapter@D@__crt_stdio_output@@@2@@__crt_stdio_output@@AEAA_NXZ 0000000180067a10 f i libucrtd:output.obj
 0001:00066a50       ?type_case_o@?$output_processor@DV?$stream_output_adapter@D@__crt_stdio_output@@V?$standard_base@DV?$stream_output_adapter@D@__crt_stdio_output@@@2@@__crt_stdio_output@@AEAA_NXZ 0000000180067a50 f i libucrtd:output.obj
 0001:00066a90       ?type_case_o@?$output_processor@DV?$string_output_adapter@D@__crt_stdio_output@@V?$format_validation_base@DV?$string_output_adapter@D@__crt_stdio_output@@@2@@__crt_stdio_output@@AEAA_NXZ 0000000180067a90 f i libucrtd:output.obj
 0001:00066ad0       ?type_case_o@?$output_processor@DV?$string_output_adapter@D@__crt_stdio_output@@V?$positional_parameter_base@DV?$string_output_adapter@D@__crt_stdio_output@@@2@@__crt_stdio_output@@AEAA_NXZ 0000000180067ad0 f i libucrtd:output.obj
 0001:00066b10       ?type_case_o@?$output_processor@DV?$string_output_adapter@D@__crt_stdio_output@@V?$standard_base@DV?$string_output_adapter@D@__crt_stdio_output@@@2@@__crt_stdio_output@@AEAA_NXZ 0000000180067b10 f i libucrtd:output.obj
 0001:00066b50       ?type_case_o@?$output_processor@_WV?$stream_output_adapter@_W@__crt_stdio_output@@V?$format_validation_base@_WV?$stream_output_adapter@_W@__crt_stdio_output@@@2@@__crt_stdio_output@@AEAA_NXZ 0000000180067b50 f i libucrtd:output.obj
 0001:00066b90       ?type_case_o@?$output_processor@_WV?$stream_output_adapter@_W@__crt_stdio_output@@V?$positional_parameter_base@_WV?$stream_output_adapter@_W@__crt_stdio_output@@@2@@__crt_stdio_output@@AEAA_NXZ 0000000180067b90 f i libucrtd:output.obj
 0001:00066bd0       ?type_case_o@?$output_processor@_WV?$stream_output_adapter@_W@__crt_stdio_output@@V?$standard_base@_WV?$stream_output_adapter@_W@__crt_stdio_output@@@2@@__crt_stdio_output@@AEAA_NXZ 0000000180067bd0 f i libucrtd:output.obj
 0001:00066c10       ?type_case_o@?$output_processor@_WV?$string_output_adapter@_W@__crt_stdio_output@@V?$format_validation_base@_WV?$string_output_adapter@_W@__crt_stdio_output@@@2@@__crt_stdio_output@@AEAA_NXZ 0000000180067c10 f i libucrtd:output.obj
 0001:00066c50       ?type_case_o@?$output_processor@_WV?$string_output_adapter@_W@__crt_stdio_output@@V?$positional_parameter_base@_WV?$string_output_adapter@_W@__crt_stdio_output@@@2@@__crt_stdio_output@@AEAA_NXZ 0000000180067c50 f i libucrtd:output.obj
 0001:00066c90       ?type_case_o@?$output_processor@_WV?$string_output_adapter@_W@__crt_stdio_output@@V?$standard_base@_WV?$string_output_adapter@_W@__crt_stdio_output@@@2@@__crt_stdio_output@@AEAA_NXZ 0000000180067c90 f i libucrtd:output.obj
 0001:00066cd0       ?type_case_p@?$output_processor@DV?$stream_output_adapter@D@__crt_stdio_output@@V?$format_validation_base@DV?$stream_output_adapter@D@__crt_stdio_output@@@2@@__crt_stdio_output@@AEAA_NXZ 0000000180067cd0 f i libucrtd:output.obj
 0001:00066d10       ?type_case_p@?$output_processor@DV?$stream_output_adapter@D@__crt_stdio_output@@V?$positional_parameter_base@DV?$stream_output_adapter@D@__crt_stdio_output@@@2@@__crt_stdio_output@@AEAA_NXZ 0000000180067d10 f i libucrtd:output.obj
 0001:00066d50       ?type_case_p@?$output_processor@DV?$stream_output_adapter@D@__crt_stdio_output@@V?$standard_base@DV?$stream_output_adapter@D@__crt_stdio_output@@@2@@__crt_stdio_output@@AEAA_NXZ 0000000180067d50 f i libucrtd:output.obj
 0001:00066d90       ?type_case_p@?$output_processor@DV?$string_output_adapter@D@__crt_stdio_output@@V?$format_validation_base@DV?$string_output_adapter@D@__crt_stdio_output@@@2@@__crt_stdio_output@@AEAA_NXZ 0000000180067d90 f i libucrtd:output.obj
 0001:00066dd0       ?type_case_p@?$output_processor@DV?$string_output_adapter@D@__crt_stdio_output@@V?$positional_parameter_base@DV?$string_output_adapter@D@__crt_stdio_output@@@2@@__crt_stdio_output@@AEAA_NXZ 0000000180067dd0 f i libucrtd:output.obj
 0001:00066e10       ?type_case_p@?$output_processor@DV?$string_output_adapter@D@__crt_stdio_output@@V?$standard_base@DV?$string_output_adapter@D@__crt_stdio_output@@@2@@__crt_stdio_output@@AEAA_NXZ 0000000180067e10 f i libucrtd:output.obj
 0001:00066e50       ?type_case_p@?$output_processor@_WV?$stream_output_adapter@_W@__crt_stdio_output@@V?$format_validation_base@_WV?$stream_output_adapter@_W@__crt_stdio_output@@@2@@__crt_stdio_output@@AEAA_NXZ 0000000180067e50 f i libucrtd:output.obj
 0001:00066e90       ?type_case_p@?$output_processor@_WV?$stream_output_adapter@_W@__crt_stdio_output@@V?$positional_parameter_base@_WV?$stream_output_adapter@_W@__crt_stdio_output@@@2@@__crt_stdio_output@@AEAA_NXZ 0000000180067e90 f i libucrtd:output.obj
 0001:00066ed0       ?type_case_p@?$output_processor@_WV?$stream_output_adapter@_W@__crt_stdio_output@@V?$standard_base@_WV?$stream_output_adapter@_W@__crt_stdio_output@@@2@@__crt_stdio_output@@AEAA_NXZ 0000000180067ed0 f i libucrtd:output.obj
 0001:00066f10       ?type_case_p@?$output_processor@_WV?$string_output_adapter@_W@__crt_stdio_output@@V?$format_validation_base@_WV?$string_output_adapter@_W@__crt_stdio_output@@@2@@__crt_stdio_output@@AEAA_NXZ 0000000180067f10 f i libucrtd:output.obj
 0001:00066f50       ?type_case_p@?$output_processor@_WV?$string_output_adapter@_W@__crt_stdio_output@@V?$positional_parameter_base@_WV?$string_output_adapter@_W@__crt_stdio_output@@@2@@__crt_stdio_output@@AEAA_NXZ 0000000180067f50 f i libucrtd:output.obj
 0001:00066f90       ?type_case_p@?$output_processor@_WV?$string_output_adapter@_W@__crt_stdio_output@@V?$standard_base@_WV?$string_output_adapter@_W@__crt_stdio_output@@@2@@__crt_stdio_output@@AEAA_NXZ 0000000180067f90 f i libucrtd:output.obj
 0001:00066fd0       ?type_case_s@?$output_processor@DV?$stream_output_adapter@D@__crt_stdio_output@@V?$format_validation_base@DV?$stream_output_adapter@D@__crt_stdio_output@@@2@@__crt_stdio_output@@AEAA_NXZ 0000000180067fd0 f i libucrtd:output.obj
 0001:000670f0       ?type_case_s@?$output_processor@DV?$stream_output_adapter@D@__crt_stdio_output@@V?$positional_parameter_base@DV?$stream_output_adapter@D@__crt_stdio_output@@@2@@__crt_stdio_output@@AEAA_NXZ 00000001800680f0 f i libucrtd:output.obj
 0001:00067210       ?type_case_s@?$output_processor@DV?$stream_output_adapter@D@__crt_stdio_output@@V?$standard_base@DV?$stream_output_adapter@D@__crt_stdio_output@@@2@@__crt_stdio_output@@AEAA_NXZ 0000000180068210 f i libucrtd:output.obj
 0001:00067330       ?type_case_s@?$output_processor@DV?$string_output_adapter@D@__crt_stdio_output@@V?$format_validation_base@DV?$string_output_adapter@D@__crt_stdio_output@@@2@@__crt_stdio_output@@AEAA_NXZ 0000000180068330 f i libucrtd:output.obj
 0001:00067450       ?type_case_s@?$output_processor@DV?$string_output_adapter@D@__crt_stdio_output@@V?$positional_parameter_base@DV?$string_output_adapter@D@__crt_stdio_output@@@2@@__crt_stdio_output@@AEAA_NXZ 0000000180068450 f i libucrtd:output.obj
 0001:00067570       ?type_case_s@?$output_processor@DV?$string_output_adapter@D@__crt_stdio_output@@V?$standard_base@DV?$string_output_adapter@D@__crt_stdio_output@@@2@@__crt_stdio_output@@AEAA_NXZ 0000000180068570 f i libucrtd:output.obj
 0001:00067690       ?type_case_s@?$output_processor@_WV?$stream_output_adapter@_W@__crt_stdio_output@@V?$format_validation_base@_WV?$stream_output_adapter@_W@__crt_stdio_output@@@2@@__crt_stdio_output@@AEAA_NXZ 0000000180068690 f i libucrtd:output.obj
 0001:000677b0       ?type_case_s@?$output_processor@_WV?$stream_output_adapter@_W@__crt_stdio_output@@V?$positional_parameter_base@_WV?$stream_output_adapter@_W@__crt_stdio_output@@@2@@__crt_stdio_output@@AEAA_NXZ 00000001800687b0 f i libucrtd:output.obj
 0001:000678d0       ?type_case_s@?$output_processor@_WV?$stream_output_adapter@_W@__crt_stdio_output@@V?$standard_base@_WV?$stream_output_adapter@_W@__crt_stdio_output@@@2@@__crt_stdio_output@@AEAA_NXZ 00000001800688d0 f i libucrtd:output.obj
 0001:000679f0       ?type_case_s@?$output_processor@_WV?$string_output_adapter@_W@__crt_stdio_output@@V?$format_validation_base@_WV?$string_output_adapter@_W@__crt_stdio_output@@@2@@__crt_stdio_output@@AEAA_NXZ 00000001800689f0 f i libucrtd:output.obj
 0001:00067b10       ?type_case_s@?$output_processor@_WV?$string_output_adapter@_W@__crt_stdio_output@@V?$positional_parameter_base@_WV?$string_output_adapter@_W@__crt_stdio_output@@@2@@__crt_stdio_output@@AEAA_NXZ 0000000180068b10 f i libucrtd:output.obj
 0001:00067c30       ?type_case_s@?$output_processor@_WV?$string_output_adapter@_W@__crt_stdio_output@@V?$standard_base@_WV?$string_output_adapter@_W@__crt_stdio_output@@@2@@__crt_stdio_output@@AEAA_NXZ 0000000180068c30 f i libucrtd:output.obj
 0001:00067d50       ?type_case_s_compute_narrow_string_length@?$output_processor@DV?$stream_output_adapter@D@__crt_stdio_output@@V?$format_validation_base@DV?$stream_output_adapter@D@__crt_stdio_output@@@2@@__crt_stdio_output@@AEAAHHD@Z 0000000180068d50 f i libucrtd:output.obj
 0001:00067d80       ?type_case_s_compute_narrow_string_length@?$output_processor@DV?$stream_output_adapter@D@__crt_stdio_output@@V?$positional_parameter_base@DV?$stream_output_adapter@D@__crt_stdio_output@@@2@@__crt_stdio_output@@AEAAHHD@Z 0000000180068d80 f i libucrtd:output.obj
 0001:00067db0       ?type_case_s_compute_narrow_string_length@?$output_processor@DV?$stream_output_adapter@D@__crt_stdio_output@@V?$standard_base@DV?$stream_output_adapter@D@__crt_stdio_output@@@2@@__crt_stdio_output@@AEAAHHD@Z 0000000180068db0 f i libucrtd:output.obj
 0001:00067de0       ?type_case_s_compute_narrow_string_length@?$output_processor@DV?$string_output_adapter@D@__crt_stdio_output@@V?$format_validation_base@DV?$string_output_adapter@D@__crt_stdio_output@@@2@@__crt_stdio_output@@AEAAHHD@Z 0000000180068de0 f i libucrtd:output.obj
 0001:00067e10       ?type_case_s_compute_narrow_string_length@?$output_processor@DV?$string_output_adapter@D@__crt_stdio_output@@V?$positional_parameter_base@DV?$string_output_adapter@D@__crt_stdio_output@@@2@@__crt_stdio_output@@AEAAHHD@Z 0000000180068e10 f i libucrtd:output.obj
 0001:00067e40       ?type_case_s_compute_narrow_string_length@?$output_processor@DV?$string_output_adapter@D@__crt_stdio_output@@V?$standard_base@DV?$string_output_adapter@D@__crt_stdio_output@@@2@@__crt_stdio_output@@AEAAHHD@Z 0000000180068e40 f i libucrtd:output.obj
 0001:00067e70       ?type_case_s_compute_narrow_string_length@?$output_processor@_WV?$stream_output_adapter@_W@__crt_stdio_output@@V?$format_validation_base@_WV?$stream_output_adapter@_W@__crt_stdio_output@@@2@@__crt_stdio_output@@AEAAHH_W@Z 0000000180068e70 f i libucrtd:output.obj
 0001:00067fc0       ?type_case_s_compute_narrow_string_length@?$output_processor@_WV?$stream_output_adapter@_W@__crt_stdio_output@@V?$positional_parameter_base@_WV?$stream_output_adapter@_W@__crt_stdio_output@@@2@@__crt_stdio_output@@AEAAHH_W@Z 0000000180068fc0 f i libucrtd:output.obj
 0001:00068110       ?type_case_s_compute_narrow_string_length@?$output_processor@_WV?$stream_output_adapter@_W@__crt_stdio_output@@V?$standard_base@_WV?$stream_output_adapter@_W@__crt_stdio_output@@@2@@__crt_stdio_output@@AEAAHH_W@Z 0000000180069110 f i libucrtd:output.obj
 0001:00068260       ?type_case_s_compute_narrow_string_length@?$output_processor@_WV?$string_output_adapter@_W@__crt_stdio_output@@V?$format_validation_base@_WV?$string_output_adapter@_W@__crt_stdio_output@@@2@@__crt_stdio_output@@AEAAHH_W@Z 0000000180069260 f i libucrtd:output.obj
 0001:000683b0       ?type_case_s_compute_narrow_string_length@?$output_processor@_WV?$string_output_adapter@_W@__crt_stdio_output@@V?$positional_parameter_base@_WV?$string_output_adapter@_W@__crt_stdio_output@@@2@@__crt_stdio_output@@AEAAHH_W@Z 00000001800693b0 f i libucrtd:output.obj
 0001:00068500       ?type_case_s_compute_narrow_string_length@?$output_processor@_WV?$string_output_adapter@_W@__crt_stdio_output@@V?$standard_base@_WV?$string_output_adapter@_W@__crt_stdio_output@@@2@@__crt_stdio_output@@AEAAHH_W@Z 0000000180069500 f i libucrtd:output.obj
 0001:00068650       ?type_case_u@?$output_processor@DV?$stream_output_adapter@D@__crt_stdio_output@@V?$format_validation_base@DV?$stream_output_adapter@D@__crt_stdio_output@@@2@@__crt_stdio_output@@AEAA_NXZ 0000000180069650 f i libucrtd:output.obj
 0001:00068670       ?type_case_u@?$output_processor@DV?$stream_output_adapter@D@__crt_stdio_output@@V?$positional_parameter_base@DV?$stream_output_adapter@D@__crt_stdio_output@@@2@@__crt_stdio_output@@AEAA_NXZ 0000000180069670 f i libucrtd:output.obj
 0001:00068690       ?type_case_u@?$output_processor@DV?$stream_output_adapter@D@__crt_stdio_output@@V?$standard_base@DV?$stream_output_adapter@D@__crt_stdio_output@@@2@@__crt_stdio_output@@AEAA_NXZ 0000000180069690 f i libucrtd:output.obj
 0001:000686b0       ?type_case_u@?$output_processor@DV?$string_output_adapter@D@__crt_stdio_output@@V?$format_validation_base@DV?$string_output_adapter@D@__crt_stdio_output@@@2@@__crt_stdio_output@@AEAA_NXZ 00000001800696b0 f i libucrtd:output.obj
 0001:000686d0       ?type_case_u@?$output_processor@DV?$string_output_adapter@D@__crt_stdio_output@@V?$positional_parameter_base@DV?$string_output_adapter@D@__crt_stdio_output@@@2@@__crt_stdio_output@@AEAA_NXZ 00000001800696d0 f i libucrtd:output.obj
 0001:000686f0       ?type_case_u@?$output_processor@DV?$string_output_adapter@D@__crt_stdio_output@@V?$standard_base@DV?$string_output_adapter@D@__crt_stdio_output@@@2@@__crt_stdio_output@@AEAA_NXZ 00000001800696f0 f i libucrtd:output.obj
 0001:00068710       ?type_case_u@?$output_processor@_WV?$stream_output_adapter@_W@__crt_stdio_output@@V?$format_validation_base@_WV?$stream_output_adapter@_W@__crt_stdio_output@@@2@@__crt_stdio_output@@AEAA_NXZ 0000000180069710 f i libucrtd:output.obj
 0001:00068730       ?type_case_u@?$output_processor@_WV?$stream_output_adapter@_W@__crt_stdio_output@@V?$positional_parameter_base@_WV?$stream_output_adapter@_W@__crt_stdio_output@@@2@@__crt_stdio_output@@AEAA_NXZ 0000000180069730 f i libucrtd:output.obj
 0001:00068750       ?type_case_u@?$output_processor@_WV?$stream_output_adapter@_W@__crt_stdio_output@@V?$standard_base@_WV?$stream_output_adapter@_W@__crt_stdio_output@@@2@@__crt_stdio_output@@AEAA_NXZ 0000000180069750 f i libucrtd:output.obj
 0001:00068770       ?type_case_u@?$output_processor@_WV?$string_output_adapter@_W@__crt_stdio_output@@V?$format_validation_base@_WV?$string_output_adapter@_W@__crt_stdio_output@@@2@@__crt_stdio_output@@AEAA_NXZ 0000000180069770 f i libucrtd:output.obj
 0001:00068790       ?type_case_u@?$output_processor@_WV?$string_output_adapter@_W@__crt_stdio_output@@V?$positional_parameter_base@_WV?$string_output_adapter@_W@__crt_stdio_output@@@2@@__crt_stdio_output@@AEAA_NXZ 0000000180069790 f i libucrtd:output.obj
 0001:000687b0       ?type_case_u@?$output_processor@_WV?$string_output_adapter@_W@__crt_stdio_output@@V?$standard_base@_WV?$string_output_adapter@_W@__crt_stdio_output@@@2@@__crt_stdio_output@@AEAA_NXZ 00000001800697b0 f i libucrtd:output.obj
 0001:000687d0       ?type_case_x@?$output_processor@DV?$stream_output_adapter@D@__crt_stdio_output@@V?$format_validation_base@DV?$stream_output_adapter@D@__crt_stdio_output@@@2@@__crt_stdio_output@@AEAA_NXZ 00000001800697d0 f i libucrtd:output.obj
 0001:000687f0       ?type_case_x@?$output_processor@DV?$stream_output_adapter@D@__crt_stdio_output@@V?$positional_parameter_base@DV?$stream_output_adapter@D@__crt_stdio_output@@@2@@__crt_stdio_output@@AEAA_NXZ 00000001800697f0 f i libucrtd:output.obj
 0001:00068810       ?type_case_x@?$output_processor@DV?$stream_output_adapter@D@__crt_stdio_output@@V?$standard_base@DV?$stream_output_adapter@D@__crt_stdio_output@@@2@@__crt_stdio_output@@AEAA_NXZ 0000000180069810 f i libucrtd:output.obj
 0001:00068830       ?type_case_x@?$output_processor@DV?$string_output_adapter@D@__crt_stdio_output@@V?$format_validation_base@DV?$string_output_adapter@D@__crt_stdio_output@@@2@@__crt_stdio_output@@AEAA_NXZ 0000000180069830 f i libucrtd:output.obj
 0001:00068850       ?type_case_x@?$output_processor@DV?$string_output_adapter@D@__crt_stdio_output@@V?$positional_parameter_base@DV?$string_output_adapter@D@__crt_stdio_output@@@2@@__crt_stdio_output@@AEAA_NXZ 0000000180069850 f i libucrtd:output.obj
 0001:00068870       ?type_case_x@?$output_processor@DV?$string_output_adapter@D@__crt_stdio_output@@V?$standard_base@DV?$string_output_adapter@D@__crt_stdio_output@@@2@@__crt_stdio_output@@AEAA_NXZ 0000000180069870 f i libucrtd:output.obj
 0001:00068890       ?type_case_x@?$output_processor@_WV?$stream_output_adapter@_W@__crt_stdio_output@@V?$format_validation_base@_WV?$stream_output_adapter@_W@__crt_stdio_output@@@2@@__crt_stdio_output@@AEAA_NXZ 0000000180069890 f i libucrtd:output.obj
 0001:000688b0       ?type_case_x@?$output_processor@_WV?$stream_output_adapter@_W@__crt_stdio_output@@V?$positional_parameter_base@_WV?$stream_output_adapter@_W@__crt_stdio_output@@@2@@__crt_stdio_output@@AEAA_NXZ 00000001800698b0 f i libucrtd:output.obj
 0001:000688d0       ?type_case_x@?$output_processor@_WV?$stream_output_adapter@_W@__crt_stdio_output@@V?$standard_base@_WV?$stream_output_adapter@_W@__crt_stdio_output@@@2@@__crt_stdio_output@@AEAA_NXZ 00000001800698d0 f i libucrtd:output.obj
 0001:000688f0       ?type_case_x@?$output_processor@_WV?$string_output_adapter@_W@__crt_stdio_output@@V?$format_validation_base@_WV?$string_output_adapter@_W@__crt_stdio_output@@@2@@__crt_stdio_output@@AEAA_NXZ 00000001800698f0 f i libucrtd:output.obj
 0001:00068910       ?type_case_x@?$output_processor@_WV?$string_output_adapter@_W@__crt_stdio_output@@V?$positional_parameter_base@_WV?$string_output_adapter@_W@__crt_stdio_output@@@2@@__crt_stdio_output@@AEAA_NXZ 0000000180069910 f i libucrtd:output.obj
 0001:00068930       ?type_case_x@?$output_processor@_WV?$string_output_adapter@_W@__crt_stdio_output@@V?$standard_base@_WV?$string_output_adapter@_W@__crt_stdio_output@@@2@@__crt_stdio_output@@AEAA_NXZ 0000000180069930 f i libucrtd:output.obj
 0001:00068950       ?unget@?$c_string_character_source@D@__crt_strtox@@QEAAXD@Z 0000000180069950 f i libucrtd:output.obj
 0001:00068a30       ?unget@?$c_string_character_source@_W@__crt_strtox@@QEAAX_W@Z 0000000180069a30 f i libucrtd:output.obj
 0001:00068b10       ?unsafe_value@?$cached@H@__crt_cached_ptd_host@@QEAAHXZ 0000000180069b10 f i libucrtd:output.obj
 0001:00068b20       ?unsafe_value@?$cached@K@__crt_cached_ptd_host@@QEAAKXZ 0000000180069b20 f i libucrtd:output.obj
 0001:00068b30       ?unset_flag@?$output_processor@DV?$stream_output_adapter@D@__crt_stdio_output@@V?$format_validation_base@DV?$stream_output_adapter@D@__crt_stdio_output@@@2@@__crt_stdio_output@@AEAAXI@Z 0000000180069b30 f i libucrtd:output.obj
 0001:00068b60       ?unset_flag@?$output_processor@DV?$stream_output_adapter@D@__crt_stdio_output@@V?$positional_parameter_base@DV?$stream_output_adapter@D@__crt_stdio_output@@@2@@__crt_stdio_output@@AEAAXI@Z 0000000180069b60 f i libucrtd:output.obj
 0001:00068b90       ?unset_flag@?$output_processor@DV?$stream_output_adapter@D@__crt_stdio_output@@V?$standard_base@DV?$stream_output_adapter@D@__crt_stdio_output@@@2@@__crt_stdio_output@@AEAAXI@Z 0000000180069b90 f i libucrtd:output.obj
 0001:00068bc0       ?unset_flag@?$output_processor@DV?$string_output_adapter@D@__crt_stdio_output@@V?$format_validation_base@DV?$string_output_adapter@D@__crt_stdio_output@@@2@@__crt_stdio_output@@AEAAXI@Z 0000000180069bc0 f i libucrtd:output.obj
 0001:00068bf0       ?unset_flag@?$output_processor@DV?$string_output_adapter@D@__crt_stdio_output@@V?$positional_parameter_base@DV?$string_output_adapter@D@__crt_stdio_output@@@2@@__crt_stdio_output@@AEAAXI@Z 0000000180069bf0 f i libucrtd:output.obj
 0001:00068c20       ?unset_flag@?$output_processor@DV?$string_output_adapter@D@__crt_stdio_output@@V?$standard_base@DV?$string_output_adapter@D@__crt_stdio_output@@@2@@__crt_stdio_output@@AEAAXI@Z 0000000180069c20 f i libucrtd:output.obj
 0001:00068c50       ?unset_flag@?$output_processor@_WV?$stream_output_adapter@_W@__crt_stdio_output@@V?$format_validation_base@_WV?$stream_output_adapter@_W@__crt_stdio_output@@@2@@__crt_stdio_output@@AEAAXI@Z 0000000180069c50 f i libucrtd:output.obj
 0001:00068c80       ?unset_flag@?$output_processor@_WV?$stream_output_adapter@_W@__crt_stdio_output@@V?$positional_parameter_base@_WV?$stream_output_adapter@_W@__crt_stdio_output@@@2@@__crt_stdio_output@@AEAAXI@Z 0000000180069c80 f i libucrtd:output.obj
 0001:00068cb0       ?unset_flag@?$output_processor@_WV?$stream_output_adapter@_W@__crt_stdio_output@@V?$standard_base@_WV?$stream_output_adapter@_W@__crt_stdio_output@@@2@@__crt_stdio_output@@AEAAXI@Z 0000000180069cb0 f i libucrtd:output.obj
 0001:00068ce0       ?unset_flag@?$output_processor@_WV?$string_output_adapter@_W@__crt_stdio_output@@V?$format_validation_base@_WV?$string_output_adapter@_W@__crt_stdio_output@@@2@@__crt_stdio_output@@AEAAXI@Z 0000000180069ce0 f i libucrtd:output.obj
 0001:00068d10       ?unset_flag@?$output_processor@_WV?$string_output_adapter@_W@__crt_stdio_output@@V?$positional_parameter_base@_WV?$string_output_adapter@_W@__crt_stdio_output@@@2@@__crt_stdio_output@@AEAAXI@Z 0000000180069d10 f i libucrtd:output.obj
 0001:00068d40       ?unset_flag@?$output_processor@_WV?$string_output_adapter@_W@__crt_stdio_output@@V?$standard_base@_WV?$string_output_adapter@_W@__crt_stdio_output@@@2@@__crt_stdio_output@@AEAAXI@Z 0000000180069d40 f i libucrtd:output.obj
 0001:00068d70       ?update_field_width@?$positional_parameter_base@DV?$stream_output_adapter@D@__crt_stdio_output@@@__crt_stdio_output@@IEAA_NXZ 0000000180069d70 f i libucrtd:output.obj
 0001:00068f70       ?update_field_width@?$positional_parameter_base@DV?$string_output_adapter@D@__crt_stdio_output@@@__crt_stdio_output@@IEAA_NXZ 0000000180069f70 f i libucrtd:output.obj
 0001:00069170       ?update_field_width@?$positional_parameter_base@_WV?$stream_output_adapter@_W@__crt_stdio_output@@@__crt_stdio_output@@IEAA_NXZ 000000018006a170 f i libucrtd:output.obj
 0001:00069370       ?update_field_width@?$positional_parameter_base@_WV?$string_output_adapter@_W@__crt_stdio_output@@@__crt_stdio_output@@IEAA_NXZ 000000018006a370 f i libucrtd:output.obj
 0001:00069570       ?update_field_width@?$standard_base@DV?$stream_output_adapter@D@__crt_stdio_output@@@__crt_stdio_output@@IEAA_NXZ 000000018006a570 f i libucrtd:output.obj
 0001:000695a0       ?update_field_width@?$standard_base@DV?$string_output_adapter@D@__crt_stdio_output@@@__crt_stdio_output@@IEAA_NXZ 000000018006a5a0 f i libucrtd:output.obj
 0001:000695d0       ?update_field_width@?$standard_base@_WV?$stream_output_adapter@_W@__crt_stdio_output@@@__crt_stdio_output@@IEAA_NXZ 000000018006a5d0 f i libucrtd:output.obj
 0001:00069600       ?update_field_width@?$standard_base@_WV?$string_output_adapter@_W@__crt_stdio_output@@@__crt_stdio_output@@IEAA_NXZ 000000018006a600 f i libucrtd:output.obj
 0001:00069630       ?update_locale@__crt_cached_ptd_host@@AEAAXXZ 000000018006a630 f i libucrtd:output.obj
 0001:00069660       ?update_locale_slow@__crt_cached_ptd_host@@AEAAXXZ 000000018006a660 f i libucrtd:output.obj
 0001:00069710       ?update_precision@?$positional_parameter_base@DV?$stream_output_adapter@D@__crt_stdio_output@@@__crt_stdio_output@@IEAA_NXZ 000000018006a710 f i libucrtd:output.obj
 0001:00069910       ?update_precision@?$positional_parameter_base@DV?$string_output_adapter@D@__crt_stdio_output@@@__crt_stdio_output@@IEAA_NXZ 000000018006a910 f i libucrtd:output.obj
 0001:00069b10       ?update_precision@?$positional_parameter_base@_WV?$stream_output_adapter@_W@__crt_stdio_output@@@__crt_stdio_output@@IEAA_NXZ 000000018006ab10 f i libucrtd:output.obj
 0001:00069d10       ?update_precision@?$positional_parameter_base@_WV?$string_output_adapter@_W@__crt_stdio_output@@@__crt_stdio_output@@IEAA_NXZ 000000018006ad10 f i libucrtd:output.obj
 0001:00069f10       ?update_precision@?$standard_base@DV?$stream_output_adapter@D@__crt_stdio_output@@@__crt_stdio_output@@IEAA_NXZ 000000018006af10 f i libucrtd:output.obj
 0001:00069f40       ?update_precision@?$standard_base@DV?$string_output_adapter@D@__crt_stdio_output@@@__crt_stdio_output@@IEAA_NXZ 000000018006af40 f i libucrtd:output.obj
 0001:00069f70       ?update_precision@?$standard_base@_WV?$stream_output_adapter@_W@__crt_stdio_output@@@__crt_stdio_output@@IEAA_NXZ 000000018006af70 f i libucrtd:output.obj
 0001:00069fa0       ?update_precision@?$standard_base@_WV?$string_output_adapter@_W@__crt_stdio_output@@@__crt_stdio_output@@IEAA_NXZ 000000018006afa0 f i libucrtd:output.obj
 0001:00069fd0       ?valid@?$cached@H@__crt_cached_ptd_host@@QEBA_NXZ 000000018006afd0 f i libucrtd:output.obj
 0001:00069fe0       ?valid@?$cached@K@__crt_cached_ptd_host@@QEBA_NXZ 000000018006afe0 f i libucrtd:output.obj
 0001:00069ff0       ?valid@__crt_stdio_stream@@QEBA_NXZ 000000018006aff0 f i libucrtd:output.obj
 0001:0006a020       ?validate@?$c_string_character_source@D@__crt_strtox@@QEBA_NXZ 000000018006b020 f i libucrtd:output.obj
 0001:0006a0e0       ?validate@?$c_string_character_source@_W@__crt_strtox@@QEBA_NXZ 000000018006b0e0 f i libucrtd:output.obj
 0001:0006a1a0       ?validate@?$stream_output_adapter@D@__crt_stdio_output@@QEBA_NAEAV__crt_cached_ptd_host@@@Z 000000018006b1a0 f i libucrtd:output.obj
 0001:0006a2a0       ?validate@?$stream_output_adapter@_W@__crt_stdio_output@@QEBA_NAEAV__crt_cached_ptd_host@@@Z 000000018006b2a0 f i libucrtd:output.obj
 0001:0006a3a0       ?validate@?$string_output_adapter@D@__crt_stdio_output@@QEBA_NAEAV__crt_cached_ptd_host@@@Z 000000018006b3a0 f i libucrtd:output.obj
 0001:0006a480       ?validate@?$string_output_adapter@_W@__crt_stdio_output@@QEBA_NAEAV__crt_cached_ptd_host@@@Z 000000018006b480 f i libucrtd:output.obj
 0001:0006a560       ?validate_and_store_parameter_data@?$positional_parameter_base@DV?$stream_output_adapter@D@__crt_stdio_output@@@__crt_stdio_output@@AEAA_NAEAUparameter_data@12@W4parameter_type@12@DW4length_modifier@2@@Z 000000018006b560 f i libucrtd:output.obj
 0001:0006a6a0       ?validate_and_store_parameter_data@?$positional_parameter_base@DV?$string_output_adapter@D@__crt_stdio_output@@@__crt_stdio_output@@AEAA_NAEAUparameter_data@12@W4parameter_type@12@DW4length_modifier@2@@Z 000000018006b6a0 f i libucrtd:output.obj
 0001:0006a7e0       ?validate_and_store_parameter_data@?$positional_parameter_base@_WV?$stream_output_adapter@_W@__crt_stdio_output@@@__crt_stdio_output@@AEAA_NAEAUparameter_data@12@W4parameter_type@12@_WW4length_modifier@2@@Z 000000018006b7e0 f i libucrtd:output.obj
 0001:0006a920       ?validate_and_store_parameter_data@?$positional_parameter_base@_WV?$string_output_adapter@_W@__crt_stdio_output@@@__crt_stdio_output@@AEAA_NAEAUparameter_data@12@W4parameter_type@12@_WW4length_modifier@2@@Z 000000018006b920 f i libucrtd:output.obj
 0001:0006aa60       ?validate_and_update_state_at_beginning_of_format_character@?$positional_parameter_base@DV?$stream_output_adapter@D@__crt_stdio_output@@@__crt_stdio_output@@IEAA_NXZ 000000018006ba60 f i libucrtd:output.obj
 0001:0006ad00       ?validate_and_update_state_at_beginning_of_format_character@?$positional_parameter_base@DV?$string_output_adapter@D@__crt_stdio_output@@@__crt_stdio_output@@IEAA_NXZ 000000018006bd00 f i libucrtd:output.obj
 0001:0006afa0       ?validate_and_update_state_at_beginning_of_format_character@?$positional_parameter_base@_WV?$stream_output_adapter@_W@__crt_stdio_output@@@__crt_stdio_output@@IEAA_NXZ 000000018006bfa0 f i libucrtd:output.obj
 0001:0006b240       ?validate_and_update_state_at_beginning_of_format_character@?$positional_parameter_base@_WV?$string_output_adapter@_W@__crt_stdio_output@@@__crt_stdio_output@@IEAA_NXZ 000000018006c240 f i libucrtd:output.obj
 0001:0006b4e0       ?validate_and_update_state_at_beginning_of_format_character@?$standard_base@DV?$stream_output_adapter@D@__crt_stdio_output@@@__crt_stdio_output@@IEAA_NXZ 000000018006c4e0 f i libucrtd:output.obj
 0001:0006b4f0       ?validate_and_update_state_at_beginning_of_format_character@?$standard_base@DV?$string_output_adapter@D@__crt_stdio_output@@@__crt_stdio_output@@IEAA_NXZ 000000018006c4f0 f i libucrtd:output.obj
 0001:0006b500       ?validate_and_update_state_at_beginning_of_format_character@?$standard_base@_WV?$stream_output_adapter@_W@__crt_stdio_output@@@__crt_stdio_output@@IEAA_NXZ 000000018006c500 f i libucrtd:output.obj
 0001:0006b510       ?validate_and_update_state_at_beginning_of_format_character@?$standard_base@_WV?$string_output_adapter@_W@__crt_stdio_output@@@__crt_stdio_output@@IEAA_NXZ 000000018006c510 f i libucrtd:output.obj
 0001:0006b520       ?validate_and_update_state_at_end_of_format_string@?$format_validation_base@DV?$stream_output_adapter@D@__crt_stdio_output@@@__crt_stdio_output@@IEAA_NXZ 000000018006c520 f i libucrtd:output.obj
 0001:0006b610       ?validate_and_update_state_at_end_of_format_string@?$format_validation_base@DV?$string_output_adapter@D@__crt_stdio_output@@@__crt_stdio_output@@IEAA_NXZ 000000018006c610 f i libucrtd:output.obj
 0001:0006b700       ?validate_and_update_state_at_end_of_format_string@?$format_validation_base@_WV?$stream_output_adapter@_W@__crt_stdio_output@@@__crt_stdio_output@@IEAA_NXZ 000000018006c700 f i libucrtd:output.obj
 0001:0006b7f0       ?validate_and_update_state_at_end_of_format_string@?$format_validation_base@_WV?$string_output_adapter@_W@__crt_stdio_output@@@__crt_stdio_output@@IEAA_NXZ 000000018006c7f0 f i libucrtd:output.obj
 0001:0006b8e0       ?validate_and_update_state_at_end_of_format_string@?$positional_parameter_base@DV?$stream_output_adapter@D@__crt_stdio_output@@@__crt_stdio_output@@IEAA_NXZ 000000018006c8e0 f i libucrtd:output.obj
 0001:0006bb10       ?validate_and_update_state_at_end_of_format_string@?$positional_parameter_base@DV?$string_output_adapter@D@__crt_stdio_output@@@__crt_stdio_output@@IEAA_NXZ 000000018006cb10 f i libucrtd:output.obj
 0001:0006bd40       ?validate_and_update_state_at_end_of_format_string@?$positional_parameter_base@_WV?$stream_output_adapter@_W@__crt_stdio_output@@@__crt_stdio_output@@IEAA_NXZ 000000018006cd40 f i libucrtd:output.obj
 0001:0006bf70       ?validate_and_update_state_at_end_of_format_string@?$positional_parameter_base@_WV?$string_output_adapter@_W@__crt_stdio_output@@@__crt_stdio_output@@IEAA_NXZ 000000018006cf70 f i libucrtd:output.obj
 0001:0006c1a0       ?validate_and_update_state_at_end_of_format_string@?$standard_base@DV?$stream_output_adapter@D@__crt_stdio_output@@@__crt_stdio_output@@IEBA_NXZ 000000018006d1a0 f i libucrtd:output.obj
 0001:0006c1b0       ?validate_and_update_state_at_end_of_format_string@?$standard_base@DV?$string_output_adapter@D@__crt_stdio_output@@@__crt_stdio_output@@IEBA_NXZ 000000018006d1b0 f i libucrtd:output.obj
 0001:0006c1c0       ?validate_and_update_state_at_end_of_format_string@?$standard_base@_WV?$stream_output_adapter@_W@__crt_stdio_output@@@__crt_stdio_output@@IEBA_NXZ 000000018006d1c0 f i libucrtd:output.obj
 0001:0006c1d0       ?validate_and_update_state_at_end_of_format_string@?$standard_base@_WV?$string_output_adapter@_W@__crt_stdio_output@@@__crt_stdio_output@@IEBA_NXZ 000000018006d1d0 f i libucrtd:output.obj
 0001:0006c1e0       ?validate_state_for_type_case_a@?$positional_parameter_base@DV?$stream_output_adapter@D@__crt_stdio_output@@@__crt_stdio_output@@IEAA_NXZ 000000018006d1e0 f i libucrtd:output.obj
 0001:0006c340       ?validate_state_for_type_case_a@?$positional_parameter_base@DV?$string_output_adapter@D@__crt_stdio_output@@@__crt_stdio_output@@IEAA_NXZ 000000018006d340 f i libucrtd:output.obj
 0001:0006c4a0       ?validate_state_for_type_case_a@?$positional_parameter_base@_WV?$stream_output_adapter@_W@__crt_stdio_output@@@__crt_stdio_output@@IEAA_NXZ 000000018006d4a0 f i libucrtd:output.obj
 0001:0006c600       ?validate_state_for_type_case_a@?$positional_parameter_base@_WV?$string_output_adapter@_W@__crt_stdio_output@@@__crt_stdio_output@@IEAA_NXZ 000000018006d600 f i libucrtd:output.obj
 0001:0006c760       ?validate_state_for_type_case_a@?$standard_base@DV?$stream_output_adapter@D@__crt_stdio_output@@@__crt_stdio_output@@IEBA_NXZ 000000018006d760 f i libucrtd:output.obj
 0001:0006c770       ?validate_state_for_type_case_a@?$standard_base@DV?$string_output_adapter@D@__crt_stdio_output@@@__crt_stdio_output@@IEBA_NXZ 000000018006d770 f i libucrtd:output.obj
 0001:0006c780       ?validate_state_for_type_case_a@?$standard_base@_WV?$stream_output_adapter@_W@__crt_stdio_output@@@__crt_stdio_output@@IEBA_NXZ 000000018006d780 f i libucrtd:output.obj
 0001:0006c790       ?validate_state_for_type_case_a@?$standard_base@_WV?$string_output_adapter@_W@__crt_stdio_output@@@__crt_stdio_output@@IEBA_NXZ 000000018006d790 f i libucrtd:output.obj
 0001:0006c7a0       ?validate_stream_is_ansi_if_required@?$__acrt_stdio_char_traits@D@@SA_NQEAU_iobuf@@@Z 000000018006d7a0 f i libucrtd:output.obj
 0001:0006c940       ?validate_stream_is_ansi_if_required@?$__acrt_stdio_char_traits@_W@@SA_NQEAU_iobuf@@@Z 000000018006d940 f i libucrtd:output.obj
 0001:0006c950       ?wide_character_to_digit@__crt_strtox@@YAH_W@Z 000000018006d950 f i libucrtd:output.obj
 0001:0006ccc0       ?wide_null_string@?$output_processor@DV?$stream_output_adapter@D@__crt_stdio_output@@V?$format_validation_base@DV?$stream_output_adapter@D@__crt_stdio_output@@@2@@__crt_stdio_output@@CAPEA_WXZ 000000018006dcc0 f i libucrtd:output.obj
 0001:0006ccd0       ?wide_null_string@?$output_processor@DV?$stream_output_adapter@D@__crt_stdio_output@@V?$positional_parameter_base@DV?$stream_output_adapter@D@__crt_stdio_output@@@2@@__crt_stdio_output@@CAPEA_WXZ 000000018006dcd0 f i libucrtd:output.obj
 0001:0006cce0       ?wide_null_string@?$output_processor@DV?$stream_output_adapter@D@__crt_stdio_output@@V?$standard_base@DV?$stream_output_adapter@D@__crt_stdio_output@@@2@@__crt_stdio_output@@CAPEA_WXZ 000000018006dce0 f i libucrtd:output.obj
 0001:0006ccf0       ?wide_null_string@?$output_processor@DV?$string_output_adapter@D@__crt_stdio_output@@V?$format_validation_base@DV?$string_output_adapter@D@__crt_stdio_output@@@2@@__crt_stdio_output@@CAPEA_WXZ 000000018006dcf0 f i libucrtd:output.obj
 0001:0006cd00       ?wide_null_string@?$output_processor@DV?$string_output_adapter@D@__crt_stdio_output@@V?$positional_parameter_base@DV?$string_output_adapter@D@__crt_stdio_output@@@2@@__crt_stdio_output@@CAPEA_WXZ 000000018006dd00 f i libucrtd:output.obj
 0001:0006cd10       ?wide_null_string@?$output_processor@DV?$string_output_adapter@D@__crt_stdio_output@@V?$standard_base@DV?$string_output_adapter@D@__crt_stdio_output@@@2@@__crt_stdio_output@@CAPEA_WXZ 000000018006dd10 f i libucrtd:output.obj
 0001:0006cd20       ?wide_null_string@?$output_processor@_WV?$stream_output_adapter@_W@__crt_stdio_output@@V?$format_validation_base@_WV?$stream_output_adapter@_W@__crt_stdio_output@@@2@@__crt_stdio_output@@CAPEA_WXZ 000000018006dd20 f i libucrtd:output.obj
 0001:0006cd30       ?wide_null_string@?$output_processor@_WV?$stream_output_adapter@_W@__crt_stdio_output@@V?$positional_parameter_base@_WV?$stream_output_adapter@_W@__crt_stdio_output@@@2@@__crt_stdio_output@@CAPEA_WXZ 000000018006dd30 f i libucrtd:output.obj
 0001:0006cd40       ?wide_null_string@?$output_processor@_WV?$stream_output_adapter@_W@__crt_stdio_output@@V?$standard_base@_WV?$stream_output_adapter@_W@__crt_stdio_output@@@2@@__crt_stdio_output@@CAPEA_WXZ 000000018006dd40 f i libucrtd:output.obj
 0001:0006cd50       ?wide_null_string@?$output_processor@_WV?$string_output_adapter@_W@__crt_stdio_output@@V?$format_validation_base@_WV?$string_output_adapter@_W@__crt_stdio_output@@@2@@__crt_stdio_output@@CAPEA_WXZ 000000018006dd50 f i libucrtd:output.obj
 0001:0006cd60       ?wide_null_string@?$output_processor@_WV?$string_output_adapter@_W@__crt_stdio_output@@V?$positional_parameter_base@_WV?$string_output_adapter@_W@__crt_stdio_output@@@2@@__crt_stdio_output@@CAPEA_WXZ 000000018006dd60 f i libucrtd:output.obj
 0001:0006cd70       ?wide_null_string@?$output_processor@_WV?$string_output_adapter@_W@__crt_stdio_output@@V?$standard_base@_WV?$string_output_adapter@_W@__crt_stdio_output@@@2@@__crt_stdio_output@@CAPEA_WXZ 000000018006dd70 f i libucrtd:output.obj
 0001:0006cd80       ?write_character@?$output_adapter_common@DV?$stream_output_adapter@D@__crt_stdio_output@@@__crt_stdio_output@@QEBAXDQEAHAEAV__crt_cached_ptd_host@@@Z 000000018006dd80 f i libucrtd:output.obj
 0001:0006cde0       ?write_character@?$output_adapter_common@_WV?$stream_output_adapter@_W@__crt_stdio_output@@@__crt_stdio_output@@QEBAX_WQEAHAEAV__crt_cached_ptd_host@@@Z 000000018006dde0 f i libucrtd:output.obj
 0001:0006ce40       ?write_character@?$string_output_adapter@D@__crt_stdio_output@@QEBA_NDQEAHAEAV__crt_cached_ptd_host@@@Z 000000018006de40 f i libucrtd:output.obj
 0001:0006cf10       ?write_character@?$string_output_adapter@_W@__crt_stdio_output@@QEBA_N_WQEAHAEAV__crt_cached_ptd_host@@@Z 000000018006df10 f i libucrtd:output.obj
 0001:0006cfe0       ?write_character_without_count_update@?$stream_output_adapter@D@__crt_stdio_output@@QEBA_NDAEAV__crt_cached_ptd_host@@@Z 000000018006dfe0 f i libucrtd:output.obj
 0001:0006d070       ?write_character_without_count_update@?$stream_output_adapter@_W@__crt_stdio_output@@QEBA_N_WAEAV__crt_cached_ptd_host@@@Z 000000018006e070 f i libucrtd:output.obj
 0001:0006d100       ?write_stored_string_tchar@?$output_processor@DV?$stream_output_adapter@D@__crt_stdio_output@@V?$format_validation_base@DV?$stream_output_adapter@D@__crt_stdio_output@@@2@@__crt_stdio_output@@AEAA_ND@Z 000000018006e100 f i libucrtd:output.obj
 0001:0006d3f0       ?write_stored_string_tchar@?$output_processor@DV?$stream_output_adapter@D@__crt_stdio_output@@V?$positional_parameter_base@DV?$stream_output_adapter@D@__crt_stdio_output@@@2@@__crt_stdio_output@@AEAA_ND@Z 000000018006e3f0 f i libucrtd:output.obj
 0001:0006d6e0       ?write_stored_string_tchar@?$output_processor@DV?$stream_output_adapter@D@__crt_stdio_output@@V?$standard_base@DV?$stream_output_adapter@D@__crt_stdio_output@@@2@@__crt_stdio_output@@AEAA_ND@Z 000000018006e6e0 f i libucrtd:output.obj
 0001:0006d9d0       ?write_stored_string_tchar@?$output_processor@DV?$string_output_adapter@D@__crt_stdio_output@@V?$format_validation_base@DV?$string_output_adapter@D@__crt_stdio_output@@@2@@__crt_stdio_output@@AEAA_ND@Z 000000018006e9d0 f i libucrtd:output.obj
 0001:0006dcc0       ?write_stored_string_tchar@?$output_processor@DV?$string_output_adapter@D@__crt_stdio_output@@V?$positional_parameter_base@DV?$string_output_adapter@D@__crt_stdio_output@@@2@@__crt_stdio_output@@AEAA_ND@Z 000000018006ecc0 f i libucrtd:output.obj
 0001:0006dfb0       ?write_stored_string_tchar@?$output_processor@DV?$string_output_adapter@D@__crt_stdio_output@@V?$standard_base@DV?$string_output_adapter@D@__crt_stdio_output@@@2@@__crt_stdio_output@@AEAA_ND@Z 000000018006efb0 f i libucrtd:output.obj
 0001:0006e2a0       ?write_stored_string_tchar@?$output_processor@_WV?$stream_output_adapter@_W@__crt_stdio_output@@V?$format_validation_base@_WV?$stream_output_adapter@_W@__crt_stdio_output@@@2@@__crt_stdio_output@@AEAA_N_W@Z 000000018006f2a0 f i libucrtd:output.obj
 0001:0006e5c0       ?write_stored_string_tchar@?$output_processor@_WV?$stream_output_adapter@_W@__crt_stdio_output@@V?$positional_parameter_base@_WV?$stream_output_adapter@_W@__crt_stdio_output@@@2@@__crt_stdio_output@@AEAA_N_W@Z 000000018006f5c0 f i libucrtd:output.obj
 0001:0006e8e0       ?write_stored_string_tchar@?$output_processor@_WV?$stream_output_adapter@_W@__crt_stdio_output@@V?$standard_base@_WV?$stream_output_adapter@_W@__crt_stdio_output@@@2@@__crt_stdio_output@@AEAA_N_W@Z 000000018006f8e0 f i libucrtd:output.obj
 0001:0006ec00       ?write_stored_string_tchar@?$output_processor@_WV?$string_output_adapter@_W@__crt_stdio_output@@V?$format_validation_base@_WV?$string_output_adapter@_W@__crt_stdio_output@@@2@@__crt_stdio_output@@AEAA_N_W@Z 000000018006fc00 f i libucrtd:output.obj
 0001:0006ef20       ?write_stored_string_tchar@?$output_processor@_WV?$string_output_adapter@_W@__crt_stdio_output@@V?$positional_parameter_base@_WV?$string_output_adapter@_W@__crt_stdio_output@@@2@@__crt_stdio_output@@AEAA_N_W@Z 000000018006ff20 f i libucrtd:output.obj
 0001:0006f240       ?write_stored_string_tchar@?$output_processor@_WV?$string_output_adapter@_W@__crt_stdio_output@@V?$standard_base@_WV?$string_output_adapter@_W@__crt_stdio_output@@@2@@__crt_stdio_output@@AEAA_N_W@Z 0000000180070240 f i libucrtd:output.obj
 0001:0006f560       ?write_string@?$stream_output_adapter@D@__crt_stdio_output@@QEBAXQEBDHQEAHAEAV__crt_cached_ptd_host@@@Z 0000000180070560 f i libucrtd:output.obj
 0001:0006f5e0       ?write_string@?$stream_output_adapter@_W@__crt_stdio_output@@QEBAXQEB_WHQEAHAEAV__crt_cached_ptd_host@@@Z 00000001800705e0 f i libucrtd:output.obj
 0001:0006f660       ?write_string@?$string_output_adapter@D@__crt_stdio_output@@QEBAXQEBDHQEAHAEAV__crt_cached_ptd_host@@@Z 0000000180070660 f i libucrtd:output.obj
 0001:0006f7d0       ?write_string@?$string_output_adapter@_W@__crt_stdio_output@@QEBAXQEB_WHQEAHAEAV__crt_cached_ptd_host@@@Z 00000001800707d0 f i libucrtd:output.obj
 0001:0006f940       ?write_string_impl@?$output_adapter_common@DV?$stream_output_adapter@D@__crt_stdio_output@@@__crt_stdio_output@@IEBAXQEBDHQEAHAEAV__crt_cached_ptd_host@@@Z 0000000180070940 f i libucrtd:output.obj
 0001:0006fa60       ?write_string_impl@?$output_adapter_common@_WV?$stream_output_adapter@_W@__crt_stdio_output@@@__crt_stdio_output@@IEBAXQEB_WHQEAHAEAV__crt_cached_ptd_host@@@Z 0000000180070a60 f i libucrtd:output.obj
 0001:0006fb80       __acrt_isleadbyte_l_noupdate 0000000180070b80 f i libucrtd:output.obj
 0001:0006fbb0       __acrt_locale_get_ctype_array_value 0000000180070bb0 f i libucrtd:output.obj
 0001:0006fbf0       __ascii_iswalpha           0000000180070bf0 f i libucrtd:output.obj
 0001:0006fc30       __ascii_toupper            0000000180070c30 f i libucrtd:output.obj
 0001:0006fc50       __ascii_towupper           0000000180070c50 f i libucrtd:output.obj
 0001:0006fc70       __stdio_common_vfprintf    0000000180070c70 f   libucrtd:output.obj
 0001:0006fcf0       __stdio_common_vfprintf_p  0000000180070cf0 f   libucrtd:output.obj
 0001:0006fd70       __stdio_common_vfprintf_s  0000000180070d70 f   libucrtd:output.obj
 0001:0006fdf0       __stdio_common_vfwprintf   0000000180070df0 f   libucrtd:output.obj
 0001:0006fe70       __stdio_common_vfwprintf_p 0000000180070e70 f   libucrtd:output.obj
 0001:0006fef0       __stdio_common_vfwprintf_s 0000000180070ef0 f   libucrtd:output.obj
 0001:0006ff70       __stdio_common_vsnprintf_s 0000000180070f70 f   libucrtd:output.obj
 0001:00070000       __stdio_common_vsnwprintf_s 0000000180071000 f   libucrtd:output.obj
 0001:00070090       __stdio_common_vsprintf    0000000180071090 f   libucrtd:output.obj
 0001:00070120       __stdio_common_vsprintf_p  0000000180071120 f   libucrtd:output.obj
 0001:000701b0       __stdio_common_vsprintf_s  00000001800711b0 f   libucrtd:output.obj
 0001:00070240       __stdio_common_vswprintf   0000000180071240 f   libucrtd:output.obj
 0001:000702d0       __stdio_common_vswprintf_p 00000001800712d0 f   libucrtd:output.obj
 0001:00070360       __stdio_common_vswprintf_s 0000000180071360 f   libucrtd:output.obj
 0001:000703f0       _ctype_fast_check_internal 00000001800713f0 f i libucrtd:output.obj
 0001:00070420       _isdigit_fast_internal     0000000180071420 f i libucrtd:output.obj
 0001:00070450       _tolower_fast_internal     0000000180071450 f i libucrtd:output.obj
 0001:00071280       _makepath                  0000000180072280 f   libucrtd:makepath.obj
 0001:000712d0       _makepath_s                00000001800722d0 f   libucrtd:makepath.obj
 0001:00071320       _wmakepath                 0000000180072320 f   libucrtd:makepath.obj
 0001:00071370       _wmakepath_s               0000000180072370 f   libucrtd:makepath.obj
 0001:000739e0       ??$tcsncpy_s@AEAPEAD_KAEAPEBDAEB_K@?$__crt_char_traits@D@@SAHAEAPEAD$$QEA_KAEAPEBDAEB_K@Z 00000001800749e0 f i libucrtd:splitpath.obj
 0001:00073a30       ??$tcsncpy_s@AEAPEAD_KAEAPEBDH@?$__crt_char_traits@D@@SAHAEAPEAD$$QEA_KAEAPEBD$$QEAH@Z 0000000180074a30 f i libucrtd:splitpath.obj
 0001:00073a80       ??$tcsncpy_s@AEAPEA_W_KAEAPEB_WAEB_K@?$__crt_char_traits@_W@@SAHAEAPEA_W$$QEA_KAEAPEB_WAEB_K@Z 0000000180074a80 f i libucrtd:splitpath.obj
 0001:00073ad0       ??$tcsncpy_s@AEAPEA_W_KAEAPEB_WH@?$__crt_char_traits@_W@@SAHAEAPEA_W$$QEA_KAEAPEB_W$$QEAH@Z 0000000180074ad0 f i libucrtd:splitpath.obj
 0001:00073d80       _splitpath                 0000000180074d80 f   libucrtd:splitpath.obj
 0001:00073dc0       _splitpath_s               0000000180074dc0 f   libucrtd:splitpath.obj
 0001:00073e60       _wsplitpath                0000000180074e60 f   libucrtd:splitpath.obj
 0001:00073ea0       _wsplitpath_s              0000000180074ea0 f   libucrtd:splitpath.obj
 0001:00074440       wcscpy_s                   0000000180075440 f   libucrtd:wcscpy_s.obj
 0001:00074470       _set_abort_behavior        0000000180075470 f   libucrtd:abort.obj
 0001:000744b0       abort                      00000001800754b0 f   libucrtd:abort.obj
 0001:00074530       ??$__crt_fast_decode_pointer@P6AXPEB_W00I_K@Z@@YAP6AXPEB_W00I_K@ZQ6AX000I1@Z@Z 0000000180075530 f i libucrtd:invalid_parameter.obj
 0001:00074570       ??$__crt_fast_encode_pointer@P6AXPEB_W00I_K@Z@@YAP6AXPEB_W00I_K@ZQ6AX000I1@Z@Z 0000000180075570 f i libucrtd:invalid_parameter.obj
 0001:000745b0       ??$initialize_from_array@$$BY00Q6AXPEB_W00I_K@Z@?$dual_state_global@P6AXPEB_W00I_K@Z@__crt_state_management@@QEAAXAEAY00Q6AXPEB_W00I_K@Z@Z 00000001800755b0 f i libucrtd:invalid_parameter.obj
 0001:000746d0       ?check_synchronize_global_state_index@__crt_cached_ptd_host@@AEAA_KXZ 00000001800756d0 f i libucrtd:invalid_parameter.obj
 0001:00074730       ?dangerous_get_state_array@?$dual_state_global@P6AXPEB_W00I_K@Z@__crt_state_management@@QEAAPEAP6AXPEB_W00I_K@ZXZ 0000000180075730 f i libucrtd:invalid_parameter.obj
 0001:00074740       ?get_current_global_state_index@__crt_cached_ptd_host@@QEAA_KXZ 0000000180075740 f i libucrtd:invalid_parameter.obj
 0001:00074760       ?get_raw_ptd_noexit@__crt_cached_ptd_host@@QEAAPEAU__acrt_ptd@@XZ 0000000180075760 f i libucrtd:invalid_parameter.obj
 0001:00074780       ?try_synchronize_per_thread_data@__crt_cached_ptd_host@@AEAAPEAU__acrt_ptd@@XZ 0000000180075780 f i libucrtd:invalid_parameter.obj
 0001:000747b0       ?value@?$dual_state_global@P6AXPEB_W00I_K@Z@__crt_state_management@@QEAAAEAP6AXPEB_W00I_K@ZAEAV__crt_cached_ptd_host@@@Z 00000001800757b0 f i libucrtd:invalid_parameter.obj
 0001:000747e0       ?value@?$dual_state_global@P6AXPEB_W00I_K@Z@__crt_state_management@@QEAAAEAP6AXPEB_W00I_K@ZXZ 00000001800757e0 f i libucrtd:invalid_parameter.obj
 0001:00074800       __acrt_call_reportfault    0000000180075800 f   libucrtd:invalid_parameter.obj
 0001:00074930       __acrt_initialize_invalid_parameter_handler 0000000180075930 f   libucrtd:invalid_parameter.obj
 0001:00074960       _get_invalid_parameter_handler 0000000180075960 f   libucrtd:invalid_parameter.obj
 0001:00074980       _get_thread_local_invalid_parameter_handler 0000000180075980 f   libucrtd:invalid_parameter.obj
 0001:000749b0       _invalid_parameter         00000001800759b0 f   libucrtd:invalid_parameter.obj
 0001:00074a20       _invalid_parameter_internal 0000000180075a20 f   libucrtd:invalid_parameter.obj
 0001:00074b60       _invalid_parameter_noinfo  0000000180075b60 f   libucrtd:invalid_parameter.obj
 0001:00074b90       _invalid_parameter_noinfo_noreturn 0000000180075b90 f   libucrtd:invalid_parameter.obj
 0001:00074bd0       _invoke_watson             0000000180075bd0 f   libucrtd:invalid_parameter.obj
 0001:00074c30       _set_invalid_parameter_handler 0000000180075c30 f   libucrtd:invalid_parameter.obj
 0001:00074c80       _set_thread_local_invalid_parameter_handler 0000000180075c80 f   libucrtd:invalid_parameter.obj
 0001:00074cc0       ??$is_overflow_condition@_K@__crt_strtox@@YA_NI_K@Z 0000000180075cc0 f i libucrtd:atox.obj
 0001:00074d30       ??$make_c_string_character_source@D$$T@__crt_strtox@@YA?AV?$c_string_character_source@D@0@QEBD$$T@Z 0000000180075d30 f i libucrtd:atox.obj
 0001:00074d70       ??$make_c_string_character_source@_W$$T@__crt_strtox@@YA?AV?$c_string_character_source@_W@0@QEB_W$$T@Z 0000000180075d70 f i libucrtd:atox.obj
 0001:00074db0       ??$parse_integer@KV?$c_string_character_source@D@__crt_strtox@@$00@__crt_strtox@@YAKAEAV__crt_cached_ptd_host@@V?$c_string_character_source@D@0@H_N@Z 0000000180075db0 f i libucrtd:atox.obj
 0001:00075270       ??$parse_integer@KV?$c_string_character_source@_W@__crt_strtox@@$00@__crt_strtox@@YAKAEAV__crt_cached_ptd_host@@V?$c_string_character_source@_W@0@H_N@Z 0000000180076270 f i libucrtd:atox.obj
 0001:00075740       ??$parse_integer@_KV?$c_string_character_source@D@__crt_strtox@@$00@__crt_strtox@@YA_KAEAV__crt_cached_ptd_host@@V?$c_string_character_source@D@0@H_N@Z 0000000180076740 f i libucrtd:atox.obj
 0001:00075c50       ??$parse_integer@_KV?$c_string_character_source@_W@__crt_strtox@@$00@__crt_strtox@@YA_KAEAV__crt_cached_ptd_host@@V?$c_string_character_source@_W@0@H_N@Z 0000000180076c50 f i libucrtd:atox.obj
 0001:00076170       ??$parse_integer_from_string@JD$$T@__crt_strtox@@YAJQEBD$$THQEAU__crt_locale_pointers@@@Z 0000000180077170 f i libucrtd:atox.obj
 0001:00076200       ??$parse_integer_from_string@J_W$$T@__crt_strtox@@YAJQEB_W$$THQEAU__crt_locale_pointers@@@Z 0000000180077200 f i libucrtd:atox.obj
 0001:00076290       ??$parse_integer_from_string@_JD$$T@__crt_strtox@@YA_JQEBD$$THQEAU__crt_locale_pointers@@@Z 0000000180077290 f i libucrtd:atox.obj
 0001:00076320       ??$parse_integer_from_string@_J_W$$T@__crt_strtox@@YA_JQEB_W$$THQEAU__crt_locale_pointers@@@Z 0000000180077320 f i libucrtd:atox.obj
 0001:000763b0       ?is_space@__crt_strtox@@YA_NDQEAU__crt_locale_pointers@@@Z 00000001800773b0 f i libucrtd:atox.obj
 0001:00076400       ?is_space@__crt_strtox@@YA_N_WPEAU__crt_locale_pointers@@@Z 0000000180077400 f i libucrtd:atox.obj
 0001:00076440       ?maximum_signed_value@__crt_strtox@@YA_J_K@Z 0000000180077440 f i libucrtd:atox.obj
 0001:00076450       ?minimum_signed_value@__crt_strtox@@YA_J_K@Z 0000000180077450 f i libucrtd:atox.obj
 0001:00076460       _atoi64                    0000000180077460 f   libucrtd:atox.obj
 0001:00076490       _atoi64_l                  0000000180077490 f   libucrtd:atox.obj
 0001:000764c0       _atoi_l                    00000001800774c0 f   libucrtd:atox.obj
 0001:000764f0       _atol_l                    00000001800774f0 f   libucrtd:atox.obj
 0001:00076520       _atoll_l                   0000000180077520 f   libucrtd:atox.obj
 0001:00076550       _wtoi                      0000000180077550 f   libucrtd:atox.obj
 0001:00076580       _wtoi64                    0000000180077580 f   libucrtd:atox.obj
 0001:000765b0       _wtoi64_l                  00000001800775b0 f   libucrtd:atox.obj
 0001:000765e0       _wtoi_l                    00000001800775e0 f   libucrtd:atox.obj
 0001:00076610       _wtol                      0000000180077610 f   libucrtd:atox.obj
 0001:00076640       _wtol_l                    0000000180077640 f   libucrtd:atox.obj
 0001:00076670       _wtoll                     0000000180077670 f   libucrtd:atox.obj
 0001:000766a0       _wtoll_l                   00000001800776a0 f   libucrtd:atox.obj
 0001:000766d0       atoi                       00000001800776d0 f   libucrtd:atox.obj
 0001:00076700       atol                       0000000180077700 f   libucrtd:atox.obj
 0001:00076730       atoll                      0000000180077730 f   libucrtd:atox.obj
 0001:00076760       wcsncmp                    0000000180077760 f   libucrtd:wcsncmp.obj
 0001:000767f0       free                       00000001800777f0 f   libucrtd:free.obj
 0001:00076810       malloc                     0000000180077810 f   libucrtd:malloc.obj
 0001:00076840       _chvalidator               0000000180077840 f   libucrtd:isctype.obj
 0001:000768b0       _chvalidator_l             00000001800778b0 f   libucrtd:isctype.obj
 0001:00076960       _isctype                   0000000180077960 f   libucrtd:isctype.obj
 0001:000769b0       _isctype_l                 00000001800779b0 f   libucrtd:isctype.obj
 0001:00076bf0       _isleadbyte_fast_internal  0000000180077bf0 f i libucrtd:isctype.obj
 0001:00076da0       ?get_doserrno@__crt_cached_ptd_host@@QEAA@XZ 0000000180077da0 f i libucrtd:errno.obj
 0001:00076db0       ?set@?$cached@K@__crt_cached_ptd_host@@QEAAKK@Z 0000000180077db0 f i libucrtd:errno.obj
 0001:00076de0       __acrt_errno_from_os_error 0000000180077de0 f   libucrtd:errno.obj
 0001:00076eb0       __acrt_errno_map_os_error  0000000180077eb0 f   libucrtd:errno.obj
 0001:00076ee0       __acrt_errno_map_os_error_ptd 0000000180077ee0 f   libucrtd:errno.obj
 0001:00076f40       __doserrno                 0000000180077f40 f   libucrtd:errno.obj
 0001:00076f70       _errno                     0000000180077f70 f   libucrtd:errno.obj
 0001:00076fa0       _get_doserrno              0000000180077fa0 f   libucrtd:errno.obj
 0001:00077060       _get_errno                 0000000180078060 f   libucrtd:errno.obj
 0001:00077120       _set_doserrno              0000000180078120 f   libucrtd:errno.obj
 0001:00077160       _set_errno                 0000000180078160 f   libucrtd:errno.obj
 0001:000771a0       _callnewh                  00000001800781a0 f   libucrtd:new_handler.obj
 0001:00077200       __acrt_initialize_new_handler 0000000180078200 f   libucrtd:new_handler.obj
 0001:00077230       _query_new_handler         0000000180078230 f   libucrtd:new_handler.obj
 0001:00077280       _set_new_handler           0000000180078280 f   libucrtd:new_handler.obj
 0001:000772f0       ?_set_new_handler@@YAP6AH_K@ZH@Z 00000001800782f0 f   libucrtd:new_handler.obj
 0001:00077360       ??$?B$$A6AH_K@Z@__crt_fast_encoded_nullptr_t@@QEBAP6AH_K@ZXZ 0000000180078360 f i libucrtd:new_handler.obj
 0001:00077380       ??$__crt_fast_decode_pointer@P6AH_K@Z@@YAP6AH_K@ZQ6AH0@Z@Z 0000000180078380 f i libucrtd:new_handler.obj
 0001:000773c0       ??$__crt_fast_encode_pointer@P6AH_K@Z@@YAP6AH_K@ZQ6AH0@Z@Z 00000001800783c0 f i libucrtd:new_handler.obj
 0001:00077400       ?initialize@?$dual_state_global@P6AH_K@Z@__crt_state_management@@QEAAXQ6AH_K@Z@Z 0000000180078400 f i libucrtd:new_handler.obj
 0001:00077450       ?value@?$dual_state_global@P6AH_K@Z@__crt_state_management@@QEAAAEAP6AH_K@ZXZ 0000000180078450 f i libucrtd:new_handler.obj
 0001:00077470       _free_base                 0000000180078470 f   libucrtd:free_base.obj
 0001:000774e0       _realloc_base              00000001800784e0 f   libucrtd:realloc_base.obj
 0001:00077590       ??$?RU__acrt_ptd@@@__crt_internal_free_policy@@QEBAXQEBU__acrt_ptd@@@Z 0000000180078590 f i libucrtd:per_thread_data.obj
 0001:00077840       ??$internal_get_ptd_head@P6APEAXK@Z@@YAPEAU__acrt_ptd@@P6APEAXK@Z@Z 0000000180078840 f i libucrtd:per_thread_data.obj
 0001:00077880       ??$try_get_ptd_head@P6APEAXK@Z@@YAPEAU__acrt_ptd@@P6APEAXK@Z@Z 0000000180078880 f i libucrtd:per_thread_data.obj
 0001:00077a70       ??0?$__crt_unique_heap_ptr@U__acrt_ptd@@U__crt_internal_free_policy@@@@QEAA@QEAU__acrt_ptd@@@Z 0000000180078a70 f i libucrtd:per_thread_data.obj
 0001:00077a90       ??1?$__crt_unique_heap_ptr@U__acrt_ptd@@U__crt_internal_free_policy@@@@QEAA@XZ 0000000180078a90 f i libucrtd:per_thread_data.obj
 0001:00077ab0       ??B?$__crt_unique_heap_ptr@U__acrt_ptd@@U__crt_internal_free_policy@@@@QEBA_NXZ 0000000180078ab0 f i libucrtd:per_thread_data.obj
 0001:00077e00       ?dangerous_get_state_array@?$dual_state_global@PEAU__crt_locale_data@@@__crt_state_management@@QEAAPEAPEAU__crt_locale_data@@XZ 0000000180078e00 f i libucrtd:per_thread_data.obj
 0001:00077fd0       ?detach@?$__crt_unique_heap_ptr@U__acrt_ptd@@U__crt_internal_free_policy@@@@QEAAPEAU__acrt_ptd@@XZ 0000000180078fd0 f i libucrtd:per_thread_data.obj
 0001:00078000       ?get@?$__crt_unique_heap_ptr@U__acrt_ptd@@U__crt_internal_free_policy@@@@QEBAPEAU__acrt_ptd@@XZ 0000000180079000 f i libucrtd:per_thread_data.obj
 0001:00078010       ?get_current_state_index2@__crt_state_management@@YA_KXZ 0000000180079010 f i libucrtd:per_thread_data.obj
 0001:00078020       ?internal_get_ptd_head_slow@@YAPEAU__acrt_ptd@@XZ 0000000180079020 f   libucrtd:per_thread_data.obj
 0001:00078250       ?is_valid@?$__crt_unique_heap_ptr@U__acrt_ptd@@U__crt_internal_free_policy@@@@QEBA_NXZ 0000000180079250 f i libucrtd:per_thread_data.obj
 0001:00078280       ?release@?$__crt_unique_heap_ptr@U__acrt_ptd@@U__crt_internal_free_policy@@@@QEAAXXZ 0000000180079280 f i libucrtd:per_thread_data.obj
 0001:00078370       ?value@?$dual_state_global@PEAU__crt_locale_data@@@__crt_state_management@@QEAAAEAPEAU__crt_locale_data@@XZ 0000000180079370 f i libucrtd:per_thread_data.obj
 0001:00078390       __acrt_freeptd             0000000180079390 f   libucrtd:per_thread_data.obj
 0001:000783d0       __acrt_getptd              00000001800793d0 f   libucrtd:per_thread_data.obj
 0001:00078400       __acrt_getptd_head         0000000180079400 f   libucrtd:per_thread_data.obj
 0001:00078430       __acrt_getptd_noexit       0000000180079430 f   libucrtd:per_thread_data.obj
 0001:00078470       __acrt_getptd_noexit_explicit 0000000180079470 f   libucrtd:per_thread_data.obj
 0001:000784a0       __acrt_initialize_ptd      00000001800794a0 f   libucrtd:per_thread_data.obj
 0001:000784f0       __acrt_uninitialize_ptd    00000001800794f0 f   libucrtd:per_thread_data.obj
 0001:00078520       __threadhandle             0000000180079520 f   libucrtd:per_thread_data.obj
 0001:00078530       __threadid                 0000000180079530 f   libucrtd:per_thread_data.obj
 0001:00078540       __acrt_initialize_locks    0000000180079540 f   libucrtd:locks.obj
 0001:000785b0       __acrt_lock                00000001800795b0 f   libucrtd:locks.obj
 0001:000785e0       __acrt_uninitialize_locks  00000001800795e0 f   libucrtd:locks.obj
 0001:00078640       __acrt_unlock              0000000180079640 f   libucrtd:locks.obj
 0001:00078670       _lock_locales              0000000180079670 f   libucrtd:locks.obj
 0001:00078690       _unlock_locales            0000000180079690 f   libucrtd:locks.obj
 0001:000786b0       _expand                    00000001800796b0 f   libucrtd:expand.obj
 0001:000786f0       _expand_base               00000001800796f0 f   libucrtd:expand.obj
 0001:000788f0       ?value@?$dual_state_global@PEAU__crt_multibyte_data@@@__crt_state_management@@QEAAAEAPEAU__crt_multibyte_data@@XZ 00000001800798f0 f i libucrtd:locale_update.obj
 0001:00078910       ?value_explicit@?$dual_state_global@PEAU__crt_locale_data@@@__crt_state_management@@QEAAAEAPEAU__crt_locale_data@@_K@Z 0000000180079910 f i libucrtd:locale_update.obj
 0001:00078930       ?value_explicit@?$dual_state_global@PEAU__crt_multibyte_data@@@__crt_state_management@@QEAAAEAPEAU__crt_multibyte_data@@_K@Z 0000000180079930 f i libucrtd:locale_update.obj
 0001:00078950       __acrt_should_sync_with_global_locale 0000000180079950 f i libucrtd:locale_update.obj
 0001:00078990       __acrt_update_locale_info  0000000180079990 f   libucrtd:locale_update.obj
 0001:000789e0       __acrt_update_locale_info_explicit 00000001800799e0 f   libucrtd:locale_update.obj
 0001:00078a40       __acrt_update_multibyte_info 0000000180079a40 f   libucrtd:locale_update.obj
 0001:00078a90       __acrt_update_multibyte_info_explicit 0000000180079a90 f   libucrtd:locale_update.obj
 0001:00078af0       _query_new_mode            0000000180079af0 f   libucrtd:new_mode.obj
 0001:00078b20       _set_new_mode              0000000180079b20 f   libucrtd:new_mode.obj
 0001:00078bf0       ?value@?$dual_state_global@J@__crt_state_management@@QEAAAEAJXZ 0000000180079bf0 f i libucrtd:new_mode.obj
 0001:00078c10       _CrtDefaultAllocHook       0000000180079c10 f   libucrtd:debug_heap_hook.obj
 0001:00078c40       ??$?RU__crt_locale_data@@@__crt_internal_free_policy@@QEBAXQEBU__crt_locale_data@@@Z 0000000180079c40 f i libucrtd:wsetlocale.obj
 0001:00078c70       ??$?RU__crt_locale_pointers@@@__crt_internal_free_policy@@QEBAXQEBU__crt_locale_pointers@@@Z 0000000180079c70 f i libucrtd:wsetlocale.obj
 0001:00078ca0       ??$?RU__crt_multibyte_data@@@__crt_internal_free_policy@@QEBAXQEBU__crt_multibyte_data@@@Z 0000000180079ca0 f i libucrtd:wsetlocale.obj
 0001:00079250       ??0?$__crt_unique_heap_ptr@U__crt_locale_data@@U__crt_internal_free_policy@@@@QEAA@QEAU__crt_locale_data@@@Z 000000018007a250 f i libucrtd:wsetlocale.obj
 0001:00079270       ??0?$__crt_unique_heap_ptr@U__crt_locale_pointers@@U__crt_internal_free_policy@@@@QEAA@QEAU__crt_locale_pointers@@@Z 000000018007a270 f i libucrtd:wsetlocale.obj
 0001:00079290       ??0?$__crt_unique_heap_ptr@U__crt_multibyte_data@@U__crt_internal_free_policy@@@@QEAA@QEAU__crt_multibyte_data@@@Z 000000018007a290 f i libucrtd:wsetlocale.obj
 0001:000792b0       ??0_expandlocale_locale_name_cache@@QEAA@QEA_W_KQEAU__crt_qualified_locale_data@@@Z 000000018007a2b0 f i libucrtd:wsetlocale.obj
 0001:00079360       ??1?$__crt_unique_heap_ptr@U__crt_locale_data@@U__crt_internal_free_policy@@@@QEAA@XZ 000000018007a360 f i libucrtd:wsetlocale.obj
 0001:00079380       ??1?$__crt_unique_heap_ptr@U__crt_locale_pointers@@U__crt_internal_free_policy@@@@QEAA@XZ 000000018007a380 f i libucrtd:wsetlocale.obj
 0001:000793a0       ??1?$__crt_unique_heap_ptr@U__crt_multibyte_data@@U__crt_internal_free_policy@@@@QEAA@XZ 000000018007a3a0 f i libucrtd:wsetlocale.obj
 0001:000793c0       ??1_expandlocale_locale_name_cache@@QEAA@XZ 000000018007a3c0 f i libucrtd:wsetlocale.obj
 0001:00079440       ??B?$__crt_unique_heap_ptr@U__crt_locale_data@@U__crt_internal_free_policy@@@@QEBA_NXZ 000000018007a440 f i libucrtd:wsetlocale.obj
 0001:00079460       ??B?$__crt_unique_heap_ptr@U__crt_locale_pointers@@U__crt_internal_free_policy@@@@QEBA_NXZ 000000018007a460 f i libucrtd:wsetlocale.obj
 0001:00079480       ??B?$__crt_unique_heap_ptr@U__crt_multibyte_data@@U__crt_internal_free_policy@@@@QEBA_NXZ 000000018007a480 f i libucrtd:wsetlocale.obj
 0001:00079930       ?commit_locale_name@_expandlocale_locale_name_cache@@QEAAXQEB_W_K@Z 000000018007a930 f i libucrtd:wsetlocale.obj
 0001:000799b0       ?commit_locale_name_cache_already_updated@_expandlocale_locale_name_cache@@QEAAXQEB_W_K@Z 000000018007a9b0 f i libucrtd:wsetlocale.obj
 0001:00079a20       ?detach@?$__crt_unique_heap_ptr@U__crt_locale_data@@U__crt_internal_free_policy@@@@QEAAPEAU__crt_locale_data@@XZ 000000018007aa20 f i libucrtd:wsetlocale.obj
 0001:00079a50       ?detach@?$__crt_unique_heap_ptr@U__crt_locale_pointers@@U__crt_internal_free_policy@@@@QEAAPEAU__crt_locale_pointers@@XZ 000000018007aa50 f i libucrtd:wsetlocale.obj
 0001:00079a80       ?detach@?$__crt_unique_heap_ptr@U__crt_multibyte_data@@U__crt_internal_free_policy@@@@QEAAPEAU__crt_multibyte_data@@XZ 000000018007aa80 f i libucrtd:wsetlocale.obj
 0001:00079ab0       ?get@?$__crt_unique_heap_ptr@U__crt_locale_data@@U__crt_internal_free_policy@@@@QEBAPEAU__crt_locale_data@@XZ 000000018007aab0 f i libucrtd:wsetlocale.obj
 0001:00079ac0       ?get@?$__crt_unique_heap_ptr@U__crt_locale_pointers@@U__crt_internal_free_policy@@@@QEBAPEAU__crt_locale_pointers@@XZ 000000018007aac0 f i libucrtd:wsetlocale.obj
 0001:00079ad0       ?get@?$__crt_unique_heap_ptr@U__crt_multibyte_data@@U__crt_internal_free_policy@@@@QEBAPEAU__crt_multibyte_data@@XZ 000000018007aad0 f i libucrtd:wsetlocale.obj
 0001:00079ae0       ?is_valid@?$__crt_unique_heap_ptr@U__crt_locale_data@@U__crt_internal_free_policy@@@@QEBA_NXZ 000000018007aae0 f i libucrtd:wsetlocale.obj
 0001:00079b10       ?is_valid@?$__crt_unique_heap_ptr@U__crt_locale_pointers@@U__crt_internal_free_policy@@@@QEBA_NXZ 000000018007ab10 f i libucrtd:wsetlocale.obj
 0001:00079b40       ?is_valid@?$__crt_unique_heap_ptr@U__crt_multibyte_data@@U__crt_internal_free_policy@@@@QEBA_NXZ 000000018007ab40 f i libucrtd:wsetlocale.obj
 0001:00079b70       ?release@?$__crt_unique_heap_ptr@U__crt_locale_data@@U__crt_internal_free_policy@@@@QEAAXXZ 000000018007ab70 f i libucrtd:wsetlocale.obj
 0001:00079ba0       ?release@?$__crt_unique_heap_ptr@U__crt_locale_pointers@@U__crt_internal_free_policy@@@@QEAAXXZ 000000018007aba0 f i libucrtd:wsetlocale.obj
 0001:00079bd0       ?release@?$__crt_unique_heap_ptr@U__crt_multibyte_data@@U__crt_internal_free_policy@@@@QEAAXXZ 000000018007abd0 f i libucrtd:wsetlocale.obj
 0001:00079c00       __acrt_copy_locale_name    000000018007ac00 f   libucrtd:wsetlocale.obj
 0001:00079ce0       __acrt_set_locale_changed  000000018007ace0 f   libucrtd:wsetlocale.obj
 0001:00079cf0       __acrt_uninitialize_locale 000000018007acf0 f   libucrtd:wsetlocale.obj
 0001:00079d20       __ascii_tolower            000000018007ad20 f i libucrtd:wsetlocale.obj
 0001:00079d40       __ascii_towlower           000000018007ad40 f i libucrtd:wsetlocale.obj
 0001:00079d60       __lc_lctowcs               000000018007ad60 f   libucrtd:wsetlocale.obj
 0001:00079e50       __lc_wcstolc               000000018007ae50 f   libucrtd:wsetlocale.obj
 0001:0007a130       _configthreadlocale        000000018007b130 f   libucrtd:wsetlocale.obj
 0001:0007a2f0       _create_locale             000000018007b2f0 f   libucrtd:wsetlocale.obj
 0001:0007aa00       _free_locale               000000018007ba00 f   libucrtd:wsetlocale.obj
 0001:0007aaf0       _get_current_locale        000000018007baf0 f   libucrtd:wsetlocale.obj
 0001:0007ac10       _wcreate_locale            000000018007bc10 f   libucrtd:wsetlocale.obj
 0001:0007af10       _wcscats                   000000018007bf10 f   libucrtd:wsetlocale.obj
 0001:0007b000       _wsetlocale                000000018007c000 f   libucrtd:wsetlocale.obj
 0001:0007ccb0       __p___mb_cur_max           000000018007dcb0 f   libucrtd:nlsdata.obj
 0001:0007ccf0       _get_heap_handle           000000018007dcf0 f   libucrtd:heap_handle.obj
 0001:0007cd50       __acrt_initialize_heap     000000018007dd50 f   libucrtd:heap_handle.obj
 0001:0007cd80       __acrt_uninitialize_heap   000000018007dd80 f   libucrtd:heap_handle.obj
 0001:0007cda0       __acrt_getheap             000000018007dda0 f   libucrtd:heap_handle.obj
 0001:0007ce00       _CrtGetReportHook          000000018007de00 f   libucrtd:dbgrptt.obj
 0001:0007ce10       _CrtSetReportFile          000000018007de10 f   libucrtd:dbgrptt.obj
 0001:0007cf70       _CrtSetReportHook          000000018007df70 f   libucrtd:dbgrptt.obj
 0001:0007cfa0       _CrtSetReportMode          000000018007dfa0 f   libucrtd:dbgrptt.obj
 0001:0007d160       _VCrtDbgReportA            000000018007e160 f   libucrtd:dbgrptt.obj
 0001:0007db80       _VCrtDbgReportW            000000018007eb80 f   libucrtd:dbgrptt.obj
 0001:0007e760       _snprintf_s                000000018007f760 f i libucrtd:dbgrptt.obj
 0001:0007e7e0       _vsnprintf_s               000000018007f7e0 f i libucrtd:dbgrptt.obj
 0001:0007e830       _vsnprintf_s_l             000000018007f830 f i libucrtd:dbgrptt.obj
 0001:0007fbb0       ??1?$__crt_simd_cleanup_guard@$00@@QEAA@XZ 0000000180080bb0 f i libucrtd:strnlen.obj
 0001:0007fbc0       ??1?$__crt_simd_cleanup_guard@$0A@@@QEAA@XZ 0000000180080bc0 f i libucrtd:strnlen.obj
 0001:0007fbd0       ?compare_equals@?$__crt_simd_traits@$00E@@SA?AT__m256i@@T2@0@Z 0000000180080bd0 f i libucrtd:strnlen.obj
 0001:0007fc10       ?compare_equals@?$__crt_simd_traits@$00G@@SA?AT__m256i@@T2@0@Z 0000000180080c10 f i libucrtd:strnlen.obj
 0001:0007fc50       ?compare_equals@?$__crt_simd_traits@$0A@E@@SA?AT__m128i@@T2@0@Z 0000000180080c50 f i libucrtd:strnlen.obj
 0001:0007fc80       ?compare_equals@?$__crt_simd_traits@$0A@G@@SA?AT__m128i@@T2@0@Z 0000000180080c80 f i libucrtd:strnlen.obj
 0001:0007fcb0       ?compute_byte_mask@?$__crt_simd_pack_traits@$00@@SAHT__m256i@@@Z 0000000180080cb0 f i libucrtd:strnlen.obj
 0001:0007fcd0       ?compute_byte_mask@?$__crt_simd_pack_traits@$0A@@@SAHT__m128i@@@Z 0000000180080cd0 f i libucrtd:strnlen.obj
 0001:0007fcf0       ?get_zero_pack@?$__crt_simd_pack_traits@$00@@SA?AT__m256i@@XZ 0000000180080cf0 f i libucrtd:strnlen.obj
 0001:0007fd20       ?get_zero_pack@?$__crt_simd_pack_traits@$0A@@@SA?AT__m128i@@XZ 0000000180080d20 f i libucrtd:strnlen.obj
 0001:0007fd40       strnlen                    0000000180080d40 f   libucrtd:strnlen.obj
 0001:0007fd70       wcslen                     0000000180080d70 f   libucrtd:strnlen.obj
 0001:0007fd90       wcsnlen                    0000000180080d90 f   libucrtd:strnlen.obj
 0001:0007fdc0       ??$__acrt_convert_wcs_mbs_cp@_WDV<lambda_f788ae46380686e8b737efdd8c720d07>@@U__crt_win32_buffer_no_resizing@@@@YAHQEB_WAEAV?$__crt_win32_buffer@DU__crt_win32_buffer_no_resizing@@@@AEBV<lambda_f788ae46380686e8b737efdd8c720d07>@@I@Z 0000000180080dc0 f i libucrtd:getmodulefilenamea.obj
 0001:0007ff70       ??$__acrt_wcs_to_mbs_cp@U__crt_win32_buffer_no_resizing@@@@YAHQEB_WAEAV?$__crt_win32_buffer@DU__crt_win32_buffer_no_resizing@@@@I@Z 0000000180080f70 f i libucrtd:getmodulefilenamea.obj
 0001:0007ffc0       ??0?$__crt_win32_buffer@DU__crt_win32_buffer_no_resizing@@@@QEAA@QEAD_K@Z 0000000180080fc0 f i libucrtd:getmodulefilenamea.obj
 0001:00080030       ??1?$__crt_win32_buffer@DU__crt_win32_buffer_no_resizing@@@@QEAA@XZ 0000000180081030 f i libucrtd:getmodulefilenamea.obj
 0001:00080060       ??R<lambda_f788ae46380686e8b737efdd8c720d07>@@QEBA@IQEB_WQEAD_K@Z 0000000180081060 f i libucrtd:getmodulefilenamea.obj
 0001:000800c0       ?__acrt_get_utf8_acp_compatibility_codepage@@YAIXZ 00000001800810c0 f i libucrtd:getmodulefilenamea.obj
 0001:00080160       ?_deallocate@?$__crt_win32_buffer@DU__crt_win32_buffer_no_resizing@@@@AEAAXXZ 0000000180081160 f i libucrtd:getmodulefilenamea.obj
 0001:000801b0       ?allocate@?$__crt_win32_buffer@DU__crt_win32_buffer_no_resizing@@@@QEAAH_K@Z 00000001800811b0 f i libucrtd:getmodulefilenamea.obj
 0001:00080230       ?allocate@__crt_win32_buffer_no_resizing@@SAHQEAPEAX_KAEBV__crt_win32_buffer_empty_debug_info@@@Z 0000000180081230 f i libucrtd:getmodulefilenamea.obj
 0001:00080260       ?capacity@?$__crt_win32_buffer@DU__crt_win32_buffer_no_resizing@@@@QEBA_KXZ 0000000180081260 f i libucrtd:getmodulefilenamea.obj
 0001:00080270       ?data@?$__crt_win32_buffer@DU__crt_win32_buffer_no_resizing@@@@QEAAPEADXZ 0000000180081270 f i libucrtd:getmodulefilenamea.obj
 0001:00080280       ?deallocate@__crt_win32_buffer_no_resizing@@SAXQEAXAEBV__crt_win32_buffer_empty_debug_info@@@Z 0000000180081280 f i libucrtd:getmodulefilenamea.obj
 0001:00080290       ?debug_info@?$__crt_win32_buffer@DU__crt_win32_buffer_no_resizing@@@@QEBAAEBV__crt_win32_buffer_empty_debug_info@@XZ 0000000180081290 f i libucrtd:getmodulefilenamea.obj
 0001:000802a0       ?set_to_nullptr@?$__crt_win32_buffer@DU__crt_win32_buffer_no_resizing@@@@QEAAXXZ 00000001800812a0 f i libucrtd:getmodulefilenamea.obj
 0001:000802e0       ?size@?$__crt_win32_buffer@DU__crt_win32_buffer_no_resizing@@@@QEAAX_K@Z 00000001800812e0 f i libucrtd:getmodulefilenamea.obj
 0001:00080300       ?size@?$__crt_win32_buffer@DU__crt_win32_buffer_no_resizing@@@@QEBA_KXZ 0000000180081300 f i libucrtd:getmodulefilenamea.obj
 0001:00080310       __acrt_GetModuleFileNameA  0000000180081310 f   libucrtd:getmodulefilenamea.obj
 0001:00080670       ??$message_box@$$TAEBQEBDAEBQEBDK@?$__crt_char_traits@D@@SAH$$QEA$$TAEBQEBD1$$QEAK@Z 0000000180081670 f i libucrtd:crtmbox.obj
 0001:000806c0       ??$message_box@$$TAEBQEB_WAEBQEB_WK@?$__crt_char_traits@_W@@SAH$$QEA$$TAEBQEB_W1$$QEAK@Z 00000001800816c0 f i libucrtd:crtmbox.obj
 0001:00080710       ??$message_box@PEAUHWND__@@AEBQEBDAEBQEBDAEBI@?$__crt_char_traits@D@@SAH$$QEAPEAUHWND__@@AEBQEBD1AEBI@Z 0000000180081710 f i libucrtd:crtmbox.obj
 0001:00080760       ??$message_box@PEAUHWND__@@AEBQEB_WAEBQEB_WAEBI@?$__crt_char_traits@_W@@SAH$$QEAPEAUHWND__@@AEBQEB_W1AEBI@Z 0000000180081760 f i libucrtd:crtmbox.obj
 0001:000807b0       ??$output_debug_string@AEBQEBD@?$__crt_char_traits@D@@SAXAEBQEBD@Z 00000001800817b0 f i libucrtd:crtmbox.obj
 0001:000807d0       ??$output_debug_string@AEBQEB_W@?$__crt_char_traits@_W@@SAXAEBQEB_W@Z 00000001800817d0 f i libucrtd:crtmbox.obj
 0001:000807f0       __acrt_show_narrow_message_box 00000001800817f0 f   libucrtd:crtmbox.obj
 0001:00080820       __acrt_show_wide_message_box 0000000180081820 f   libucrtd:crtmbox.obj
 0001:00080850       ??$?B$$A6AXH@Z@__crt_fast_encoded_nullptr_t@@QEBAP6AXH@ZXZ 0000000180081850 f i libucrtd:signal.obj
 0001:00080920       ??$__crt_fast_decode_pointer@P6AXH@Z@@YAP6AXH@ZQ6AXH@Z@Z 0000000180081920 f i libucrtd:signal.obj
 0001:00080960       ??$__crt_fast_encode_pointer@P6AXH@Z@@YAP6AXH@ZQ6AXH@Z@Z 0000000180081960 f i libucrtd:signal.obj
 0001:00080bf0       ?initialize@?$dual_state_global@P6AXH@Z@__crt_state_management@@QEAAXQ6AXH@Z@Z 0000000180081bf0 f i libucrtd:signal.obj
 0001:00080d70       ?value@?$dual_state_global@P6AXH@Z@__crt_state_management@@QEAAAEAP6AXH@ZXZ 0000000180081d70 f i libucrtd:signal.obj
 0001:00080d90       __acrt_get_sigabrt_handler 0000000180081d90 f   libucrtd:signal.obj
 0001:00080dc0       __acrt_initialize_signal_handlers 0000000180081dc0 f   libucrtd:signal.obj
 0001:00080e20       __fpecode                  0000000180081e20 f   libucrtd:signal.obj
 0001:00080e40       __pxcptinfoptrs            0000000180081e40 f   libucrtd:signal.obj
 0001:00080e60       raise                      0000000180081e60 f   libucrtd:signal.obj
 0001:00081360       signal                     0000000180082360 f   libucrtd:signal.obj
 0001:00081630       __acrt_app_verifier_enabled 0000000180082630 f   libucrtd:peb_access.obj
 0001:00081670       __acrt_is_secure_process   0000000180082670 f   libucrtd:peb_access.obj
 0001:00081a60       __acrt_get_begin_thread_init_policy 0000000180082a60 f   libucrtd:win_policies.obj
 0001:00081a70       __acrt_get_developer_information_policy 0000000180082a70 f   libucrtd:win_policies.obj
 0001:00081a90       __acrt_get_process_end_policy 0000000180082a90 f   libucrtd:win_policies.obj
 0001:00081aa0       __acrt_get_windowing_model_policy 0000000180082aa0 f   libucrtd:win_policies.obj
 0001:00081b20       ??$__acrt_convert_wcs_mbs_cp@D_WV<lambda_7c9dea7b4ca7285d2cdb541a38da6275>@@U__crt_win32_buffer_internal_dynamic_resizing@@@@YAHQEBDAEAV?$__crt_win32_buffer@_WU__crt_win32_buffer_internal_dynamic_resizing@@@@AEBV<lambda_7c9dea7b4ca7285d2cdb541a38da6275>@@I@Z 0000000180082b20 f i libucrtd:argv_wildcards.obj
 0001:00081cd0       ??$__acrt_convert_wcs_mbs_cp@_WDV<lambda_d8593a27d1aa8c02be35c86a17d324c4>@@U__crt_win32_buffer_internal_dynamic_resizing@@@@YAHQEB_WAEAV?$__crt_win32_buffer@DU__crt_win32_buffer_internal_dynamic_resizing@@@@AEBV<lambda_d8593a27d1aa8c02be35c86a17d324c4>@@I@Z 0000000180082cd0 f i libucrtd:argv_wildcards.obj
 0001:00081e80       ??$__acrt_mbs_to_wcs_cp@U__crt_win32_buffer_internal_dynamic_resizing@@@@YAHQEBDAEAV?$__crt_win32_buffer@_WU__crt_win32_buffer_internal_dynamic_resizing@@@@I@Z 0000000180082e80 f i libucrtd:argv_wildcards.obj
 0001:00081ed0       ??$__acrt_wcs_to_mbs_cp@U__crt_win32_buffer_internal_dynamic_resizing@@@@YAHQEB_WAEAV?$__crt_win32_buffer@DU__crt_win32_buffer_internal_dynamic_resizing@@@@I@Z 0000000180082ed0 f i libucrtd:argv_wildcards.obj
 0001:00083370       ??$tcsncpy_s@AEAPEAD_KAEAPEADAEB_K@?$__crt_char_traits@D@@SAHAEAPEAD$$QEA_K0AEB_K@Z 0000000180084370 f i libucrtd:argv_wildcards.obj
 0001:000833c0       ??$tcsncpy_s@AEAPEA_W_KAEAPEA_WAEB_K@?$__crt_char_traits@_W@@SAHAEAPEA_W$$QEA_K0AEB_K@Z 00000001800843c0 f i libucrtd:argv_wildcards.obj
 0001:00083410       ??$tcsncpy_s@PEADAEB_KAEBQEBDAEB_K@?$__crt_char_traits@D@@SAH$$QEAPEADAEB_KAEBQEBD1@Z 0000000180084410 f i libucrtd:argv_wildcards.obj
 0001:00083460       ??$tcsncpy_s@PEAD_KAEBQEBDAEB_K@?$__crt_char_traits@D@@SAH$$QEAPEAD$$QEA_KAEBQEBDAEB_K@Z 0000000180084460 f i libucrtd:argv_wildcards.obj
 0001:000834b0       ??$tcsncpy_s@PEA_WAEB_KAEBQEB_WAEB_K@?$__crt_char_traits@_W@@SAH$$QEAPEA_WAEB_KAEBQEB_W1@Z 00000001800844b0 f i libucrtd:argv_wildcards.obj
 0001:00083500       ??$tcsncpy_s@PEA_W_KAEBQEB_WAEB_K@?$__crt_char_traits@_W@@SAH$$QEAPEA_W$$QEA_KAEBQEB_WAEB_K@Z 0000000180084500 f i libucrtd:argv_wildcards.obj
 0001:00083550       ??$tcspbrk@AEAPEADAEAY02$$CBD@?$__crt_char_traits@D@@SAPEADAEAPEADAEAY02$$CBD@Z 0000000180084550 f i libucrtd:argv_wildcards.obj
 0001:00083580       ??$tcspbrk@AEAPEA_WAEAY02$$CB_W@?$__crt_char_traits@_W@@SAPEA_WAEAPEA_WAEAY02$$CB_W@Z 0000000180084580 f i libucrtd:argv_wildcards.obj
 0001:000835b0       ??0?$__crt_unique_handle_t@U__crt_findfile_traits@@@@QEAA@QEAX@Z 00000001800845b0 f i libucrtd:argv_wildcards.obj
 0001:000835d0       ??0?$__crt_win32_buffer@DU__crt_win32_buffer_internal_dynamic_resizing@@@@QEAA@XZ 00000001800845d0 f i libucrtd:argv_wildcards.obj
 0001:00083630       ??0?$__crt_win32_buffer@_WU__crt_win32_buffer_internal_dynamic_resizing@@@@QEAA@XZ 0000000180084630 f i libucrtd:argv_wildcards.obj
 0001:00083710       ??1?$__crt_unique_handle_t@U__crt_findfile_traits@@@@QEAA@XZ 0000000180084710 f i libucrtd:argv_wildcards.obj
 0001:00083730       ??1?$__crt_win32_buffer@DU__crt_win32_buffer_internal_dynamic_resizing@@@@QEAA@XZ 0000000180084730 f i libucrtd:argv_wildcards.obj
 0001:00083760       ??1?$__crt_win32_buffer@_WU__crt_win32_buffer_internal_dynamic_resizing@@@@QEAA@XZ 0000000180084760 f i libucrtd:argv_wildcards.obj
 0001:00083890       ??R<lambda_7c9dea7b4ca7285d2cdb541a38da6275>@@QEBA@IQEBDQEA_W_K@Z 0000000180084890 f i libucrtd:argv_wildcards.obj
 0001:00083a00       ??R<lambda_d8593a27d1aa8c02be35c86a17d324c4>@@QEBA@IQEB_WQEAD_K@Z 0000000180084a00 f i libucrtd:argv_wildcards.obj
 0001:00083a60       ?_deallocate@?$__crt_win32_buffer@DU__crt_win32_buffer_internal_dynamic_resizing@@@@AEAAXXZ 0000000180084a60 f i libucrtd:argv_wildcards.obj
 0001:00083ab0       ?_deallocate@?$__crt_win32_buffer@_WU__crt_win32_buffer_internal_dynamic_resizing@@@@AEAAXXZ 0000000180084ab0 f i libucrtd:argv_wildcards.obj
 0001:00083b00       ?allocate@?$__crt_win32_buffer@DU__crt_win32_buffer_internal_dynamic_resizing@@@@QEAAH_K@Z 0000000180084b00 f i libucrtd:argv_wildcards.obj
 0001:00083b80       ?allocate@?$__crt_win32_buffer@_WU__crt_win32_buffer_internal_dynamic_resizing@@@@QEAAH_K@Z 0000000180084b80 f i libucrtd:argv_wildcards.obj
 0001:00083c10       ?allocate@__crt_win32_buffer_internal_dynamic_resizing@@SAHQEAPEAX_KAEBV__crt_win32_buffer_empty_debug_info@@@Z 0000000180084c10 f i libucrtd:argv_wildcards.obj
 0001:00083d70       ?capacity@?$__crt_win32_buffer@DU__crt_win32_buffer_internal_dynamic_resizing@@@@QEBA_KXZ 0000000180084d70 f i libucrtd:argv_wildcards.obj
 0001:00083d80       ?capacity@?$__crt_win32_buffer@_WU__crt_win32_buffer_internal_dynamic_resizing@@@@QEBA_KXZ 0000000180084d80 f i libucrtd:argv_wildcards.obj
 0001:00083d90       ?close@?$__crt_unique_handle_t@U__crt_findfile_traits@@@@QEAAXXZ 0000000180084d90 f i libucrtd:argv_wildcards.obj
 0001:00083dd0       ?close@__crt_findfile_traits@@SA_NPEAX@Z 0000000180084dd0 f i libucrtd:argv_wildcards.obj
 0001:00083e10       ?data@?$__crt_win32_buffer@DU__crt_win32_buffer_internal_dynamic_resizing@@@@QEAAPEADXZ 0000000180084e10 f i libucrtd:argv_wildcards.obj
 0001:00083e20       ?data@?$__crt_win32_buffer@_WU__crt_win32_buffer_internal_dynamic_resizing@@@@QEAAPEA_WXZ 0000000180084e20 f i libucrtd:argv_wildcards.obj
 0001:00083e30       ?deallocate@__crt_win32_buffer_internal_dynamic_resizing@@SAXQEAXAEBV__crt_win32_buffer_empty_debug_info@@@Z 0000000180084e30 f i libucrtd:argv_wildcards.obj
 0001:00083e60       ?debug_info@?$__crt_win32_buffer@DU__crt_win32_buffer_internal_dynamic_resizing@@@@QEBAAEBV__crt_win32_buffer_empty_debug_info@@XZ 0000000180084e60 f i libucrtd:argv_wildcards.obj
 0001:00083e70       ?debug_info@?$__crt_win32_buffer@_WU__crt_win32_buffer_internal_dynamic_resizing@@@@QEBAAEBV__crt_win32_buffer_empty_debug_info@@XZ 0000000180084e70 f i libucrtd:argv_wildcards.obj
 0001:00084260       ?get@?$__crt_unique_handle_t@U__crt_findfile_traits@@@@QEBAPEAXXZ 0000000180085260 f i libucrtd:argv_wildcards.obj
 0001:000842d0       ?get_invalid_value@__crt_findfile_traits@@SAPEAXXZ 00000001800852d0 f i libucrtd:argv_wildcards.obj
 0001:00084390       ?set_to_nullptr@?$__crt_win32_buffer@DU__crt_win32_buffer_internal_dynamic_resizing@@@@QEAAXXZ 0000000180085390 f i libucrtd:argv_wildcards.obj
 0001:000843d0       ?set_to_nullptr@?$__crt_win32_buffer@_WU__crt_win32_buffer_internal_dynamic_resizing@@@@QEAAXXZ 00000001800853d0 f i libucrtd:argv_wildcards.obj
 0001:00084410       ?size@?$__crt_win32_buffer@DU__crt_win32_buffer_internal_dynamic_resizing@@@@QEAAX_K@Z 0000000180085410 f i libucrtd:argv_wildcards.obj
 0001:00084430       ?size@?$__crt_win32_buffer@_WU__crt_win32_buffer_internal_dynamic_resizing@@@@QEAAX_K@Z 0000000180085430 f i libucrtd:argv_wildcards.obj
 0001:00084490       ?strpbrk@@YAPEADQEADQEBD@Z 0000000180085490 f i libucrtd:argv_wildcards.obj
 0001:000844c0       ?wcspbrk@@YAPEA_WPEA_WPEB_W@Z 00000001800854c0 f i libucrtd:argv_wildcards.obj
 0001:000844f0       __acrt_expand_narrow_argv_wildcards 00000001800854f0 f   libucrtd:argv_wildcards.obj
 0001:00084520       __acrt_expand_wide_argv_wildcards 0000000180085520 f   libucrtd:argv_wildcards.obj
 0001:000845f0       ??$initialize_from_array@$$BY10BAA@E@?$dual_state_global@PEAE@__crt_state_management@@QEAAXAEAY10BAA@E@Z 00000001800855f0 f i libucrtd:mbctype.obj
 0001:00084660       ??$initialize_from_array@$$BY10BAB@E@?$dual_state_global@PEAE@__crt_state_management@@QEAAXAEAY10BAB@E@Z 0000000180085660 f i libucrtd:mbctype.obj
 0001:00084950       ?dangerous_get_state_array@?$dual_state_global@PEAE@__crt_state_management@@QEAAPEAPEAEXZ 0000000180085950 f i libucrtd:mbctype.obj
 0001:00084960       ?dangerous_get_state_array@?$dual_state_global@PEAU__crt_multibyte_data@@@__crt_state_management@@QEAAPEAPEAU__crt_multibyte_data@@XZ 0000000180085960 f i libucrtd:mbctype.obj
 0001:00084a50       ?initialize@?$dual_state_global@PEAU__crt_multibyte_data@@@__crt_state_management@@QEAAXQEAU__crt_multibyte_data@@@Z 0000000180085a50 f i libucrtd:mbctype.obj
 0001:00085360       ?value@?$dual_state_global@PEAE@__crt_state_management@@QEAAAEAPEAEXZ 0000000180086360 f i libucrtd:mbctype.obj
 0001:00085380       __acrt_initialize_multibyte 0000000180086380 f   libucrtd:mbctype.obj
 0001:00085450       __acrt_update_thread_multibyte_data 0000000180086450 f   libucrtd:mbctype.obj
 0001:00085490       __p__mbcasemap             0000000180086490 f   libucrtd:mbctype.obj
 0001:000854b0       __p__mbctype               00000001800864b0 f   libucrtd:mbctype.obj
 0001:000854d0       _getmbcp                   00000001800864d0 f   libucrtd:mbctype.obj
 0001:00085550       _setmbcp                   0000000180086550 f   libucrtd:mbctype.obj
 0001:00085590       _setmbcp_nolock            0000000180086590 f   libucrtd:mbctype.obj
 0001:00085cc0       _ismbbalnum                0000000180086cc0 f   libucrtd:ismbbyte.obj
 0001:00085cf0       _ismbbalnum_l              0000000180086cf0 f   libucrtd:ismbbyte.obj
 0001:00085d20       _ismbbalpha                0000000180086d20 f   libucrtd:ismbbyte.obj
 0001:00085d50       _ismbbalpha_l              0000000180086d50 f   libucrtd:ismbbyte.obj
 0001:00085d80       _ismbbblank                0000000180086d80 f   libucrtd:ismbbyte.obj
 0001:00085dc0       _ismbbblank_l              0000000180086dc0 f   libucrtd:ismbbyte.obj
 0001:00085e10       _ismbbgraph                0000000180086e10 f   libucrtd:ismbbyte.obj
 0001:00085e40       _ismbbgraph_l              0000000180086e40 f   libucrtd:ismbbyte.obj
 0001:00085e70       _ismbbkalnum               0000000180086e70 f   libucrtd:ismbbyte.obj
 0001:00085ea0       _ismbbkalnum_l             0000000180086ea0 f   libucrtd:ismbbyte.obj
 0001:00085ed0       _ismbbkana                 0000000180086ed0 f   libucrtd:ismbbyte.obj
 0001:00085ef0       _ismbbkana_l               0000000180086ef0 f   libucrtd:ismbbyte.obj
 0001:00085f80       _ismbbkprint               0000000180086f80 f   libucrtd:ismbbyte.obj
 0001:00085fb0       _ismbbkprint_l             0000000180086fb0 f   libucrtd:ismbbyte.obj
 0001:00085fe0       _ismbbkpunct               0000000180086fe0 f   libucrtd:ismbbyte.obj
 0001:00086010       _ismbbkpunct_l             0000000180087010 f   libucrtd:ismbbyte.obj
 0001:00086040       _ismbblead                 0000000180087040 f   libucrtd:ismbbyte.obj
 0001:00086070       _ismbblead_l               0000000180087070 f   libucrtd:ismbbyte.obj
 0001:000860a0       _ismbbprint                00000001800870a0 f   libucrtd:ismbbyte.obj
 0001:000860d0       _ismbbprint_l              00000001800870d0 f   libucrtd:ismbbyte.obj
 0001:00086100       _ismbbpunct                0000000180087100 f   libucrtd:ismbbyte.obj
 0001:00086130       _ismbbpunct_l              0000000180087130 f   libucrtd:ismbbyte.obj
 0001:00086160       _ismbbtrail                0000000180087160 f   libucrtd:ismbbyte.obj
 0001:00086190       _ismbbtrail_l              0000000180087190 f   libucrtd:ismbbyte.obj
 0001:000861c0       __acrt_initialize_command_line 00000001800871c0 f   libucrtd:argv_data.obj
 0001:000861f0       __acrt_uninitialize_command_line 00000001800871f0 f   libucrtd:argv_data.obj
 0001:00086200       __p___argc                 0000000180087200 f   libucrtd:argv_data.obj
 0001:00086210       __p___argv                 0000000180087210 f   libucrtd:argv_data.obj
 0001:00086220       __p___wargv                0000000180087220 f   libucrtd:argv_data.obj
 0001:00086230       __p__acmdln                0000000180087230 f   libucrtd:argv_data.obj
 0001:00086240       __p__pgmptr                0000000180087240 f   libucrtd:argv_data.obj
 0001:00086250       __p__wcmdln                0000000180087250 f   libucrtd:argv_data.obj
 0001:00086260       __p__wpgmptr               0000000180087260 f   libucrtd:argv_data.obj
 0001:00086270       _get_pgmptr                0000000180087270 f   libucrtd:argv_data.obj
 0001:000863e0       _get_wpgmptr               00000001800873e0 f   libucrtd:argv_data.obj
 0001:00086660       __acrt_MultiByteToWideChar 0000000180087660 f   libucrtd:multibytetowidechar.obj
 0001:000867d0       __acrt_WideCharToMultiByte 00000001800877d0 f   libucrtd:widechartomultibyte.obj
 0001:00086a70       __dcrt_get_narrow_environment_from_os 0000000180087a70 f   libucrtd:get_environment_from_os.obj
 0001:00086ca0       __dcrt_get_wide_environment_from_os 0000000180087ca0 f   libucrtd:get_environment_from_os.obj
 0001:000884e0       ??$get_or_create_environment_nolock@$$V@?$__crt_char_traits@D@@SAPEAPEADXZ 00000001800894e0 f i libucrtd:setenv.obj
 0001:000884f0       ??$get_or_create_environment_nolock@$$V@?$__crt_char_traits@_W@@SAPEAPEA_WXZ 00000001800894f0 f i libucrtd:setenv.obj
 0001:00088500       ??$set_environment_variable@AEBQEADQEAD@?$__crt_char_traits@D@@SAHAEBQEAD$$QEBQEAD@Z 0000000180089500 f i libucrtd:setenv.obj
 0001:00088530       ??$set_environment_variable@AEBQEA_WQEA_W@?$__crt_char_traits@_W@@SAHAEBQEA_W$$QEBQEA_W@Z 0000000180089530 f i libucrtd:setenv.obj
 0001:00088560       ??$tcschr@AEBQEADD@?$__crt_char_traits@D@@SAPEADAEBQEAD$$QEAD@Z 0000000180089560 f i libucrtd:setenv.obj
 0001:000885a0       ??$tcschr@AEBQEA_WD@?$__crt_char_traits@_W@@SAPEA_WAEBQEA_W$$QEAD@Z 00000001800895a0 f i libucrtd:setenv.obj
 0001:000885e0       ??$tcscpy_s@AEAPEADAEB_KAEAPEAD@?$__crt_char_traits@D@@SAHAEAPEADAEB_K0@Z 00000001800895e0 f i libucrtd:setenv.obj
 0001:00088620       ??$tcscpy_s@AEAPEA_WAEB_KAEAPEA_W@?$__crt_char_traits@_W@@SAHAEAPEA_WAEB_K0@Z 0000000180089620 f i libucrtd:setenv.obj
 0001:00088660       ??$tcscpy_s@AEBQEADAEB_KAEBQEAD@?$__crt_char_traits@D@@SAHAEBQEADAEB_K0@Z 0000000180089660 f i libucrtd:setenv.obj
 0001:000886a0       ??$tcscpy_s@AEBQEA_WAEB_KAEBQEA_W@?$__crt_char_traits@_W@@SAHAEBQEA_WAEB_K0@Z 00000001800896a0 f i libucrtd:setenv.obj
 0001:000886e0       ??$tcslen@AEBQEAD@?$__crt_char_traits@D@@SA_KAEBQEAD@Z 00000001800896e0 f i libucrtd:setenv.obj
 0001:00088700       ??$tcslen@AEBQEA_W@?$__crt_char_traits@_W@@SA_KAEBQEA_W@Z 0000000180089700 f i libucrtd:setenv.obj
 0001:00088720       ??$tcsnicoll@AEBQEBDAEAPEADAEB_K@?$__crt_char_traits@D@@SAHAEBQEBDAEAPEADAEB_K@Z 0000000180089720 f i libucrtd:setenv.obj
 0001:00088760       ??$tcsnicoll@AEBQEB_WAEAPEA_WAEB_K@?$__crt_char_traits@_W@@SAHAEBQEB_WAEAPEA_WAEB_K@Z 0000000180089760 f i libucrtd:setenv.obj
 0001:000887a0       ??$tcsnlen@PEADH@?$__crt_char_traits@D@@SA_K$$QEAPEAD$$QEAH@Z 00000001800897a0 f i libucrtd:setenv.obj
 0001:000887d0       ??$tcsnlen@PEA_WH@?$__crt_char_traits@_W@@SA_K$$QEAPEA_W$$QEAH@Z 00000001800897d0 f i libucrtd:setenv.obj
 0001:000888a0       ?strchr@@YAPEADQEADH@Z     00000001800898a0 f i libucrtd:setenv.obj
 0001:000888c0       ?wcschr@@YAPEA_WPEA_W_W@Z  00000001800898c0 f i libucrtd:setenv.obj
 0001:000888f0       __dcrt_set_variable_in_narrow_environment_nolock 00000001800898f0 f   libucrtd:setenv.obj
 0001:00088910       __dcrt_set_variable_in_wide_environment_nolock 0000000180089910 f   libucrtd:setenv.obj
 0001:00088b10       ?ReadPointerNoFence@@YAPEAXPEDSEAX@Z 0000000180089b10 f i libucrtd:winapi_thunks.obj
 0001:000896e0       GetCurrentThreadEffectiveToken 000000018008a6e0 f i libucrtd:winapi_thunks.obj
 0001:000896f0       __acrt_AppPolicyGetProcessTerminationMethodInternal 000000018008a6f0 f   libucrtd:winapi_thunks.obj
 0001:00089750       __acrt_AppPolicyGetShowDeveloperDiagnosticInternal 000000018008a750 f   libucrtd:winapi_thunks.obj
 0001:000897b0       __acrt_AppPolicyGetThreadInitializationTypeInternal 000000018008a7b0 f   libucrtd:winapi_thunks.obj
 0001:00089810       __acrt_AppPolicyGetWindowingModelInternal 000000018008a810 f   libucrtd:winapi_thunks.obj
 0001:00089870       __acrt_AreFileApisANSI     000000018008a870 f   libucrtd:winapi_thunks.obj
 0001:000898b0       __acrt_CompareStringEx     000000018008a8b0 f   libucrtd:winapi_thunks.obj
 0001:000899c0       __acrt_EnumSystemLocalesEx 000000018008a9c0 f   libucrtd:winapi_thunks.obj
 0001:00089a40       __acrt_FlsAlloc            000000018008aa40 f   libucrtd:winapi_thunks.obj
 0001:00089a60       __acrt_FlsFree             000000018008aa60 f   libucrtd:winapi_thunks.obj
 0001:00089a80       __acrt_FlsGetValue         000000018008aa80 f   libucrtd:winapi_thunks.obj
 0001:00089aa0       __acrt_FlsGetValue2        000000018008aaa0 f   libucrtd:winapi_thunks.obj
 0001:00089ad0       __acrt_FlsSetValue         000000018008aad0 f   libucrtd:winapi_thunks.obj
 0001:00089b00       __acrt_GetDateFormatEx     000000018008ab00 f   libucrtd:winapi_thunks.obj
 0001:00089bd0       __acrt_GetEnabledXStateFeatures 000000018008abd0 f   libucrtd:winapi_thunks.obj
 0001:00089c10       __acrt_GetFileInformationByName 000000018008ac10 f   libucrtd:winapi_thunks.obj
 0001:00089c80       __acrt_GetLocaleInfoEx     000000018008ac80 f   libucrtd:winapi_thunks.obj
 0001:00089d10       __acrt_GetSystemTimePreciseAsFileTime 000000018008ad10 f   libucrtd:winapi_thunks.obj
 0001:00089d60       __acrt_GetTempPath2W       000000018008ad60 f   libucrtd:winapi_thunks.obj
 0001:00089dc0       __acrt_GetTimeFormatEx     000000018008adc0 f   libucrtd:winapi_thunks.obj
 0001:00089e80       __acrt_GetUserDefaultLocaleName 000000018008ae80 f   libucrtd:winapi_thunks.obj
 0001:00089ef0       __acrt_GetXStateFeaturesMask 000000018008aef0 f   libucrtd:winapi_thunks.obj
 0001:00089f50       __acrt_InitializeCriticalSectionEx 000000018008af50 f   libucrtd:winapi_thunks.obj
 0001:00089f80       __acrt_IsThreadAFiber      000000018008af80 f   libucrtd:winapi_thunks.obj
 0001:00089f90       __acrt_IsValidLocaleName   000000018008af90 f   libucrtd:winapi_thunks.obj
 0001:00089ff0       __acrt_LCIDToLocaleName    000000018008aff0 f   libucrtd:winapi_thunks.obj
 0001:0008a070       __acrt_LCMapStringEx       000000018008b070 f   libucrtd:winapi_thunks.obj
 0001:0008a170       __acrt_LocaleNameToLCID    000000018008b170 f   libucrtd:winapi_thunks.obj
 0001:0008a1d0       __acrt_LocateXStateFeature 000000018008b1d0 f   libucrtd:winapi_thunks.obj
 0001:0008a230       __acrt_MessageBoxA         000000018008b230 f   libucrtd:winapi_thunks.obj
 0001:0008a2a0       __acrt_MessageBoxW         000000018008b2a0 f   libucrtd:winapi_thunks.obj
 0001:0008a310       __acrt_RoInitialize        000000018008b310 f   libucrtd:winapi_thunks.obj
 0001:0008a360       __acrt_RoUninitialize      000000018008b360 f   libucrtd:winapi_thunks.obj
 0001:0008a390       __acrt_RtlGenRandom        000000018008b390 f   libucrtd:winapi_thunks.obj
 0001:0008a3f0       __acrt_SetThreadStackGuarantee 000000018008b3f0 f   libucrtd:winapi_thunks.obj
 0001:0008a440       __acrt_can_show_message_box 000000018008b440 f   libucrtd:winapi_thunks.obj
 0001:0008a480       __acrt_can_use_vista_locale_apis 000000018008b480 f   libucrtd:winapi_thunks.obj
 0001:0008a4b0       __acrt_can_use_xstate_apis 000000018008b4b0 f   libucrtd:winapi_thunks.obj
 0001:0008a4e0       __acrt_eagerly_load_locale_apis 000000018008b4e0 f   libucrtd:winapi_thunks.obj
 0001:0008a520       __acrt_get_parent_window   000000018008b520 f   libucrtd:winapi_thunks.obj
 0001:0008a5a0       __acrt_initialize_winapi_thunks 000000018008b5a0 f   libucrtd:winapi_thunks.obj
 0001:0008a5f0       __acrt_is_interactive      000000018008b5f0 f   libucrtd:winapi_thunks.obj
 0001:0008a6e0       __acrt_tls2_supported      000000018008b6e0 f   libucrtd:winapi_thunks.obj
 0001:0008a710       __acrt_uninitialize_winapi_thunks 000000018008b710 f   libucrtd:winapi_thunks.obj
 0001:0008ab60       __acrt_initialize_lowio    000000018008bb60 f   libucrtd:ioinit.obj
 0001:0008abb0       __acrt_uninitialize_lowio  000000018008bbb0 f   libucrtd:ioinit.obj
 0001:0008ac30       __acrt_execute_initializers 000000018008bc30 f   libucrtd:shared_initialization.obj
 0001:0008ad20       __acrt_execute_uninitializers 000000018008bd20 f   libucrtd:shared_initialization.obj
 0001:0008ada0       ??$__crt_fast_decode_pointer@P6AHPEAU_exception@@@Z@@YAP6AHPEAU_exception@@@ZQ6AH0@Z@Z 000000018008bda0 f i libucrtd:matherr.obj
 0001:0008adc0       ??$__crt_fast_encode_pointer@P6AHPEAU_exception@@@Z@@YAP6AHPEAU_exception@@@ZQ6AH0@Z@Z 000000018008bdc0 f i libucrtd:matherr.obj
 0001:0008ade0       ?initialize@?$dual_state_global@P6AHPEAU_exception@@@Z@__crt_state_management@@QEAAXQ6AHPEAU_exception@@@Z@Z 000000018008bde0 f i libucrtd:matherr.obj
 0001:0008adf0       ?value@?$dual_state_global@P6AHPEAU_exception@@@Z@__crt_state_management@@QEAAAEAP6AHPEAU_exception@@@ZXZ 000000018008bdf0 f i libucrtd:matherr.obj
 0001:0008ae00       __acrt_has_user_matherr    000000018008be00 f   libucrtd:matherr.obj
 0001:0008ae20       __acrt_initialize_user_matherr 000000018008be20 f   libucrtd:matherr.obj
 0001:0008ae30       __acrt_invoke_user_matherr 000000018008be30 f   libucrtd:matherr.obj
 0001:0008ae60       __setusermatherr           000000018008be60 f   libucrtd:matherr.obj
 0001:0008ae90       ?has_any_buffer@__crt_stdio_stream@@QEBA_NXZ 000000018008be90 f i libucrtd:_sftbuf.obj
 0001:0008aeb0       ?has_any_of@__crt_stdio_stream@@QEBA_NJ@Z 000000018008beb0 f i libucrtd:_sftbuf.obj
 0001:0008aef0       ?has_temporary_buffer@__crt_stdio_stream@@QEBA_NXZ 000000018008bef0 f i libucrtd:_sftbuf.obj
 0001:0008af10       ?set_flags@__crt_stdio_stream@@QEBA_NJ@Z 000000018008bf10 f i libucrtd:_sftbuf.obj
 0001:0008af80       ?unset_flags@__crt_stdio_stream@@QEBA_NJ@Z 000000018008bf80 f i libucrtd:_sftbuf.obj
 0001:0008afe0       __acrt_should_use_temporary_buffer 000000018008bfe0 f   libucrtd:_sftbuf.obj
 0001:0008b030       __acrt_stdio_begin_temporary_buffering_nolock 000000018008c030 f   libucrtd:_sftbuf.obj
 0001:0008b290       __acrt_stdio_end_temporary_buffering_nolock 000000018008c290 f   libucrtd:_sftbuf.obj
 0001:0008b330       _CrtGetDebugFillThreshold  000000018008c330 f   libucrtd:debug_fill_threshold.obj
 0001:0008b340       _CrtSetDebugFillThreshold  000000018008c340 f   libucrtd:debug_fill_threshold.obj
 0001:0008b370       ?__acrt_fp_classify@@YA?AW4__acrt_fp_class@@AEBN@Z 000000018008c370 f i libucrtd:cvt.obj
 0001:0008b470       ?__acrt_fp_is_negative@@YA_NAEBN@Z 000000018008c470 f i libucrtd:cvt.obj
 0001:0008cdb0       ?strrchr@@YAPEADQEADH@Z    000000018008ddb0 f i libucrtd:cvt.obj
 0001:0008cdd0       __acrt_fp_format           000000018008ddd0 f   libucrtd:cvt.obj
 0001:0008d4a0       ?value_or@?$cached@H@__crt_cached_ptd_host@@QEBAHH@Z 000000018008e4a0 f i libucrtd:wctomb.obj
 0001:0008d4d0       _wctomb_internal           000000018008e4d0 f   libucrtd:wctomb.obj
 0001:0008da30       _wctomb_l                  000000018008ea30 f   libucrtd:wctomb.obj
 0001:0008dae0       _wctomb_s_l                000000018008eae0 f   libucrtd:wctomb.obj
 0001:0008db60       wctomb                     000000018008eb60 f   libucrtd:wctomb.obj
 0001:0008dc00       wctomb_s                   000000018008ec00 f   libucrtd:wctomb.obj
 0001:0008dc80       _mbtowc_internal           000000018008ec80 f   libucrtd:mbtowc.obj
 0001:0008e010       _mbtowc_l                  000000018008f010 f   libucrtd:mbtowc.obj
 0001:0008e080       mbtowc                     000000018008f080 f   libucrtd:mbtowc.obj
 0001:0008e0e0       ?__mblen_utf8@__crt_mbstring@@YAHPEBD@Z 000000018008f0e0 f   libucrtd:mbrtoc32.obj
 0001:0008e180       ?__mbrtoc32_utf8@__crt_mbstring@@YA_KPEA_UPEBD_KPEAU_Mbstatet@@AEAV__crt_cached_ptd_host@@@Z 000000018008f180 f   libucrtd:mbrtoc32.obj
 0001:0008e550       mbrtoc32                   000000018008f550 f   libucrtd:mbrtoc32.obj
 0001:0008e5d0       ?__c16rtomb_utf8@__crt_mbstring@@YA_KPEAD_SPEAU_Mbstatet@@AEAV__crt_cached_ptd_host@@@Z 000000018008f5d0 f   libucrtd:c16rtomb.obj
 0001:0008e810       c16rtomb                   000000018008f810 f   libucrtd:c16rtomb.obj
 0001:0008e8e0       ?__mbrtowc_utf8@__crt_mbstring@@YA_KPEA_WPEBD_KPEAU_Mbstatet@@AEAV__crt_cached_ptd_host@@@Z 000000018008f8e0 f   libucrtd:mbrtowc.obj
 0001:0008e970       ?__mbsrtowcs_utf8@__crt_mbstring@@YA_KPEA_WPEAPEBD_KPEAU_Mbstatet@@AEAV__crt_cached_ptd_host@@@Z 000000018008f970 f   libucrtd:mbrtowc.obj
 0001:0008fb70       btowc                      0000000180090b70 f   libucrtd:mbrtowc.obj
 0001:0008fc40       mbrlen                     0000000180090c40 f   libucrtd:mbrtowc.obj
 0001:0008fcf0       mbrtowc                    0000000180090cf0 f   libucrtd:mbrtowc.obj
 0001:0008fe00       mbsrtowcs                  0000000180090e00 f   libucrtd:mbrtowc.obj
 0001:0008fe80       mbsrtowcs_s                0000000180090e80 f   libucrtd:mbrtowc.obj
 0001:0008ff10       ?lowio_handle@__crt_stdio_stream@@QEBAHXZ 0000000180090f10 f i libucrtd:fileno.obj
 0001:0008ff40       _fileno                    0000000180090f40 f   libucrtd:fileno.obj
 0001:00090020       ??$?RPEAU__crt_stdio_stream_data@@@__crt_internal_free_policy@@QEBAXQEBQEAU__crt_stdio_stream_data@@@Z 0000000180091020 f i libucrtd:_file.obj
 0001:00090050       ??0?$__crt_unique_heap_ptr@PEAU__crt_stdio_stream_data@@U__crt_internal_free_policy@@@@QEAA@QEAPEAU__crt_stdio_stream_data@@@Z 0000000180091050 f i libucrtd:_file.obj
 0001:00090070       ??1?$__crt_unique_heap_ptr@PEAU__crt_stdio_stream_data@@U__crt_internal_free_policy@@@@QEAA@XZ 0000000180091070 f i libucrtd:_file.obj
 0001:00090090       ?detach@?$__crt_unique_heap_ptr@PEAU__crt_stdio_stream_data@@U__crt_internal_free_policy@@@@QEAAPEAPEAU__crt_stdio_stream_data@@XZ 0000000180091090 f i libucrtd:_file.obj
 0001:000900c0       ?release@?$__crt_unique_heap_ptr@PEAU__crt_stdio_stream_data@@U__crt_internal_free_policy@@@@QEAAXXZ 00000001800910c0 f i libucrtd:_file.obj
 0001:000900f0       __acrt_initialize_stdio    00000001800910f0 f   libucrtd:_file.obj
 0001:000902e0       __acrt_iob_func            00000001800912e0 f   libucrtd:_file.obj
 0001:00090300       __acrt_uninitialize_stdio  0000000180091300 f   libucrtd:_file.obj
 0001:00090390       _get_stream_buffer_pointers 0000000180091390 f   libucrtd:_file.obj
 0001:000904c0       _lock_file                 00000001800914c0 f   libucrtd:_file.obj
 0001:00090500       _unlock_file               0000000180091500 f   libucrtd:_file.obj
 0001:00090540       _get_printf_count_output   0000000180091540 f   libucrtd:printf_count_output.obj
 0001:00090570       _set_printf_count_output   0000000180091570 f   libucrtd:printf_count_output.obj
 0001:000907b0       _fputwc_nolock             00000001800917b0 f   libucrtd:fputwc.obj
 0001:00090800       _fputwc_nolock_internal    0000000180091800 f   libucrtd:fputwc.obj
 0001:00090ad0       _fputwchar                 0000000180091ad0 f   libucrtd:fputwc.obj
 0001:00090b00       _putwc_nolock              0000000180091b00 f   libucrtd:fputwc.obj
 0001:00090b30       fputwc                     0000000180091b30 f   libucrtd:fputwc.obj
 0001:00090b80       putwc                      0000000180091b80 f   libucrtd:fputwc.obj
 0001:00090bb0       putwchar                   0000000180091bb0 f   libucrtd:fputwc.obj
 0001:00090ed0       _fputc_nolock              0000000180091ed0 f   libucrtd:fputc.obj
 0001:00090f20       _fputc_nolock_internal     0000000180091f20 f   libucrtd:fputc.obj
 0001:00090fe0       _fputchar                  0000000180091fe0 f   libucrtd:fputc.obj
 0001:00091010       _putc_nolock               0000000180092010 f   libucrtd:fputc.obj
 0001:00091030       fputc                      0000000180092030 f   libucrtd:fputc.obj
 0001:00091080       putc                       0000000180092080 f   libucrtd:fputc.obj
 0001:000910a0       putchar                    00000001800920a0 f   libucrtd:fputc.obj
 0001:000910c0       _mbsdec                    00000001800920c0 f   libucrtd:mbsdec.obj
 0001:000910f0       _mbsdec_l                  00000001800920f0 f   libucrtd:mbsdec.obj
 0001:00091a30       wcsncpy_s                  0000000180092a30 f   libucrtd:wcsncpy_s.obj
 0001:00092100       strncpy_s                  0000000180093100 f   libucrtd:strncpy_s.obj
 0001:00092310       __acrt_report_runtime_error 0000000180093310 f   libucrtd:report_runtime_error.obj
 0001:00092590       _query_app_type            0000000180093590 f   libucrtd:report_runtime_error.obj
 0001:000925a0       _set_app_type              00000001800935a0 f   libucrtd:report_runtime_error.obj
 0001:000925b0       _iswctype_l                00000001800935b0 f   libucrtd:iswctype.obj
 0001:000925e0       iswctype                   00000001800935e0 f   libucrtd:iswctype.obj
 0001:00092670       ??0?$__crt_scoped_stack_ptr@_W@@QEAA@U?$__crt_scoped_stack_ptr_tag@_W@@@Z 0000000180093670 f i libucrtd:getstringtypea.obj
 0001:00092690       ??0?$__crt_scoped_stack_ptr_tag@_W@@QEAA@QEA_W@Z 0000000180093690 f i libucrtd:getstringtypea.obj
 0001:000926b0       ??1?$__crt_scoped_stack_ptr@_W@@QEAA@XZ 00000001800936b0 f i libucrtd:getstringtypea.obj
 0001:000926d0       ?get@?$__crt_scoped_stack_ptr@_W@@QEBAPEA_WXZ 00000001800936d0 f i libucrtd:getstringtypea.obj
 0001:000926e0       _MallocaComputeSize        00000001800936e0 f i libucrtd:getstringtypea.obj
 0001:00092720       _MarkAllocaS               0000000180093720 f i libucrtd:getstringtypea.obj
 0001:00092750       __acrt_GetStringTypeA      0000000180093750 f   libucrtd:getstringtypea.obj
 0001:000929b0       _freea_crt                 00000001800939b0 f i libucrtd:getstringtypea.obj
 0001:00092a50       _malloc_base               0000000180093a50 f   libucrtd:malloc_base.obj
 0001:00092af0       __acrt_add_locale_ref      0000000180093af0 f   libucrtd:locale_refcounting.obj
 0001:00092c50       __acrt_free_locale         0000000180093c50 f   libucrtd:locale_refcounting.obj
 0001:00092fd0       __acrt_locale_add_lc_time_reference 0000000180093fd0 f   libucrtd:locale_refcounting.obj
 0001:00093010       __acrt_locale_free_lc_time_if_unreferenced 0000000180094010 f   libucrtd:locale_refcounting.obj
 0001:00093070       __acrt_locale_release_lc_time_reference 0000000180094070 f   libucrtd:locale_refcounting.obj
 0001:000930b0       __acrt_release_locale_ref  00000001800940b0 f   libucrtd:locale_refcounting.obj
 0001:00093220       __acrt_update_thread_locale_data 0000000180094220 f   libucrtd:locale_refcounting.obj
 0001:000932c0       _updatetlocinfoEx_nolock   00000001800942c0 f   libucrtd:locale_refcounting.obj
 0001:00093360       ??$?RG@__crt_internal_free_policy@@QEBAXQEBG@Z 0000000180094360 f i libucrtd:initctype.obj
 0001:00093390       ??$?RJ@__crt_internal_free_policy@@QEBAXQEBJ@Z 0000000180094390 f i libucrtd:initctype.obj
 0001:000933c0       ??0?$__crt_unique_heap_ptr@GU__crt_internal_free_policy@@@@QEAA@QEAG@Z 00000001800943c0 f i libucrtd:initctype.obj
 0001:000933e0       ??0?$__crt_unique_heap_ptr@JU__crt_internal_free_policy@@@@QEAA@QEAJ@Z 00000001800943e0 f i libucrtd:initctype.obj
 0001:00093400       ??1?$__crt_unique_heap_ptr@GU__crt_internal_free_policy@@@@QEAA@XZ 0000000180094400 f i libucrtd:initctype.obj
 0001:00093420       ??1?$__crt_unique_heap_ptr@JU__crt_internal_free_policy@@@@QEAA@XZ 0000000180094420 f i libucrtd:initctype.obj
 0001:00093440       ?detach@?$__crt_unique_heap_ptr@GU__crt_internal_free_policy@@@@QEAAPEAGXZ 0000000180094440 f i libucrtd:initctype.obj
 0001:00093470       ?detach@?$__crt_unique_heap_ptr@JU__crt_internal_free_policy@@@@QEAAPEAJXZ 0000000180094470 f i libucrtd:initctype.obj
 0001:000934a0       ?release@?$__crt_unique_heap_ptr@GU__crt_internal_free_policy@@@@QEAAXXZ 00000001800944a0 f i libucrtd:initctype.obj
 0001:000934d0       ?release@?$__crt_unique_heap_ptr@JU__crt_internal_free_policy@@@@QEAAXXZ 00000001800944d0 f i libucrtd:initctype.obj
 0001:00093500       ___lc_codepage_func        0000000180094500 f   libucrtd:initctype.obj
 0001:00093540       ___lc_collate_cp_func      0000000180094540 f   libucrtd:initctype.obj
 0001:00093580       ___lc_locale_name_func     0000000180094580 f   libucrtd:initctype.obj
 0001:000935c0       ___mb_cur_max_func         00000001800945c0 f   libucrtd:initctype.obj
 0001:00093600       ___mb_cur_max_l_func       0000000180094600 f   libucrtd:initctype.obj
 0001:00093640       __acrt_locale_initialize_ctype 0000000180094640 f   libucrtd:initctype.obj
 0001:00094130       ??$?RUlconv@@@__crt_internal_free_policy@@QEBAXQEBUlconv@@@Z 0000000180095130 f i libucrtd:initmon.obj
 0001:00094160       ??0?$__crt_unique_heap_ptr@Ulconv@@U__crt_internal_free_policy@@@@QEAA@QEAUlconv@@@Z 0000000180095160 f i libucrtd:initmon.obj
 0001:00094180       ??1?$__crt_unique_heap_ptr@Ulconv@@U__crt_internal_free_policy@@@@QEAA@XZ 0000000180095180 f i libucrtd:initmon.obj
 0001:000941a0       ?detach@?$__crt_unique_heap_ptr@Ulconv@@U__crt_internal_free_policy@@@@QEAAPEAUlconv@@XZ 00000001800951a0 f i libucrtd:initmon.obj
 0001:000941d0       ?release@?$__crt_unique_heap_ptr@Ulconv@@U__crt_internal_free_policy@@@@QEAAXXZ 00000001800951d0 f i libucrtd:initmon.obj
 0001:00094200       __acrt_locale_free_monetary 0000000180095200 f   libucrtd:initmon.obj
 0001:00094410       __acrt_locale_initialize_monetary 0000000180095410 f   libucrtd:initmon.obj
 0001:00094df0       __acrt_locale_free_numeric 0000000180095df0 f   libucrtd:initnum.obj
 0001:00094ed0       __acrt_locale_initialize_numeric 0000000180095ed0 f   libucrtd:initnum.obj
 0001:00095510       ??$?RU__crt_lc_time_data@@@__crt_internal_free_policy@@QEBAXQEBU__crt_lc_time_data@@@Z 0000000180096510 f i libucrtd:inittime.obj
 0001:00095600       ??0?$__crt_unique_heap_ptr@U__crt_lc_time_data@@U__crt_internal_free_policy@@@@QEAA@QEAU__crt_lc_time_data@@@Z 0000000180096600 f i libucrtd:inittime.obj
 0001:00095620       ??1?$__crt_unique_heap_ptr@U__crt_lc_time_data@@U__crt_internal_free_policy@@@@QEAA@XZ 0000000180096620 f i libucrtd:inittime.obj
 0001:00095640       ??B?$__crt_unique_heap_ptr@U__crt_lc_time_data@@U__crt_internal_free_policy@@@@QEBA_NXZ 0000000180096640 f i libucrtd:inittime.obj
 0001:00095660       ?detach@?$__crt_unique_heap_ptr@U__crt_lc_time_data@@U__crt_internal_free_policy@@@@QEAAPEAU__crt_lc_time_data@@XZ 0000000180096660 f i libucrtd:inittime.obj
 0001:000956f0       ?get@?$__crt_unique_heap_ptr@U__crt_lc_time_data@@U__crt_internal_free_policy@@@@QEBAPEAU__crt_lc_time_data@@XZ 00000001800966f0 f i libucrtd:inittime.obj
 0001:00095d60       ?is_valid@?$__crt_unique_heap_ptr@U__crt_lc_time_data@@U__crt_internal_free_policy@@@@QEBA_NXZ 0000000180096d60 f i libucrtd:inittime.obj
 0001:00095d90       ?release@?$__crt_unique_heap_ptr@U__crt_lc_time_data@@U__crt_internal_free_policy@@@@QEAAXXZ 0000000180096d90 f i libucrtd:inittime.obj
 0001:00095dc0       __acrt_locale_free_time    0000000180096dc0 f   libucrtd:inittime.obj
 0001:00095f30       __acrt_locale_initialize_time 0000000180096f30 f   libucrtd:inittime.obj
 0001:00095fd0       __pctype_func              0000000180096fd0 f   libucrtd:ctype.obj
 0001:00096010       __pwctype_func             0000000180097010 f   libucrtd:ctype.obj
 0001:000966b0       wcscat_s                   00000001800976b0 f   libucrtd:wcscat_s.obj
 0001:00096e80       wcsncat_s                  0000000180097e80 f   libucrtd:wcsncat_s.obj
 0001:00096ec0       wcscmp                     0000000180097ec0 f   libucrtd:wcscmpc.obj
 0001:00096f60       wcscspn                    0000000180097f60 f   libucrtd:wcscspn.obj
 0001:00096ff0       wcspbrk                    0000000180097ff0 f   libucrtd:wcspbrk.obj
 0001:00097d50       __acrt_get_qualified_locale 0000000180098d50 f   libucrtd:get_qualified_locale.obj
 0001:00098ed0       __acrt_get_qualified_locale_downlevel 0000000180099ed0 f   libucrtd:getqloc_downlevel.obj
 0001:00099270       localeconv                 000000018009a270 f   libucrtd:localeconv.obj
 0001:0009aaf0       _i64toa                    000000018009baf0 f   libucrtd:xtoa.obj
 0001:0009ab60       _i64toa_s                  000000018009bb60 f   libucrtd:xtoa.obj
 0001:0009abd0       _i64tow                    000000018009bbd0 f   libucrtd:xtoa.obj
 0001:0009ac40       _i64tow_s                  000000018009bc40 f   libucrtd:xtoa.obj
 0001:0009acb0       _itoa                      000000018009bcb0 f   libucrtd:xtoa.obj
 0001:0009ad20       _itoa_s                    000000018009bd20 f   libucrtd:xtoa.obj
 0001:0009ad80       _itow                      000000018009bd80 f   libucrtd:xtoa.obj
 0001:0009adf0       _itow_s                    000000018009bdf0 f   libucrtd:xtoa.obj
 0001:0009ae50       _ltoa                      000000018009be50 f   libucrtd:xtoa.obj
 0001:0009aec0       _ltoa_s                    000000018009bec0 f   libucrtd:xtoa.obj
 0001:0009af20       _ltow                      000000018009bf20 f   libucrtd:xtoa.obj
 0001:0009af90       _ltow_s                    000000018009bf90 f   libucrtd:xtoa.obj
 0001:0009aff0       _ui64toa                   000000018009bff0 f   libucrtd:xtoa.obj
 0001:0009b030       _ui64toa_s                 000000018009c030 f   libucrtd:xtoa.obj
 0001:0009b070       _ui64tow                   000000018009c070 f   libucrtd:xtoa.obj
 0001:0009b0b0       _ui64tow_s                 000000018009c0b0 f   libucrtd:xtoa.obj
 0001:0009b0f0       _ultoa                     000000018009c0f0 f   libucrtd:xtoa.obj
 0001:0009b130       _ultoa_s                   000000018009c130 f   libucrtd:xtoa.obj
 0001:0009b170       _ultow                     000000018009c170 f   libucrtd:xtoa.obj
 0001:0009b1b0       _ultow_s                   000000018009c1b0 f   libucrtd:xtoa.obj
 0001:0009bd30       _mbstowcs_l                000000018009cd30 f   libucrtd:mbstowcs.obj
 0001:0009bda0       _mbstowcs_s_l              000000018009cda0 f   libucrtd:mbstowcs.obj
 0001:0009be30       mbstowcs                   000000018009ce30 f   libucrtd:mbstowcs.obj
 0001:0009be90       mbstowcs_s                 000000018009ce90 f   libucrtd:mbstowcs.obj
 0001:0009cd20       _wcstombs_l                000000018009dd20 f   libucrtd:wcstombs.obj
 0001:0009cd90       _wcstombs_s_l              000000018009dd90 f   libucrtd:wcstombs.obj
 0001:0009ce20       wcstombs                   000000018009de20 f   libucrtd:wcstombs.obj
 0001:0009ce80       wcstombs_s                 000000018009de80 f   libucrtd:wcstombs.obj
 0001:0009cf00       __acrt_OutputDebugStringA  000000018009df00 f   libucrtd:outputdebugstringa.obj
 0001:0009d130       qsort                      000000018009e130 f   libucrtd:qsort.obj
 0001:0009d950       strpbrk                    000000018009e950 f   libucrtd:strpbrk.obj
 0001:0009e280       ??B?$__crt_scoped_stack_ptr@_W@@QEBA_NXZ 000000018009f280 f i libucrtd:lcmapstringa.obj
 0001:0009e8c0       __acrt_LCMapStringA        000000018009f8c0 f   libucrtd:lcmapstringa.obj
 0001:0009e9a0       _wcsnicoll                 000000018009f9a0 f   libucrtd:wcsnicol.obj
 0001:0009ebf0       _wcsnicoll_l               000000018009fbf0 f   libucrtd:wcsnicol.obj
 0001:0009ef30       _strnicoll                 000000018009ff30 f   libucrtd:strnicol.obj
 0001:0009ef90       _strnicoll_l               000000018009ff90 f   libucrtd:strnicol.obj
 0001:0009f3a0       __acrt_SetEnvironmentVariableA 00000001800a03a0 f   libucrtd:setenvironmentvariablea.obj
 0001:0009f5f0       __acrt_DownlevelLCIDToLocaleName 00000001800a05f0 f   libucrtd:lcidtoname_downlevel.obj
 0001:0009f710       __acrt_DownlevelLocaleNameToLCID 00000001800a0710 f   libucrtd:lcidtoname_downlevel.obj
 0001:0009f770       ??$?RU__crt_lowio_handle_data@@@__crt_internal_free_policy@@QEBAXQEBU__crt_lowio_handle_data@@@Z 00000001800a0770 f i libucrtd:osfinfo.obj
 0001:0009f7a0       ??0?$__crt_unique_heap_ptr@U__crt_lowio_handle_data@@U__crt_internal_free_policy@@@@QEAA@QEAU__crt_lowio_handle_data@@@Z 00000001800a07a0 f i libucrtd:osfinfo.obj
 0001:0009f7c0       ??1?$__crt_unique_heap_ptr@U__crt_lowio_handle_data@@U__crt_internal_free_policy@@@@QEAA@XZ 00000001800a07c0 f i libucrtd:osfinfo.obj
 0001:0009f7e0       ??B?$__crt_unique_heap_ptr@U__crt_lowio_handle_data@@U__crt_internal_free_policy@@@@QEBA_NXZ 00000001800a07e0 f i libucrtd:osfinfo.obj
 0001:0009f800       ?detach@?$__crt_unique_heap_ptr@U__crt_lowio_handle_data@@U__crt_internal_free_policy@@@@QEAAPEAU__crt_lowio_handle_data@@XZ 00000001800a0800 f i libucrtd:osfinfo.obj
 0001:0009f830       ?get@?$__crt_unique_heap_ptr@U__crt_lowio_handle_data@@U__crt_internal_free_policy@@@@QEBAPEAU__crt_lowio_handle_data@@XZ 00000001800a0830 f i libucrtd:osfinfo.obj
 0001:0009f840       ?is_valid@?$__crt_unique_heap_ptr@U__crt_lowio_handle_data@@U__crt_internal_free_policy@@@@QEBA_NXZ 00000001800a0840 f i libucrtd:osfinfo.obj
 0001:0009f870       ?release@?$__crt_unique_heap_ptr@U__crt_lowio_handle_data@@U__crt_internal_free_policy@@@@QEAAXXZ 00000001800a0870 f i libucrtd:osfinfo.obj
 0001:0009f8a0       __acrt_lowio_create_handle_array 00000001800a08a0 f   libucrtd:osfinfo.obj
 0001:0009fa60       __acrt_lowio_destroy_handle_array 00000001800a0a60 f   libucrtd:osfinfo.obj
 0001:0009fae0       __acrt_lowio_ensure_fh_exists 00000001800a0ae0 f   libucrtd:osfinfo.obj
 0001:0009fc40       __acrt_lowio_lock_fh       00000001800a0c40 f   libucrtd:osfinfo.obj
 0001:0009fc80       __acrt_lowio_set_os_handle 00000001800a0c80 f   libucrtd:osfinfo.obj
 0001:0009fd90       __acrt_lowio_unlock_fh     00000001800a0d90 f   libucrtd:osfinfo.obj
 0001:0009fdd0       _alloc_osfhnd              00000001800a0dd0 f   libucrtd:osfinfo.obj
 0001:0009ffe0       _free_osfhnd               00000001800a0fe0 f   libucrtd:osfinfo.obj
 0001:000a0110       _get_osfhandle             00000001800a1110 f   libucrtd:osfinfo.obj
 0001:000a0310       _open_osfhandle            00000001800a1310 f   libucrtd:osfinfo.obj
 0001:000a0530       _isatty                    00000001800a1530 f   libucrtd:isatty.obj
 0001:000a09c0       ??0__crt_stdio_stream@@QEAA@QEAU__crt_stdio_stream_data@@@Z 00000001800a19c0 f i libucrtd:fflush.obj
 0001:000a0c70       ?__acrt_stdio_reset_buffer@@YAXV__crt_stdio_stream@@@Z 00000001800a1c70 f i libucrtd:fflush.obj
 0001:000a0e40       ?has_all_of@__crt_stdio_stream@@QEBA_NJ@Z 00000001800a1e40 f i libucrtd:fflush.obj
 0001:000a0f20       __acrt_stdio_flush_nolock  00000001800a1f20 f   libucrtd:fflush.obj
 0001:000a1040       _fflush_nolock             00000001800a2040 f   libucrtd:fflush.obj
 0001:000a1080       _flushall                  00000001800a2080 f   libucrtd:fflush.obj
 0001:000a1090       fflush                     00000001800a2090 f   libucrtd:fflush.obj
 0001:000a12e0       __acrt_fp_strflt_to_string 00000001800a22e0 f   libucrtd:_fptostr.obj
 0001:000a1ea0       ??0big_integer@__crt_strtox@@QEAA@AEBU01@@Z 00000001800a2ea0 f i libucrtd:cfout.obj
 0001:000a1f00       ??0big_integer@__crt_strtox@@QEAA@XZ 00000001800a2f00 f i libucrtd:cfout.obj
 0001:000a2050       ??4big_integer@__crt_strtox@@QEAAAEAU01@AEBU01@@Z 00000001800a3050 f i libucrtd:cfout.obj
 0001:000a20b0       ??8__crt_strtox@@YA_NAEBUbig_integer@0@0@Z 00000001800a30b0 f i libucrtd:cfout.obj
 0001:000a2120       ??9__crt_strtox@@YA_NAEBUbig_integer@0@0@Z 00000001800a3120 f i libucrtd:cfout.obj
 0001:000a2160       ?add_carry@__crt_strtox@@YAIAEAIII@Z 00000001800a3160 f i libucrtd:cfout.obj
 0001:000a21b0       ?add_multiply_carry@__crt_strtox@@YAIAEAIIII@Z 00000001800a31b0 f i libucrtd:cfout.obj
 0001:000a2210       ?bit_scan_reverse@__crt_strtox@@YAII@Z 00000001800a3210 f i libucrtd:cfout.obj
 0001:000a2250       ?count_sequential_high_zeroes@__crt_strtox@@YAII@Z 00000001800a3250 f i libucrtd:cfout.obj
 0001:000a22a0       ?divide@__crt_strtox@@YA_KAEAUbig_integer@1@AEBU21@@Z 00000001800a32a0 f i libucrtd:cfout.obj
 0001:000a2c70       ?is_zero@__crt_strtox@@YA_NAEBUbig_integer@1@@Z 00000001800a3c70 f i libucrtd:cfout.obj
 0001:000a2ca0       ?make_big_integer@__crt_strtox@@YA?AUbig_integer@1@_K@Z 00000001800a3ca0 f i libucrtd:cfout.obj
 0001:000a2d70       ?make_big_integer_power_of_two@__crt_strtox@@YA?AUbig_integer@1@I@Z 00000001800a3d70 f i libucrtd:cfout.obj
 0001:000a2e40       ?multiply@__crt_strtox@@YA_NAEAUbig_integer@1@AEBU21@@Z 00000001800a3e40 f i libucrtd:cfout.obj
 0001:000a31c0       ?multiply@__crt_strtox@@YA_NAEAUbig_integer@1@I@Z 00000001800a41c0 f i libucrtd:cfout.obj
 0001:000a32e0       ?multiply_64_32@__crt_strtox@@YA_K_KI@Z 00000001800a42e0 f i libucrtd:cfout.obj
 0001:000a3300       ?multiply_by_power_of_ten@__crt_strtox@@YA_NAEAUbig_integer@1@I@Z 00000001800a4300 f i libucrtd:cfout.obj
 0001:000a34b0       ?multiply_core@__crt_strtox@@YAIQEAIII@Z 00000001800a44b0 f i libucrtd:cfout.obj
 0001:000a3530       ?shift_left@__crt_strtox@@YA_NAEAUbig_integer@1@I@Z 00000001800a4530 f i libucrtd:cfout.obj
 0001:000a3810       __acrt_fltout              00000001800a4810 f   libucrtd:cfout.obj
 0001:000a3d40       __fpe_flt_rounds           00000001800a4d40 f   libucrtd:fegetround.obj
 0001:000a3d90       fegetround                 00000001800a4d90 f   libucrtd:fegetround.obj
 0001:000a3db0       ?__c32rtomb_utf8@__crt_mbstring@@YA_KPEAD_UPEAU_Mbstatet@@AEAV__crt_cached_ptd_host@@@Z 00000001800a4db0 f   libucrtd:c32rtomb.obj
 0001:000a4060       c32rtomb                   00000001800a5060 f   libucrtd:c32rtomb.obj
 0001:000a40c0       ?reset_and_return@__crt_mbstring@@YA_K_KPEAU_Mbstatet@@@Z 00000001800a50c0 f   libucrtd:common_utf8.obj
 0001:000a4100       ?return_illegal_sequence@__crt_mbstring@@YA_KPEAU_Mbstatet@@AEAV__crt_cached_ptd_host@@@Z 00000001800a5100 f   libucrtd:common_utf8.obj
 0001:000a4160       ?is_in_use@__crt_stdio_stream@@QEBA_NXZ 00000001800a5160 f i libucrtd:closeall.obj
 0001:000a41a0       _fcloseall                 00000001800a51a0 f   libucrtd:closeall.obj
 0001:000a42b0       ?has_crt_buffer@__crt_stdio_stream@@QEBA_NXZ 00000001800a52b0 f i libucrtd:_freebuf.obj
 0001:000a42d0       __acrt_stdio_free_buffer_nolock 00000001800a52d0 f   libucrtd:_freebuf.obj
 0001:000a4dd0       ?has_big_buffer@__crt_stdio_stream@@QEBA_NXZ 00000001800a5dd0 f i libucrtd:_flsbuf.obj
 0001:000a4f20       __acrt_stdio_flush_and_write_narrow_nolock 00000001800a5f20 f   libucrtd:_flsbuf.obj
 0001:000a4f60       __acrt_stdio_flush_and_write_wide_nolock 00000001800a5f60 f   libucrtd:_flsbuf.obj
 0001:000a4fa0       _set_error_mode            00000001800a5fa0 f   libucrtd:set_error_mode.obj
 0001:000a50a0       __acrt_GetStringTypeW      00000001800a60a0 f   libucrtd:getstringtypew.obj
 0001:000a5300       __acrt_GetLocaleInfoA      00000001800a6300 f   libucrtd:getlocaleinfoa.obj
 0001:000a58d0       __ascii_wcsicmp            00000001800a68d0 f   libucrtd:wcsicmp.obj
 0001:000a59a0       _towlower_fast_internal    00000001800a69a0 f i libucrtd:wcsicmp.obj
 0001:000a59f0       _towlower_internal         00000001800a69f0 f i libucrtd:wcsicmp.obj
 0001:000a5a30       _wcsicmp                   00000001800a6a30 f   libucrtd:wcsicmp.obj
 0001:000a5aa0       _wcsicmp_l                 00000001800a6aa0 f   libucrtd:wcsicmp.obj
 0001:000a5ef0       __ascii_wcsnicmp           00000001800a6ef0 f   libucrtd:wcsnicmp.obj
 0001:000a5ff0       _wcsnicmp                  00000001800a6ff0 f   libucrtd:wcsnicmp.obj
 0001:000a6070       _wcsnicmp_l                00000001800a7070 f   libucrtd:wcsnicmp.obj
 0001:000a63a0       ?__wcsrtombs_utf8@__crt_mbstring@@YA_KPEADPEAPEB_W_KPEAU_Mbstatet@@AEAV__crt_cached_ptd_host@@@Z 00000001800a73a0 f   libucrtd:wcrtomb.obj
 0001:000a7020       wcrtomb                    00000001800a8020 f   libucrtd:wcrtomb.obj
 0001:000a70a0       wcrtomb_s                  00000001800a80a0 f   libucrtd:wcrtomb.obj
 0001:000a7120       wcsrtombs                  00000001800a8120 f   libucrtd:wcrtomb.obj
 0001:000a71a0       wcsrtombs_s                00000001800a81a0 f   libucrtd:wcrtomb.obj
 0001:000a77e0       wctob                      00000001800a87e0 f   libucrtd:wcrtomb.obj
 0001:000a78ec       _guard_check_icall         00000001800a88ec f i libucrtd:checkcfg.obj
 0001:000a7910       __strncnt                  00000001800a8910 f   libucrtd:strncnt.obj
 0001:000a7970       __acrt_CompareStringW      00000001800a8970 f   libucrtd:comparestringw.obj
 0001:000a7cc0       __ascii_strnicmp           00000001800a8cc0 f   libucrtd:strnicmp.obj
 0001:000a7dc0       _strnicmp                  00000001800a8dc0 f   libucrtd:strnicmp.obj
 0001:000a7e50       _strnicmp_l                00000001800a8e50 f   libucrtd:strnicmp.obj
 0001:000a88b0       __acrt_CompareStringA      00000001800a98b0 f   libucrtd:comparestringa.obj
 0001:000a8b70       _commit                    00000001800a9b70 f   libucrtd:commit.obj
 0001:000aa5a0       _utf8_no_of_trailbytes     00000001800ab5a0 f i libucrtd:write.obj
 0001:000aa5c0       _write                     00000001800ab5c0 f   libucrtd:write.obj
 0001:000aa620       _write_internal            00000001800ab620 f   libucrtd:write.obj
 0001:000aa9c0       _write_nolock              00000001800ab9c0 f   libucrtd:write.obj
 0001:000ab090       log10                      00000001800ac090 f   libucrtd:log10.obj
 0001:000ab640       ceil                       00000001800ac640 f   libucrtd:ceil.obj
 0001:000ab710       _controlfp_s               00000001800ac710 f   libucrtd:contrlfp.obj
 0001:000ab7e0       fegetenv                   00000001800ac7e0 f   libucrtd:fegetenv.obj
 0001:000ab800       fesetenv                   00000001800ac800 f   libucrtd:fesetenv.obj
 0001:000ab870       feholdexcept               00000001800ac870 f   libucrtd:feholdexcept.obj
 0001:000ab8d0       ??$__acrt_fenv_shift_bits@W4__acrt_fenv_abstract_control@@@@YA?AW4__acrt_fenv_abstract_control@@W40@0I@Z 00000001800ac8d0 f i libucrtd:_fenvutils.obj
 0001:000ab8e0       ??$__acrt_fenv_shift_bits@W4__acrt_fenv_abstract_status@@@@YA?AW4__acrt_fenv_abstract_status@@W40@0I@Z 00000001800ac8e0 f i libucrtd:_fenvutils.obj
 0001:000ab8f0       ??$__acrt_fenv_translate_bit@W4__acrt_fenv_abstract_control@@W4__acrt_fenv_machine_sse_control@@@@YA?AW4__acrt_fenv_abstract_control@@W4__acrt_fenv_machine_sse_control@@0W40@1@Z 00000001800ac8f0 f i libucrtd:_fenvutils.obj
 0001:000ab900       ??$__acrt_fenv_translate_bit@W4__acrt_fenv_abstract_status@@W4__acrt_fenv_machine_sse_status@@@@YA?AW4__acrt_fenv_abstract_status@@W4__acrt_fenv_machine_sse_status@@0W40@1@Z 00000001800ac900 f i libucrtd:_fenvutils.obj
 0001:000ab910       ??$__acrt_fenv_translate_bit@W4__acrt_fenv_machine_sse_control@@W4__acrt_fenv_abstract_control@@@@YA?AW4__acrt_fenv_machine_sse_control@@W4__acrt_fenv_abstract_control@@0W40@1@Z 00000001800ac910 f i libucrtd:_fenvutils.obj
 0001:000ab920       ??$__acrt_fenv_translate_bit@W4__acrt_fenv_machine_sse_status@@W4__acrt_fenv_abstract_status@@@@YA?AW4__acrt_fenv_machine_sse_status@@W4__acrt_fenv_abstract_status@@0W40@1@Z 00000001800ac920 f i libucrtd:_fenvutils.obj
 0001:000ab930       ??$__acrt_fenv_unshift_bits@W4__acrt_fenv_abstract_control@@@@YA?AW4__acrt_fenv_abstract_control@@W40@0I@Z 00000001800ac930 f i libucrtd:_fenvutils.obj
 0001:000ab940       ??$__acrt_fenv_unshift_bits@W4__acrt_fenv_abstract_status@@@@YA?AW4__acrt_fenv_abstract_status@@W40@0I@Z 00000001800ac940 f i libucrtd:_fenvutils.obj
 0001:000abb50       ??I@YA?AW4__acrt_fenv_abstract_control@@W40@0@Z 00000001800acb50 f i libucrtd:_fenvutils.obj
 0001:000abb60       ??I@YA?AW4__acrt_fenv_abstract_status@@W40@0@Z 00000001800acb60 f i libucrtd:_fenvutils.obj
 0001:000abb70       ??I@YA?AW4__acrt_fenv_machine_sse_control@@W40@0@Z 00000001800acb70 f i libucrtd:_fenvutils.obj
 0001:000abb80       ??I@YA?AW4__acrt_fenv_machine_sse_status@@W40@0@Z 00000001800acb80 f i libucrtd:_fenvutils.obj
 0001:000abb90       ??U@YA?AW4__acrt_fenv_abstract_control@@W40@0@Z 00000001800acb90 f i libucrtd:_fenvutils.obj
 0001:000abba0       ??U@YA?AW4__acrt_fenv_abstract_status@@W40@0@Z 00000001800acba0 f i libucrtd:_fenvutils.obj
 0001:000abbb0       ??U@YA?AW4__acrt_fenv_machine_sse_control@@W40@0@Z 00000001800acbb0 f i libucrtd:_fenvutils.obj
 0001:000abbc0       ??_5@YAAEAW4__acrt_fenv_abstract_control@@AEAW40@W40@@Z 00000001800acbc0 f i libucrtd:_fenvutils.obj
 0001:000abbd0       ??_5@YAAEAW4__acrt_fenv_abstract_status@@AEAW40@W40@@Z 00000001800acbd0 f i libucrtd:_fenvutils.obj
 0001:000abbe0       ??_5@YAAEAW4__acrt_fenv_machine_sse_control@@AEAW40@W40@@Z 00000001800acbe0 f i libucrtd:_fenvutils.obj
 0001:000abbf0       ??_5@YAAEAW4__acrt_fenv_machine_sse_status@@AEAW40@W40@@Z 00000001800acbf0 f i libucrtd:_fenvutils.obj
 0001:000abc00       ?__acrt_fenv_shift_abstract_sse_control@@YA?AW4__acrt_fenv_abstract_control@@W41@@Z 00000001800acc00 f i libucrtd:_fenvutils.obj
 0001:000abc20       ?__acrt_fenv_shift_abstract_sse_status@@YA?AW4__acrt_fenv_abstract_status@@W41@@Z 00000001800acc20 f i libucrtd:_fenvutils.obj
 0001:000abc30       ?__acrt_fenv_unshift_abstract_sse_control@@YA?AW4__acrt_fenv_abstract_control@@W41@@Z 00000001800acc30 f i libucrtd:_fenvutils.obj
 0001:000abc50       ?__acrt_fenv_unshift_abstract_sse_status@@YA?AW4__acrt_fenv_abstract_status@@W41@@Z 00000001800acc50 f i libucrtd:_fenvutils.obj
 0001:000abf60       __acrt_fenv_expand_round_control 00000001800acf60 f   libucrtd:_fenvutils.obj
 0001:000abf80       __acrt_fenv_get_common_round_control 00000001800acf80 f   libucrtd:_fenvutils.obj
 0001:000abf90       __acrt_fenv_get_control    00000001800acf90 f   libucrtd:_fenvutils.obj
 0001:000ac070       __acrt_fenv_get_fp_status_word_from_exception_mask 00000001800ad070 f   libucrtd:_fenvutils.obj
 0001:000ac080       __acrt_fenv_get_status     00000001800ad080 f   libucrtd:_fenvutils.obj
 0001:000ac0e0       __acrt_fenv_set_control    00000001800ad0e0 f   libucrtd:_fenvutils.obj
 0001:000ac210       __acrt_fenv_set_status     00000001800ad210 f   libucrtd:_fenvutils.obj
 0001:000ac5a0       _fclose_nolock             00000001800ad5a0 f   libucrtd:fclose.obj
 0001:000ac5e0       fclose                     00000001800ad5e0 f   libucrtd:fclose.obj
 0001:000ad170       _lseek                     00000001800ae170 f   libucrtd:lseek.obj
 0001:000ad1d0       _lseek_internal            00000001800ae1d0 f   libucrtd:lseek.obj
 0001:000ad210       _lseek_nolock              00000001800ae210 f   libucrtd:lseek.obj
 0001:000ad270       _lseek_nolock_internal     00000001800ae270 f   libucrtd:lseek.obj
 0001:000ad2b0       _lseeki64                  00000001800ae2b0 f   libucrtd:lseek.obj
 0001:000ad310       _lseeki64_internal         00000001800ae310 f   libucrtd:lseek.obj
 0001:000ad350       _lseeki64_nolock           00000001800ae350 f   libucrtd:lseek.obj
 0001:000ad3b0       _lseeki64_nolock_internal  00000001800ae3b0 f   libucrtd:lseek.obj
 0001:000ad3f0       __acrt_stdio_allocate_buffer_nolock 00000001800ae3f0 f   libucrtd:_getbuf.obj
 0001:000ad570       _towlower_l                00000001800ae570 f   libucrtd:towlower.obj
 0001:000ad720       towlower                   00000001800ae720 f   libucrtd:towlower.obj
 0001:000ad8b0       _putwch                    00000001800ae8b0 f   libucrtd:putwch.obj
 0001:000ad8e0       _putwch_nolock             00000001800ae8e0 f   libucrtd:putwch.obj
 0001:000ad930       _putwch_nolock_internal    00000001800ae930 f   libucrtd:putwch.obj
 0001:000ae830       _read                      00000001800af830 f   libucrtd:read.obj
 0001:000aeb80       _read_nolock               00000001800afb80 f   libucrtd:read.obj
 0001:000af970       __acrt_initialize_fma3     00000001800b0970 f   libucrtd:fma3_available.obj
 0001:000afa30       _get_FMA3_enable           00000001800b0a30 f   libucrtd:fma3_available.obj
 0001:000afa40       _set_FMA3_enable           00000001800b0a40 f   libucrtd:fma3_available.obj
 0001:000afa80       _log10_special             00000001800b0a80 f   libucrtd:log_special.obj
 0001:000afaa0       _log10f_special            00000001800b0aa0 f   libucrtd:log_special.obj
 0001:000afac0       _log_special               00000001800b0ac0 f   libucrtd:log_special.obj
 0001:000afb80       _logf_special              00000001800b0b80 f   libucrtd:log_special.obj
 0001:000afdc0       _handle_error              00000001800b0dc0 f   libucrtd:libm_error.obj
 0001:000aff00       _handle_errorf             00000001800b0f00 f   libucrtd:libm_error.obj
 0001:000b0040       _handle_nan                00000001800b1040 f   libucrtd:libm_error.obj
 0001:000b0060       _handle_nanf               00000001800b1060 f   libucrtd:libm_error.obj
 0001:000b0070       round_sse41                00000001800b1070 f   libucrtd:floorceil_sse41.obj
 0001:000b00a0       roundf_sse41               00000001800b10a0 f   libucrtd:floorceil_sse41.obj
 0001:000b00c0       floor_sse41                00000001800b10c0 f   libucrtd:floorceil_sse41.obj
 0001:000b00d0       floorf_sse41               00000001800b10d0 f   libucrtd:floorceil_sse41.obj
 0001:000b00e0       ceil_sse41                 00000001800b10e0 f   libucrtd:floorceil_sse41.obj
 0001:000b00f0       ceilf_sse41                00000001800b10f0 f   libucrtd:floorceil_sse41.obj
 0001:000b0100       trunc_sse41                00000001800b1100 f   libucrtd:floorceil_sse41.obj
 0001:000b0110       truncl_sse41               00000001800b1110 f   libucrtd:floorceil_sse41.obj
 0001:000b0120       truncf_sse41               00000001800b1120 f   libucrtd:floorceil_sse41.obj
 0001:000b0130       nearbyint_sse41            00000001800b1130 f   libucrtd:floorceil_sse41.obj
 0001:000b0140       nearbyintl_sse41           00000001800b1140 f   libucrtd:floorceil_sse41.obj
 0001:000b0150       nearbyintf_sse41           00000001800b1150 f   libucrtd:floorceil_sse41.obj
 0001:000b0160       rint_sse41                 00000001800b1160 f   libucrtd:floorceil_sse41.obj
 0001:000b0170       rintl_sse41                00000001800b1170 f   libucrtd:floorceil_sse41.obj
 0001:000b0180       rintf_sse41                00000001800b1180 f   libucrtd:floorceil_sse41.obj
 0001:000b02b0       _clearfp                   00000001800b12b0 f   libucrtd:ieee.obj
 0001:000b0320       _control87                 00000001800b1320 f   libucrtd:ieee.obj
 0001:000b0330       _controlfp                 00000001800b1330 f   libucrtd:ieee.obj
 0001:000b0340       _fpreset                   00000001800b1340 f   libucrtd:ieee.obj
 0001:000b0410       _set_controlfp             00000001800b1410 f   libucrtd:ieee.obj
 0001:000b0440       _statusfp                  00000001800b1440 f   libucrtd:ieee.obj
 0001:000b0a80       _close                     00000001800b1a80 f   libucrtd:close.obj
 0001:000b0ac0       _close_internal            00000001800b1ac0 f   libucrtd:close.obj
 0001:000b0d80       _close_nolock              00000001800b1d80 f   libucrtd:close.obj
 0001:000b0dc0       _close_nolock_internal     00000001800b1dc0 f   libucrtd:close.obj
 0001:000b0e30       ??$?RU__crt_stdio_stream_data@@@__crt_internal_free_policy@@QEBAXQEBU__crt_stdio_stream_data@@@Z 00000001800b1e30 f i libucrtd:stream.obj
 0001:000b0e60       ??0?$__crt_unique_heap_ptr@U__crt_stdio_stream_data@@U__crt_internal_free_policy@@@@QEAA@QEAU__crt_stdio_stream_data@@@Z 00000001800b1e60 f i libucrtd:stream.obj
 0001:000b0e80       ??0__crt_stdio_stream@@QEAA@XZ 00000001800b1e80 f i libucrtd:stream.obj
 0001:000b0ea0       ??1?$__crt_unique_heap_ptr@U__crt_stdio_stream_data@@U__crt_internal_free_policy@@@@QEAA@XZ 00000001800b1ea0 f i libucrtd:stream.obj
 0001:000b0ec0       ?__acrt_stdio_allocate_stream@@YA?AV__crt_stdio_stream@@XZ 00000001800b1ec0 f   libucrtd:stream.obj
 0001:000b0f80       ?__acrt_stdio_free_stream@@YAXV__crt_stdio_stream@@@Z 00000001800b1f80 f   libucrtd:stream.obj
 0001:000b1020       ?deallocate@__crt_stdio_stream@@QEAAXXZ 00000001800b2020 f i libucrtd:stream.obj
 0001:000b1040       ?detach@?$__crt_unique_heap_ptr@U__crt_stdio_stream_data@@U__crt_internal_free_policy@@@@QEAAPEAU__crt_stdio_stream_data@@XZ 00000001800b2040 f i libucrtd:stream.obj
 0001:000b1220       ?lock@__crt_stdio_stream@@QEBAXXZ 00000001800b2220 f i libucrtd:stream.obj
 0001:000b1240       ?release@?$__crt_unique_heap_ptr@U__crt_stdio_stream_data@@U__crt_internal_free_policy@@@@QEAAXXZ 00000001800b2240 f i libucrtd:stream.obj
 0001:000b1270       ?try_allocate@__crt_stdio_stream@@QEAA_NXZ 00000001800b2270 f i libucrtd:stream.obj
 0001:000b12e0       ?unlock@__crt_stdio_stream@@QEBAXXZ 00000001800b22e0 f i libucrtd:stream.obj
 0001:000b1300       __acrt_LCMapStringW        00000001800b2300 f   libucrtd:lcmapstringw.obj
 0001:000b1500       __dcrt_lowio_ensure_console_output_initialized 00000001800b2500 f   libucrtd:initcon.obj
 0001:000b1530       __dcrt_terminate_console_output 00000001800b2530 f   libucrtd:initcon.obj
 0001:000b1560       __dcrt_write_console       00000001800b2560 f   libucrtd:initcon.obj
 0001:000b15a0       _clrfp                     00000001800b25a0 f   libucrtd:fpctrl.obj
 0001:000b15c0       _ctrlfp                    00000001800b25c0 f   libucrtd:fpctrl.obj
 0001:000b1640       _get_fpcsr                 00000001800b2640 f   libucrtd:fpctrl.obj
 0001:000b1650       _get_fpsr                  00000001800b2650 f i libucrtd:fpctrl.obj
 0001:000b1660       _set_fpcsr                 00000001800b2660 f   libucrtd:fpctrl.obj
 0001:000b1670       _set_fpsr                  00000001800b2670 f i libucrtd:fpctrl.obj
 0001:000b1680       _set_statfp                00000001800b2680 f   libucrtd:fpctrl.obj
 0001:000b16a0       _statfp                    00000001800b26a0 f   libucrtd:fpctrl.obj
 0001:000b1760       ?should_round_up@__crt_strtox@@YA_N_N000@Z 00000001800b2760 f i libucrtd:fpexcept.obj
 0001:000b1820       _errcode                   00000001800b2820 f   libucrtd:fpexcept.obj
 0001:000b1860       _except1                   00000001800b2860 f   libucrtd:fpexcept.obj
 0001:000b19e0       _except2                   00000001800b29e0 f   libucrtd:fpexcept.obj
 0001:000b1b90       _fperrraise                00000001800b2b90 f   libucrtd:fpexcept.obj
 0001:000b1ca0       _handle_exc                00000001800b2ca0 f   libucrtd:fpexcept.obj
 0001:000b2060       _handle_qnan2              00000001800b3060 f   libucrtd:fpexcept.obj
 0001:000b2070       _raise_exc                 00000001800b3070 f   libucrtd:fpexcept.obj
 0001:000b20a0       _raise_exc_ex              00000001800b30a0 f   libucrtd:fpexcept.obj
 0001:000b23b0       _raise_excf                00000001800b33b0 f   libucrtd:fpexcept.obj
 0001:000b23e0       _set_errno_from_matherr    00000001800b33e0 f   libucrtd:fpexcept.obj
 0001:000b2420       _umatherr                  00000001800b3420 f   libucrtd:fpexcept.obj
 0001:000b2580       ??_4@YAAEAW4__acrt_fenv_abstract_status@@AEAW40@W40@@Z 00000001800b3580 f i libucrtd:fegetexceptflag.obj
 0001:000b2590       fegetexceptflag            00000001800b3590 f   libucrtd:fegetexceptflag.obj
 0001:000b25e0       ??S@YA?AW4__acrt_fenv_abstract_status@@W40@@Z 00000001800b35e0 f i libucrtd:fesetexceptflag.obj
 0001:000b25f0       fesetexceptflag            00000001800b35f0 f   libucrtd:fesetexceptflag.obj
 0001:000b2670       _decomp                    00000001800b3670 f i libucrtd:frexp.obj
 0001:000b2770       _set_exp                   00000001800b3770 f i libucrtd:frexp.obj
 0001:000b27a0       _sptype                    00000001800b37a0 f i libucrtd:frexp.obj
 0001:000b2830       frexp                      00000001800b3830 f   libucrtd:frexp.obj
 0001:000b2a70       fetestexcept               00000001800b3a70 f   libucrtd:fetestexcept.obj
 0001:000b2a94       RaiseException             00000001800b3a94 f   kernel32:KERNEL32.dll
 0001:000b2a9a       GetLastError               00000001800b3a9a f   kernel32:KERNEL32.dll
 0001:000b2aa0       GetSystemInfo              00000001800b3aa0 f   kernel32:KERNEL32.dll
 0001:000b2aa6       VirtualProtect             00000001800b3aa6 f   kernel32:KERNEL32.dll
 0001:000b2aac       VirtualQuery               00000001800b3aac f   kernel32:KERNEL32.dll
 0001:000b2ab2       FreeLibrary                00000001800b3ab2 f   kernel32:KERNEL32.dll
 0001:000b2ab8       GetModuleHandleW           00000001800b3ab8 f   kernel32:KERNEL32.dll
 0001:000b2abe       GetProcAddress             00000001800b3abe f   kernel32:KERNEL32.dll
 0001:000b2ac4       LoadLibraryExA             00000001800b3ac4 f   kernel32:KERNEL32.dll
 0001:000b2aca       InitializeSListHead        00000001800b3aca f   kernel32:KERNEL32.dll
 0001:000b2ad0       QueryPerformanceCounter    00000001800b3ad0 f   kernel32:KERNEL32.dll
 0001:000b2ad6       GetCurrentProcessId        00000001800b3ad6 f   kernel32:KERNEL32.dll
 0001:000b2adc       GetCurrentThreadId         00000001800b3adc f   kernel32:KERNEL32.dll
 0001:000b2ae2       GetSystemTimeAsFileTime    00000001800b3ae2 f   kernel32:KERNEL32.dll
 0001:000b2ae8       RtlCaptureContext          00000001800b3ae8 f   kernel32:KERNEL32.dll
 0001:000b2aee       RtlLookupFunctionEntry     00000001800b3aee f   kernel32:KERNEL32.dll
 0001:000b2af4       RtlVirtualUnwind           00000001800b3af4 f   kernel32:KERNEL32.dll
 0001:000b2afa       IsDebuggerPresent          00000001800b3afa f   kernel32:KERNEL32.dll
 0001:000b2b00       UnhandledExceptionFilter   00000001800b3b00 f   kernel32:KERNEL32.dll
 0001:000b2b06       SetUnhandledExceptionFilter 00000001800b3b06 f   kernel32:KERNEL32.dll
 0001:000b2b0c       GetStartupInfoW            00000001800b3b0c f   kernel32:KERNEL32.dll
 0001:000b2b12       IsProcessorFeaturePresent  00000001800b3b12 f   kernel32:KERNEL32.dll
 0001:000b2b18       MultiByteToWideChar        00000001800b3b18 f   kernel32:KERNEL32.dll
 0001:000b2b1e       WideCharToMultiByte        00000001800b3b1e f   kernel32:KERNEL32.dll
 0001:000b2b24       HeapAlloc                  00000001800b3b24 f   kernel32:KERNEL32.dll
 0001:000b2b2a       HeapFree                   00000001800b3b2a f   kernel32:KERNEL32.dll
 0001:000b2b30       GetProcessHeap             00000001800b3b30 f   kernel32:KERNEL32.dll
 0001:000b2b36       GetCurrentProcess          00000001800b3b36 f   kernel32:KERNEL32.dll
 0001:000b2b3c       TerminateProcess           00000001800b3b3c f   kernel32:KERNEL32.dll
 0001:000b2b42       InterlockedPushEntrySList  00000001800b3b42 f   kernel32:KERNEL32.dll
 0001:000b2b48       InterlockedFlushSList      00000001800b3b48 f   kernel32:KERNEL32.dll
 0001:000b2b4e       RtlUnwindEx                00000001800b3b4e f   kernel32:KERNEL32.dll
 0001:000b2b54       GetModuleFileNameW         00000001800b3b54 f   kernel32:KERNEL32.dll
 0001:000b2b5a       LoadLibraryExW             00000001800b3b5a f   kernel32:KERNEL32.dll
 0001:000b2b60       SetLastError               00000001800b3b60 f   kernel32:KERNEL32.dll
 0001:000b2b66       EnterCriticalSection       00000001800b3b66 f   kernel32:KERNEL32.dll
 0001:000b2b6c       LeaveCriticalSection       00000001800b3b6c f   kernel32:KERNEL32.dll
 0001:000b2b72       DeleteCriticalSection      00000001800b3b72 f   kernel32:KERNEL32.dll
 0001:000b2b78       InitializeCriticalSectionAndSpinCount 00000001800b3b78 f   kernel32:KERNEL32.dll
 0001:000b2b7e       TlsAlloc                   00000001800b3b7e f   kernel32:KERNEL32.dll
 0001:000b2b84       TlsGetValue                00000001800b3b84 f   kernel32:KERNEL32.dll
 0001:000b2b8a       TlsSetValue                00000001800b3b8a f   kernel32:KERNEL32.dll
 0001:000b2b90       TlsFree                    00000001800b3b90 f   kernel32:KERNEL32.dll
 0001:000b2b96       EncodePointer              00000001800b3b96 f   kernel32:KERNEL32.dll
 0001:000b2b9c       RtlPcToFileHeader          00000001800b3b9c f   kernel32:KERNEL32.dll
 0001:000b2ba2       HeapSize                   00000001800b3ba2 f   kernel32:KERNEL32.dll
 0001:000b2ba8       HeapValidate               00000001800b3ba8 f   kernel32:KERNEL32.dll
 0001:000b2bae       GetModuleHandleExW         00000001800b3bae f   kernel32:KERNEL32.dll
 0001:000b2bb4       ExitProcess                00000001800b3bb4 f   kernel32:KERNEL32.dll
 0001:000b2bba       HeapReAlloc                00000001800b3bba f   kernel32:KERNEL32.dll
 0001:000b2bc0       GetCurrentThread           00000001800b3bc0 f   kernel32:KERNEL32.dll
 0001:000b2bc6       HeapQueryInformation       00000001800b3bc6 f   kernel32:KERNEL32.dll
 0001:000b2bcc       GetStdHandle               00000001800b3bcc f   kernel32:KERNEL32.dll
 0001:000b2bd2       GetFileType                00000001800b3bd2 f   kernel32:KERNEL32.dll
 0001:000b2bd8       WriteFile                  00000001800b3bd8 f   kernel32:KERNEL32.dll
 0001:000b2bde       OutputDebugStringW         00000001800b3bde f   kernel32:KERNEL32.dll
 0001:000b2be4       WriteConsoleW              00000001800b3be4 f   kernel32:KERNEL32.dll
 0001:000b2bea       SetConsoleCtrlHandler      00000001800b3bea f   kernel32:KERNEL32.dll
 0001:000b2bf0       FindClose                  00000001800b3bf0 f   kernel32:KERNEL32.dll
 0001:000b2bf6       FindFirstFileExW           00000001800b3bf6 f   kernel32:KERNEL32.dll
 0001:000b2bfc       FindNextFileW              00000001800b3bfc f   kernel32:KERNEL32.dll
 0001:000b2c02       IsValidCodePage            00000001800b3c02 f   kernel32:KERNEL32.dll
 0001:000b2c08       GetACP                     00000001800b3c08 f   kernel32:KERNEL32.dll
 0001:000b2c0e       GetOEMCP                   00000001800b3c0e f   kernel32:KERNEL32.dll
 0001:000b2c14       GetCPInfo                  00000001800b3c14 f   kernel32:KERNEL32.dll
 0001:000b2c1a       GetCommandLineA            00000001800b3c1a f   kernel32:KERNEL32.dll
 0001:000b2c20       GetCommandLineW            00000001800b3c20 f   kernel32:KERNEL32.dll
 0001:000b2c26       GetEnvironmentStringsW     00000001800b3c26 f   kernel32:KERNEL32.dll
 0001:000b2c2c       FreeEnvironmentStringsW    00000001800b3c2c f   kernel32:KERNEL32.dll
 0001:000b2c32       SetEnvironmentVariableW    00000001800b3c32 f   kernel32:KERNEL32.dll
 0001:000b2c38       GetTempPathW               00000001800b3c38 f   kernel32:KERNEL32.dll
 0001:000b2c3e       FlsAlloc                   00000001800b3c3e f   kernel32:KERNEL32.dll
 0001:000b2c44       FlsGetValue                00000001800b3c44 f   kernel32:KERNEL32.dll
 0001:000b2c4a       FlsSetValue                00000001800b3c4a f   kernel32:KERNEL32.dll
 0001:000b2c50       FlsFree                    00000001800b3c50 f   kernel32:KERNEL32.dll
 0001:000b2c56       IsThreadAFiber             00000001800b3c56 f   kernel32:KERNEL32.dll
 0001:000b2c5c       InitializeCriticalSectionEx 00000001800b3c5c f   kernel32:KERNEL32.dll
 0001:000b2c62       GetDateFormatW             00000001800b3c62 f   kernel32:KERNEL32.dll
 0001:000b2c68       GetTimeFormatW             00000001800b3c68 f   kernel32:KERNEL32.dll
 0001:000b2c6e       CompareStringW             00000001800b3c6e f   kernel32:KERNEL32.dll
 0001:000b2c74       LCMapStringW               00000001800b3c74 f   kernel32:KERNEL32.dll
 0001:000b2c7a       GetLocaleInfoW             00000001800b3c7a f   kernel32:KERNEL32.dll
 0001:000b2c80       IsValidLocale              00000001800b3c80 f   kernel32:KERNEL32.dll
 0001:000b2c86       GetUserDefaultLCID         00000001800b3c86 f   kernel32:KERNEL32.dll
 0001:000b2c8c       EnumSystemLocalesW         00000001800b3c8c f   kernel32:KERNEL32.dll
 0001:000b2c92       GetStringTypeW             00000001800b3c92 f   kernel32:KERNEL32.dll
 0001:000b2c98       SetStdHandle               00000001800b3c98 f   kernel32:KERNEL32.dll
 0001:000b2c9e       GetFileSizeEx              00000001800b3c9e f   kernel32:KERNEL32.dll
 0001:000b2ca4       SetFilePointerEx           00000001800b3ca4 f   kernel32:KERNEL32.dll
 0001:000b2caa       FlushFileBuffers           00000001800b3caa f   kernel32:KERNEL32.dll
 0001:000b2cb0       GetConsoleOutputCP         00000001800b3cb0 f   kernel32:KERNEL32.dll
 0001:000b2cb6       GetConsoleMode             00000001800b3cb6 f   kernel32:KERNEL32.dll
 0001:000b2cbc       ReadFile                   00000001800b3cbc f   kernel32:KERNEL32.dll
 0001:000b2cc2       ReadConsoleW               00000001800b3cc2 f   kernel32:KERNEL32.dll
 0001:000b2cc8       CloseHandle                00000001800b3cc8 f   kernel32:KERNEL32.dll
 0001:000b2cce       CreateFileW                00000001800b3cce f   kernel32:KERNEL32.dll
 0001:000b2ce0       _FindPESection             00000001800b3ce0 f   LIBCMTD:pesect.obj
 0001:000b2d90       _IsNonwritableInCurrentImage 00000001800b3d90 f   LIBCMTD:pesect.obj
 0001:000b2e20       _ValidateImageBase         00000001800b3e20 f   LIBCMTD:pesect.obj
 0001:000b2ea0       __GSHandlerCheck_SEH       00000001800b3ea0 f   LIBCMTD:gshandlerseh.obj
 0001:000b2f70       __chkstk                   00000001800b3f70 f   LIBCMTD:chkstk.obj
 0001:000b2f70       _alloca_probe              00000001800b3f70 f   LIBCMTD:chkstk.obj
 0001:000b2fc0       __GSHandlerCheck_EH        00000001800b3fc0 f   LIBCMTD:gshandlereh.obj
 0001:000b3070       strchr                     00000001800b4070 f   libvcruntimed:strchr.obj
 0001:000b3200       wcschr                     00000001800b4200 f   libvcruntimed:wcschr.obj
 0001:000b3350       strrchr                    00000001800b4350 f   libvcruntimed:strrchr.obj
 0001:000b3780       _local_unwind              00000001800b4780 f   libvcruntimed:jmpuwind.obj
 0001:000b37aa       RtlUnwind                  00000001800b47aa f   kernel32:KERNEL32.dll
 0001:000b37c0       _guard_dispatch_icall_nop  00000001800b47c0 f   LIBCMTD:guard_dispatch.obj
 0001:000b37e0       _guard_xfg_dispatch_icall_nop 00000001800b47e0 f   LIBCMTD:guard_xfg_dispatch.obj
 0001:000b3800       _guard_dispatch_icall      00000001800b4800 f   libucrtd:dispatchcfg.obj
 0001:000b3800       _guard_dispatch_icall_$fo_default$ 00000001800b4800     libucrtd:dispatchcfg.obj
 0001:000b3830       memset_repstos             00000001800b4830 f   libvcruntimed:memset.obj
 0001:000b3840       memset                     00000001800b4840 f   libvcruntimed:memset.obj
 0001:000b3bf0       memcpy_repmovs             00000001800b4bf0 f   libvcruntimed:memcpy.obj
 0001:000b3c00       memcpy                     00000001800b4c00 f   libvcruntimed:memcpy.obj
 0001:000b3c00       memcpy_$fo_default$        00000001800b4c00     libvcruntimed:memcpy.obj
 0001:000b3c00       memmove                    00000001800b4c00 f   libvcruntimed:memcpy.obj
 0001:000b4280       strcmp                     00000001800b5280 f   libucrtd:strcmp.obj
 0001:000b4300       strlen                     00000001800b5300 f   libucrtd:strlen.obj
 0001:000b43c0       strncmp                    00000001800b53c0 f   libucrtd:strncmp.obj
 0001:000b4450       memcmp                     00000001800b5450 f   libvcruntimed:memcmp.obj
 0002:00000000       __imp_LoadLibraryA         00000001800b7000     kernel32:KERNEL32.dll
 0002:00000008       __imp_CreateFileW          00000001800b7008     kernel32:KERNEL32.dll
 0002:00000010       __imp_RaiseException       00000001800b7010     kernel32:KERNEL32.dll
 0002:00000018       __imp_GetLastError         00000001800b7018     kernel32:KERNEL32.dll
 0002:00000020       __imp_GetSystemInfo        00000001800b7020     kernel32:KERNEL32.dll
 0002:00000028       __imp_VirtualProtect       00000001800b7028     kernel32:KERNEL32.dll
 0002:00000030       __imp_VirtualQuery         00000001800b7030     kernel32:KERNEL32.dll
 0002:00000038       __imp_FreeLibrary          00000001800b7038     kernel32:KERNEL32.dll
 0002:00000040       __imp_GetModuleHandleW     00000001800b7040     kernel32:KERNEL32.dll
 0002:00000048       __imp_GetProcAddress       00000001800b7048     kernel32:KERNEL32.dll
 0002:00000050       __imp_LoadLibraryExA       00000001800b7050     kernel32:KERNEL32.dll
 0002:00000058       __imp_InitializeSListHead  00000001800b7058     kernel32:KERNEL32.dll
 0002:00000060       __imp_QueryPerformanceCounter 00000001800b7060     kernel32:KERNEL32.dll
 0002:00000068       __imp_GetCurrentProcessId  00000001800b7068     kernel32:KERNEL32.dll
 0002:00000070       __imp_GetCurrentThreadId   00000001800b7070     kernel32:KERNEL32.dll
 0002:00000078       __imp_GetSystemTimeAsFileTime 00000001800b7078     kernel32:KERNEL32.dll
 0002:00000080       __imp_RtlCaptureContext    00000001800b7080     kernel32:KERNEL32.dll
 0002:00000088       __imp_RtlLookupFunctionEntry 00000001800b7088     kernel32:KERNEL32.dll
 0002:00000090       __imp_RtlVirtualUnwind     00000001800b7090     kernel32:KERNEL32.dll
 0002:00000098       __imp_IsDebuggerPresent    00000001800b7098     kernel32:KERNEL32.dll
 0002:000000a0       __imp_UnhandledExceptionFilter 00000001800b70a0     kernel32:KERNEL32.dll
 0002:000000a8       __imp_SetUnhandledExceptionFilter 00000001800b70a8     kernel32:KERNEL32.dll
 0002:000000b0       __imp_GetStartupInfoW      00000001800b70b0     kernel32:KERNEL32.dll
 0002:000000b8       __imp_IsProcessorFeaturePresent 00000001800b70b8     kernel32:KERNEL32.dll
 0002:000000c0       __imp_MultiByteToWideChar  00000001800b70c0     kernel32:KERNEL32.dll
 0002:000000c8       __imp_WideCharToMultiByte  00000001800b70c8     kernel32:KERNEL32.dll
 0002:000000d0       __imp_HeapAlloc            00000001800b70d0     kernel32:KERNEL32.dll
 0002:000000d8       __imp_HeapFree             00000001800b70d8     kernel32:KERNEL32.dll
 0002:000000e0       __imp_GetProcessHeap       00000001800b70e0     kernel32:KERNEL32.dll
 0002:000000e8       __imp_GetCurrentProcess    00000001800b70e8     kernel32:KERNEL32.dll
 0002:000000f0       __imp_TerminateProcess     00000001800b70f0     kernel32:KERNEL32.dll
 0002:000000f8       __imp_InterlockedPushEntrySList 00000001800b70f8     kernel32:KERNEL32.dll
 0002:00000100       __imp_InterlockedFlushSList 00000001800b7100     kernel32:KERNEL32.dll
 0002:00000108       __imp_RtlUnwindEx          00000001800b7108     kernel32:KERNEL32.dll
 0002:00000110       __imp_GetModuleFileNameW   00000001800b7110     kernel32:KERNEL32.dll
 0002:00000118       __imp_LoadLibraryExW       00000001800b7118     kernel32:KERNEL32.dll
 0002:00000120       __imp_SetLastError         00000001800b7120     kernel32:KERNEL32.dll
 0002:00000128       __imp_EnterCriticalSection 00000001800b7128     kernel32:KERNEL32.dll
 0002:00000130       __imp_LeaveCriticalSection 00000001800b7130     kernel32:KERNEL32.dll
 0002:00000138       __imp_DeleteCriticalSection 00000001800b7138     kernel32:KERNEL32.dll
 0002:00000140       __imp_InitializeCriticalSectionAndSpinCount 00000001800b7140     kernel32:KERNEL32.dll
 0002:00000148       __imp_TlsAlloc             00000001800b7148     kernel32:KERNEL32.dll
 0002:00000150       __imp_TlsGetValue          00000001800b7150     kernel32:KERNEL32.dll
 0002:00000158       __imp_TlsSetValue          00000001800b7158     kernel32:KERNEL32.dll
 0002:00000160       __imp_TlsFree              00000001800b7160     kernel32:KERNEL32.dll
 0002:00000168       __imp_EncodePointer        00000001800b7168     kernel32:KERNEL32.dll
 0002:00000170       __imp_RtlPcToFileHeader    00000001800b7170     kernel32:KERNEL32.dll
 0002:00000178       __imp_HeapSize             00000001800b7178     kernel32:KERNEL32.dll
 0002:00000180       __imp_HeapValidate         00000001800b7180     kernel32:KERNEL32.dll
 0002:00000188       __imp_GetModuleHandleExW   00000001800b7188     kernel32:KERNEL32.dll
 0002:00000190       __imp_ExitProcess          00000001800b7190     kernel32:KERNEL32.dll
 0002:00000198       __imp_HeapReAlloc          00000001800b7198     kernel32:KERNEL32.dll
 0002:000001a0       __imp_GetCurrentThread     00000001800b71a0     kernel32:KERNEL32.dll
 0002:000001a8       __imp_HeapQueryInformation 00000001800b71a8     kernel32:KERNEL32.dll
 0002:000001b0       __imp_GetStdHandle         00000001800b71b0     kernel32:KERNEL32.dll
 0002:000001b8       __imp_GetFileType          00000001800b71b8     kernel32:KERNEL32.dll
 0002:000001c0       __imp_WriteFile            00000001800b71c0     kernel32:KERNEL32.dll
 0002:000001c8       __imp_OutputDebugStringW   00000001800b71c8     kernel32:KERNEL32.dll
 0002:000001d0       __imp_WriteConsoleW        00000001800b71d0     kernel32:KERNEL32.dll
 0002:000001d8       __imp_SetConsoleCtrlHandler 00000001800b71d8     kernel32:KERNEL32.dll
 0002:000001e0       __imp_FindClose            00000001800b71e0     kernel32:KERNEL32.dll
 0002:000001e8       __imp_FindFirstFileExW     00000001800b71e8     kernel32:KERNEL32.dll
 0002:000001f0       __imp_FindNextFileW        00000001800b71f0     kernel32:KERNEL32.dll
 0002:000001f8       __imp_IsValidCodePage      00000001800b71f8     kernel32:KERNEL32.dll
 0002:00000200       __imp_GetACP               00000001800b7200     kernel32:KERNEL32.dll
 0002:00000208       __imp_GetOEMCP             00000001800b7208     kernel32:KERNEL32.dll
 0002:00000210       __imp_GetCPInfo            00000001800b7210     kernel32:KERNEL32.dll
 0002:00000218       __imp_GetCommandLineA      00000001800b7218     kernel32:KERNEL32.dll
 0002:00000220       __imp_GetCommandLineW      00000001800b7220     kernel32:KERNEL32.dll
 0002:00000228       __imp_GetEnvironmentStringsW 00000001800b7228     kernel32:KERNEL32.dll
 0002:00000230       __imp_FreeEnvironmentStringsW 00000001800b7230     kernel32:KERNEL32.dll
 0002:00000238       __imp_SetEnvironmentVariableW 00000001800b7238     kernel32:KERNEL32.dll
 0002:00000240       __imp_GetTempPathW         00000001800b7240     kernel32:KERNEL32.dll
 0002:00000248       __imp_FlsAlloc             00000001800b7248     kernel32:KERNEL32.dll
 0002:00000250       __imp_FlsGetValue          00000001800b7250     kernel32:KERNEL32.dll
 0002:00000258       __imp_FlsSetValue          00000001800b7258     kernel32:KERNEL32.dll
 0002:00000260       __imp_FlsFree              00000001800b7260     kernel32:KERNEL32.dll
 0002:00000268       __imp_IsThreadAFiber       00000001800b7268     kernel32:KERNEL32.dll
 0002:00000270       __imp_InitializeCriticalSectionEx 00000001800b7270     kernel32:KERNEL32.dll
 0002:00000278       __imp_GetDateFormatW       00000001800b7278     kernel32:KERNEL32.dll
 0002:00000280       __imp_GetTimeFormatW       00000001800b7280     kernel32:KERNEL32.dll
 0002:00000288       __imp_CompareStringW       00000001800b7288     kernel32:KERNEL32.dll
 0002:00000290       __imp_LCMapStringW         00000001800b7290     kernel32:KERNEL32.dll
 0002:00000298       __imp_GetLocaleInfoW       00000001800b7298     kernel32:KERNEL32.dll
 0002:000002a0       __imp_IsValidLocale        00000001800b72a0     kernel32:KERNEL32.dll
 0002:000002a8       __imp_GetUserDefaultLCID   00000001800b72a8     kernel32:KERNEL32.dll
 0002:000002b0       __imp_EnumSystemLocalesW   00000001800b72b0     kernel32:KERNEL32.dll
 0002:000002b8       __imp_GetStringTypeW       00000001800b72b8     kernel32:KERNEL32.dll
 0002:000002c0       __imp_SetStdHandle         00000001800b72c0     kernel32:KERNEL32.dll
 0002:000002c8       __imp_GetFileSizeEx        00000001800b72c8     kernel32:KERNEL32.dll
 0002:000002d0       __imp_SetFilePointerEx     00000001800b72d0     kernel32:KERNEL32.dll
 0002:000002d8       __imp_FlushFileBuffers     00000001800b72d8     kernel32:KERNEL32.dll
 0002:000002e0       __imp_GetConsoleOutputCP   00000001800b72e0     kernel32:KERNEL32.dll
 0002:000002e8       __imp_GetConsoleMode       00000001800b72e8     kernel32:KERNEL32.dll
 0002:000002f0       __imp_ReadFile             00000001800b72f0     kernel32:KERNEL32.dll
 0002:000002f8       __imp_ReadConsoleW         00000001800b72f8     kernel32:KERNEL32.dll
 0002:00000300       __imp_CloseHandle          00000001800b7300     kernel32:KERNEL32.dll
 0002:00000308       __imp_RtlUnwind            00000001800b7308     kernel32:KERNEL32.dll
 0002:00000310       \177KERNEL32_NULL_THUNK_DATA 00000001800b7310     kernel32:KERNEL32.dll
 0002:00000318       __guard_check_icall_fptr   00000001800b7318     LIBCMTD:guard_support.obj
 0002:00000320       __guard_xfg_check_icall_fptr 00000001800b7320     LIBCMTD:guard_support.obj
 0002:00000328       __guard_dispatch_icall_fptr 00000001800b7328     LIBCMTD:guard_support.obj
 0002:00000330       __guard_xfg_dispatch_icall_fptr 00000001800b7330     LIBCMTD:guard_support.obj
 0002:00000338       __guard_xfg_table_dispatch_icall_fptr 00000001800b7338     LIBCMTD:guard_support.obj
 0002:00000340       __castguard_check_failure_os_handled_fptr 00000001800b7340     LIBCMTD:guard_support.obj
 0002:00000348       __guard_memcpy_fptr        00000001800b7348     libvcruntimed:softmemtag.obj
 0002:00000350       __xc_a                     00000001800b7350     LIBCMTD:initializers.obj
 0002:00000388       __xc_z                     00000001800b7388     LIBCMTD:initializers.obj
 0002:00000390       __xi_a                     00000001800b7390     LIBCMTD:initializers.obj
 0002:00000398       __acrt_multibyte_initializer 00000001800b7398     libucrtd:multibyte_initializer.obj
 0002:000003a0       __acrt_stdio_initializer   00000001800b73a0     libucrtd:stdio_initializer.obj
 0002:000003a8       __acrt_tran_fma3_initializer 00000001800b73a8     libucrtd:fma3_initializer.obj
 0002:000003b0       __xi_z                     00000001800b73b0     LIBCMTD:initializers.obj
 0002:000003b8       __xp_a                     00000001800b73b8     LIBCMTD:initializers.obj
 0002:000003c0       __acrt_locale_terminator   00000001800b73c0     libucrtd:locale_initializer.obj
 0002:000003c8       __dcrt_console_output_terminator 00000001800b73c8     libucrtd:console_output_initializer.obj
 0002:000003d0       __acrt_stdio_terminator    00000001800b73d0     libucrtd:stdio_initializer.obj
 0002:000003d8       __xp_z                     00000001800b73d8     LIBCMTD:initializers.obj
 0002:000003e0       __xt_a                     00000001800b73e0     LIBCMTD:initializers.obj
 0002:000003e8       __xt_z                     00000001800b73e8     LIBCMTD:initializers.obj
 0002:00000410       ?g_PXSinCoefficients0@aos@physx@@3UPX_VECTORF32@12@B 00000001800b7410     Cooking.obj
 0002:00000420       ?g_PXSinCoefficients1@aos@physx@@3UPX_VECTORF32@12@B 00000001800b7420     Cooking.obj
 0002:00000430       ?g_PXSinCoefficients2@aos@physx@@3UPX_VECTORF32@12@B 00000001800b7430     Cooking.obj
 0002:00000440       ?g_PXCosCoefficients0@aos@physx@@3UPX_VECTORF32@12@B 00000001800b7440     Cooking.obj
 0002:00000450       ?g_PXCosCoefficients1@aos@physx@@3UPX_VECTORF32@12@B 00000001800b7450     Cooking.obj
 0002:00000460       ?g_PXCosCoefficients2@aos@physx@@3UPX_VECTORF32@12@B 00000001800b7460     Cooking.obj
 0002:00000470       ?g_PXReciprocalTwoPi@aos@physx@@3UPX_VECTORF32@12@B 00000001800b7470     Cooking.obj
 0002:00000480       ?g_PXTwoPi@aos@physx@@3UPX_VECTORF32@12@B 00000001800b7480     Cooking.obj
 0002:00000490       ??_7PxFoundation@physx@@6B@ 00000001800b7490     Cooking.obj
 0002:00000500       ??_C@_0DD@FBFGMCDE@D?3?2PhysX?2physx?2source?2physxcook@ 00000001800b7500     Cooking.obj
 0002:00000538       ??_C@_0BM@OIFKLHDN@?$DMallocation?5names?5disabled?$DO@ 00000001800b7538     Cooking.obj
 0002:00000558       ??_C@_0CM@KKCNHKNO@D?3?2PhysX?2physx?2include?2foundati@ 00000001800b7558     Cooking.obj
 0002:00000588       ??_C@_0BM@BMFMDKFG@this?9?$DOcapacity?$CI?$CJ?5?$DM?5capacity@ 00000001800b7588     Cooking.obj
 0002:000005a8       ??_C@_0CP@CPGGIPKL@?$CI?$CBcapacity?$CJ?5?$HM?$HM?5?$CInewData?5?$CG?$CG?5?$CInew@ 00000001800b75a8     Cooking.obj
 0002:000005d8       __real@3a83126f            00000001800b75d8     Cooking.obj
 0002:000005dc       __real@ba83126f            00000001800b75dc     Cooking.obj
 0002:000005e0       ??_C@_0BA@EGLNOO@PhysXFoundation@ 00000001800b75e0     WindowsCookingDelayLoadHook.obj
 0002:000005f0       ??_C@_0M@ILKNCJKN@PhysXCommon@ 00000001800b75f0     WindowsCookingDelayLoadHook.obj
 0002:00000600       __sz_PhysXCommon_64_dll    00000001800b7600     PhysXCommon_64:PhysXCommon_64.dll
 0002:00000620       __sz_PhysXFoundation_64_dll 00000001800b7620     PhysXFoundation_64:PhysXFoundation_64.dll
 0002:00000638       ??_C@_1BK@DBDEIDLH@?$AAK?$AAE?$AAR?$AAN?$AAE?$AAL?$AA3?$AA2?$AA?4?$AAD?$AAL?$AAL@ 00000001800b7638     Delayimp:delayhlp.obj
 0002:00000658       ??_C@_0BI@OMNLIJDB@AcquireSRWLockExclusive@ 00000001800b7658     Delayimp:delayhlp.obj
 0002:00000670       ??_C@_0BI@HMIEPCNJ@ReleaseSRWLockExclusive@ 00000001800b7670     Delayimp:delayhlp.obj
 0002:00000688       __pfnDliFailureHook2       00000001800b7688     Delayimp:delayhk1.obj
 0002:00000690       __bChangeProtectionOfWholeDloadSection 00000001800b7690     Delayimp:delaygv1.obj
 0002:000006a0       ??_7type_info@@6B@         00000001800b76a0     LIBCMTD:std_type_info_static.obj
 0002:000006a8       _pDefaultRawDllMain        00000001800b76a8     LIBCMTD:dll_dllmain.obj
 0002:000006a8       _pRawDllMain               00000001800b76a8     LIBCMTD:dll_dllmain.obj
 0002:000006b0       _load_config_used          00000001800b76b0     LIBCMTD:loadcfg.obj
 0002:00000818       ??_C@_0BJ@HEGAHDFO@Stack?5pointer?5corruption@ 00000001800b7818     LIBCMTD:userapi.obj
 0002:00000838       ??_C@_0CK@FEGOIOPB@Cast?5to?5smaller?5type?5causing?5lo@ 00000001800b7838     LIBCMTD:userapi.obj
 0002:00000868       ??_C@_0BI@CIGMDCBH@Stack?5memory?5corruption@ 00000001800b7868     LIBCMTD:userapi.obj
 0002:00000880       ??_C@_0CK@CNLNOEPB@Local?5variable?5used?5before?5init@ 00000001800b7880     LIBCMTD:userapi.obj
 0002:000008b0       ??_C@_0BP@OGBCLIBO@Stack?5around?5_alloca?5corrupted@ 00000001800b78b0     LIBCMTD:userapi.obj
 0002:00000990       ??_C@_0NN@JMPELKLB@The?5value?5of?5ESP?5was?5not?5proper@ 00000001800b7990     LIBCMTD:error.obj
 0002:00000a70       ??_C@_0BBN@ELNNILBE@A?5cast?5to?5a?5smaller?5data?5type?5h@ 00000001800b7a70     LIBCMTD:error.obj
 0002:00000b90       ??_C@_0BN@BPOGFMJL@Stack?5memory?5was?5corrupted?$AN?6@ 00000001800b7b90     LIBCMTD:error.obj
 0002:00000bb0       ??_C@_0DG@DAJCDLPN@A?5local?5variable?5was?5used?5befor@ 00000001800b7bb0     LIBCMTD:error.obj
 0002:00000be8       ??_C@_0CM@JMIDGKLA@Stack?5memory?5around?5_alloca?5was@ 00000001800b7be8     LIBCMTD:error.obj
 0002:00000c18       ??_C@_0BO@CHIONIOI@Unknown?5Runtime?5Check?5Error?$AN?6@ 00000001800b7c18     LIBCMTD:error.obj
 0002:00000c40       ??_C@_1GM@CNOOJIHC@?$AAR?$AAu?$AAn?$AAt?$AAi?$AAm?$AAe?$AA?5?$AAC?$AAh?$AAe?$AAc?$AAk?$AA?5?$AAE@ 00000001800b7c40     LIBCMTD:error.obj
 0002:00000cb0       ??_C@_1EA@NFKNIFJP@?$AAR?$AAu?$AAn?$AA?9?$AAT?$AAi?$AAm?$AAe?$AA?5?$AAC?$AAh?$AAe?$AAc?$AAk?$AA?5@ 00000001800b7cb0     LIBCMTD:error.obj
 0002:00000cf0       ??_C@_0BB@PFFGGCJP@Unknown?5Filename@ 00000001800b7cf0     LIBCMTD:error.obj
 0002:00000d08       ??_C@_0BE@GNBOBNCK@Unknown?5Module?5Name@ 00000001800b7d08     LIBCMTD:error.obj
 0002:00000d20       ??_C@_0CA@IODNCDPG@Run?9Time?5Check?5Failure?5?$CD?$CFd?5?9?5?$CFs@ 00000001800b7d20     LIBCMTD:error.obj
 0002:00000d40       ??_C@_0CG@IAFNJNEE@Stack?5corrupted?5near?5unknown?5va@ 00000001800b7d40     LIBCMTD:error.obj
 0002:00000d68       ??_C@_05MKKEDADM@?$CF?42X?5@ 00000001800b7d68     LIBCMTD:error.obj
 0002:00000d70       ??_C@_0EJ@LJKNEOLN@Stack?5area?5around?5_alloca?5memor@ 00000001800b7d70     LIBCMTD:error.obj
 0002:00000dbc       ??_C@_01EEMJAFIK@?6@       00000001800b7dbc     LIBCMTD:error.obj
 0002:00000dc0       ??_C@_02LLMPMKNF@?$DO?5@   00000001800b7dc0     LIBCMTD:error.obj
 0002:00000dc8       ??_C@_08OMAHNMHJ@?6Data?3?5?$DM@ 00000001800b7dc8     LIBCMTD:error.obj
 0002:00000dd8       ??_C@_0CK@DKGBICFE@?6Allocation?5number?5within?5this?5@ 00000001800b7dd8     LIBCMTD:error.obj
 0002:00000e08       ??_C@_07DFDJCKFN@?6Size?3?5@ 00000001800b7e08     LIBCMTD:error.obj
 0002:00000e10       ??_C@_0N@MHFFIMFG@?6Address?3?50x@ 00000001800b7e10     LIBCMTD:error.obj
 0002:00000e20       ??_C@_0EI@CLEPFNGI@Stack?5area?5around?5_alloca?5memor@ 00000001800b7e20     LIBCMTD:error.obj
 0002:00000e68       ??_C@_0BK@ODNDAGKB@?$CFs?$CFs?$CFp?$CFs?$CFzd?$CFs?$CFd?$CFs?$CFs?$CFs?$CFs?$CFs@ 00000001800b7e68     LIBCMTD:error.obj
 0002:00000e88       ??_C@_0DE@OHJBPMBP@A?5variable?5is?5being?5used?5withou@ 00000001800b7e88     LIBCMTD:error.obj
 0002:00000f20       ??_C@_1EI@MLPKHBGE@?$AAa?$AAp?$AAi?$AA?9?$AAm?$AAs?$AA?9?$AAw?$AAi?$AAn?$AA?9?$AAc?$AAo?$AAr?$AAe@ 00000001800b7f20     LIBCMTD:pdblkup.obj
 0002:00000f68       ??_C@_1BK@JHLNAEJL@?$AAa?$AAd?$AAv?$AAa?$AAp?$AAi?$AA3?$AA2?$AA?4?$AAd?$AAl?$AAl@ 00000001800b7f68     LIBCMTD:pdblkup.obj
 0002:00000f88       ??_C@_0O@COHOBMLB@RegOpenKeyExW@ 00000001800b7f88     LIBCMTD:pdblkup.obj
 0002:00000f98       ??_C@_0BB@GLNAEDBD@RegQueryValueExW@ 00000001800b7f98     LIBCMTD:pdblkup.obj
 0002:00000fb0       ??_C@_0M@HLOHPNFA@RegCloseKey@ 00000001800b7fb0     LIBCMTD:pdblkup.obj
 0002:00000fc0       ??_C@_1HE@EBEAGLFB@?$AAS?$AAO?$AAF?$AAT?$AAW?$AAA?$AAR?$AAE?$AA?2?$AAW?$AAo?$AAw?$AA6?$AA4?$AA3@ 00000001800b7fc0     LIBCMTD:pdblkup.obj
 0002:00001038       ??_C@_1BG@EABPBLLF@?$AAP?$AAr?$AAo?$AAd?$AAu?$AAc?$AAt?$AAD?$AAi?$AAr@ 00000001800b8038     LIBCMTD:pdblkup.obj
 0002:00001070       ??_C@_1BC@JINFINNJ@?$AAM?$AAS?$AAP?$AAD?$AAB?$AA1?$AA4?$AA0@ 00000001800b8070     LIBCMTD:pdblkup.obj
 0002:00001088       ??_C@_0BB@KCIACLNC@PDBOpenValidate5@ 00000001800b8088     LIBCMTD:pdblkup.obj
 0002:0000109c       ??_C@_01KDCPPGHE@r@        00000001800b809c     LIBCMTD:pdblkup.obj
 0002:000010b0       ??_C@_0EC@CDJPIOJK@D?3?2a?2_work?21?2s?2src?2vctools?2crt?2@ 00000001800b80b0     libvcruntimed:std_type_info.obj
 0002:00001100       __xmm@00000000000000000000000000000000 00000001800b8100     libvcruntimed:strstr.obj
 0002:00001110       _pDestructExceptionObject  00000001800b8110     libvcruntimed:ehhelpers.obj
 0002:00001830       ??_C@_08EHJDFFNH@__based?$CI@ 00000001800b8830     libvcruntimed:undname.obj
 0002:00001840       ??_C@_07KOLFKCDI@__cdecl@  00000001800b8840     libvcruntimed:undname.obj
 0002:00001848       ??_C@_09IFJBGAPI@__stdcall@ 00000001800b8848     libvcruntimed:undname.obj
 0002:00001858       ??_C@_0L@NPHFGOKO@__thiscall@ 00000001800b8858     libvcruntimed:undname.obj
 0002:00001868       ??_C@_0L@JMKHOMEK@__fastcall@ 00000001800b8868     libvcruntimed:undname.obj
 0002:00001878       ??_C@_0N@BCKKPABJ@__vectorcall@ 00000001800b8878     libvcruntimed:undname.obj
 0002:00001888       ??_C@_0BA@NAGGFLJK@__preserve_none@ 00000001800b8888     libvcruntimed:undname.obj
 0002:00001898       ??_C@_09HIJEGCPM@__clrcall@ 00000001800b8898     libvcruntimed:undname.obj
 0002:000018a4       ??_C@_06GHPCKEAG@__eabi@   00000001800b88a4     libvcruntimed:undname.obj
 0002:000018b0       ??_C@_09IOPIDJLG@__swift_1@ 00000001800b88b0     libvcruntimed:undname.obj
 0002:000018c0       ??_C@_09KFNFGKHF@__swift_2@ 00000001800b88c0     libvcruntimed:undname.obj
 0002:000018d0       ??_C@_09LMMOFLDE@__swift_3@ 00000001800b88d0     libvcruntimed:undname.obj
 0002:000018e0       ??_C@_07JOMMBBKO@__ptr64@  00000001800b88e0     libvcruntimed:undname.obj
 0002:000018e8       ??_C@_0L@PILCLIHE@__restrict@ 00000001800b88e8     libvcruntimed:undname.obj
 0002:000018f8       ??_C@_0M@GFIIJFMG@__unaligned@ 00000001800b88f8     libvcruntimed:undname.obj
 0002:00001908       ??_C@_09DHDLOLLB@restrict?$CI@ 00000001800b8908     libvcruntimed:undname.obj
 0002:00001912       ??_C@_00CNPNBAHC@@         00000001800b8912     libvcruntimed:undname.obj
 0002:00001914       ??_C@_04NIHEBCM@?5new@     00000001800b8914     libvcruntimed:undname.obj
 0002:00001920       ??_C@_07FPCDHGMM@?5delete@ 00000001800b8920     libvcruntimed:undname.obj
 0002:00001928       ??_C@_01NEMOKFLO@?$DN@     00000001800b8928     libvcruntimed:undname.obj
 0002:0000192c       ??_C@_02GPIOPFAK@?$DO?$DO@ 00000001800b892c     libvcruntimed:undname.obj
 0002:00001930       ??_C@_02FODMEDOG@?$DM?$DM@ 00000001800b8930     libvcruntimed:undname.obj
 0002:00001934       ??_C@_01DCLJPIOD@?$CB@     00000001800b8934     libvcruntimed:undname.obj
 0002:00001938       ??_C@_02EGOFBIJA@?$DN?$DN@ 00000001800b8938     libvcruntimed:undname.obj
 0002:0000193c       ??_C@_02FDNJECIE@?$CB?$DN@ 00000001800b893c     libvcruntimed:undname.obj
 0002:00001940       ??_C@_02GPECMEKF@?$FL?$FN@ 00000001800b8940     libvcruntimed:undname.obj
 0002:00001948       ??_C@_08LHJFAFGD@operator@ 00000001800b8948     libvcruntimed:undname.obj
 0002:00001954       ??_C@_02HBOOOICD@?9?$DO@   00000001800b8954     libvcruntimed:undname.obj
 0002:00001958       ??_C@_01NBENCBCI@?$CK@     00000001800b8958     libvcruntimed:undname.obj
 0002:0000195c       ??_C@_02ECNGHCIF@?$CL?$CL@ 00000001800b895c     libvcruntimed:undname.obj
 0002:00001960       ??_C@_02BAABKJLB@?9?9@     00000001800b8960     libvcruntimed:undname.obj
 0002:00001964       ??_C@_01JOAMLHOP@?9@       00000001800b8964     libvcruntimed:undname.obj
 0002:00001968       ??_C@_01MIFGBAGJ@?$CL@     00000001800b8968     libvcruntimed:undname.obj
 0002:0000196c       ??_C@_01HNPIGOCE@?$CG@     00000001800b896c     libvcruntimed:undname.obj
 0002:00001970       ??_C@_03MNHNFDLC@?9?$DO?$CK@ 00000001800b8970     libvcruntimed:undname.obj
 0002:00001974       ??_C@_01KMDKNFGN@?1@       00000001800b8974     libvcruntimed:undname.obj
 0002:00001978       ??_C@_01FGNFDNOH@?$CF@     00000001800b8978     libvcruntimed:undname.obj
 0002:0000197c       ??_C@_01MNNFJEPP@?$DM@     00000001800b897c     libvcruntimed:undname.obj
 0002:00001980       ??_C@_02EHCHHCKH@?$DM?$DN@ 00000001800b8980     libvcruntimed:undname.obj
 0002:00001984       ??_C@_01PPODPGHN@?$DO@     00000001800b8984     libvcruntimed:undname.obj
 0002:00001988       ??_C@_02EEKDKGMJ@?$DO?$DN@ 00000001800b8988     libvcruntimed:undname.obj
 0002:0000198c       ??_C@_01IHBHIGKO@?0@       00000001800b898c     libvcruntimed:undname.obj
 0002:00001990       ??_C@_02HCKGKOFO@?$CI?$CJ@ 00000001800b8990     libvcruntimed:undname.obj
 0002:00001994       ??_C@_01PJKLJHI@?$HO@      00000001800b8994     libvcruntimed:undname.obj
 0002:00001998       ??_C@_01JKBOJNNK@?$FO@     00000001800b8998     libvcruntimed:undname.obj
 0002:0000199c       ??_C@_01DNKMNLPK@?$HM@     00000001800b899c     libvcruntimed:undname.obj
 0002:000019a0       ??_C@_02PPKAJPJL@?$CG?$CG@ 00000001800b89a0     libvcruntimed:undname.obj
 0002:000019a4       ??_C@_02NONPIBCD@?$HM?$HM@ 00000001800b89a4     libvcruntimed:undname.obj
 0002:000019a8       ??_C@_02FPIMKNGF@?$CK?$DN@ 00000001800b89a8     libvcruntimed:undname.obj
 0002:000019ac       ??_C@_02FOEOMHFC@?$CL?$DN@ 00000001800b89ac     libvcruntimed:undname.obj
 0002:000019b0       ??_C@_02FKMDLLOA@?9?$DN@   00000001800b89b0     libvcruntimed:undname.obj
 0002:000019b4       ??_C@_02FJEHGPIO@?1?$DN@   00000001800b89b4     libvcruntimed:undname.obj
 0002:000019b8       ??_C@_02FENAOKFI@?$CF?$DN@ 00000001800b89b8     libvcruntimed:undname.obj
 0002:000019bc       ??_C@_03IKFCCPFF@?$DO?$DO?$DN@ 00000001800b89bc     libvcruntimed:undname.obj
 0002:000019c0       ??_C@_03CDNPDDLA@?$DM?$DM?$DN@ 00000001800b89c0     libvcruntimed:undname.obj
 0002:000019c4       ??_C@_02FGJGFEAB@?$CG?$DN@ 00000001800b89c4     libvcruntimed:undname.obj
 0002:000019c8       ??_C@_02DHLNPPGH@?$HM?$DN@ 00000001800b89c8     libvcruntimed:undname.obj
 0002:000019cc       ??_C@_02MHEGNOJ@?$FO?$DN@  00000001800b89cc     libvcruntimed:undname.obj
 0002:000019d0       ??_C@_09IFPLHPGF@?$GAvftable?8@ 00000001800b89d0     libvcruntimed:undname.obj
 0002:000019e0       ??_C@_09BLBHBJP@?$GAvbtable?8@ 00000001800b89e0     libvcruntimed:undname.obj
 0002:000019f0       ??_C@_07FEEIOKP@?$GAvcall?8@ 00000001800b89f0     libvcruntimed:undname.obj
 0002:000019f8       ??_C@_08LLFFHHDJ@?$GAtypeof?8@ 00000001800b89f8     libvcruntimed:undname.obj
 0002:00001a08       ??_C@_0BF@KDPPACIK@?$GAlocal?5static?5guard?8@ 00000001800b8a08     libvcruntimed:undname.obj
 0002:00001a20       ??_C@_08OBABFOLI@?$GAstring?8@ 00000001800b8a20     libvcruntimed:undname.obj
 0002:00001a30       ??_C@_0BD@JDLKDPAB@?$GAvbase?5destructor?8@ 00000001800b8a30     libvcruntimed:undname.obj
 0002:00001a48       ??_C@_0BN@DEGPLNFK@?$GAvector?5deleting?5destructor?8@ 00000001800b8a48     libvcruntimed:undname.obj
 0002:00001a68       ??_C@_0BO@OBMKPJIG@?$GAdefault?5constructor?5closure?8@ 00000001800b8a68     libvcruntimed:undname.obj
 0002:00001a88       ??_C@_0BN@IMDCHIKM@?$GAscalar?5deleting?5destructor?8@ 00000001800b8a88     libvcruntimed:undname.obj
 0002:00001aa8       ??_C@_0BO@PFGOCPJJ@?$GAvector?5constructor?5iterator?8@ 00000001800b8aa8     libvcruntimed:undname.obj
 0002:00001ac8       ??_C@_0BN@LFPFMEDL@?$GAvector?5destructor?5iterator?8@ 00000001800b8ac8     libvcruntimed:undname.obj
 0002:00001ae8       ??_C@_0CE@IKBNEHA@?$GAvector?5vbase?5constructor?5itera@ 00000001800b8ae8     libvcruntimed:undname.obj
 0002:00001b10       ??_C@_0BL@NILFHHPC@?$GAvirtual?5displacement?5map?8@ 00000001800b8b10     libvcruntimed:undname.obj
 0002:00001b30       ??_C@_0CB@JONCMFFK@?$GAeh?5vector?5constructor?5iterator@ 00000001800b8b30     libvcruntimed:undname.obj
 0002:00001b58       ??_C@_0CA@GCEOPDGL@?$GAeh?5vector?5destructor?5iterator?8@ 00000001800b8b58     libvcruntimed:undname.obj
 0002:00001b78       ??_C@_0CH@OOJPLCPH@?$GAeh?5vector?5vbase?5constructor?5it@ 00000001800b8b78     libvcruntimed:undname.obj
 0002:00001ba0       ??_C@_0BL@LLKPOHJI@?$GAcopy?5constructor?5closure?8@ 00000001800b8ba0     libvcruntimed:undname.obj
 0002:00001bc0       ??_C@_0BA@KBCDOMBN@?$GAudt?5returning?8@ 00000001800b8bc0     libvcruntimed:undname.obj
 0002:00001bd0       ??_C@_03KLGMFNMG@?$GAEH@   00000001800b8bd0     libvcruntimed:undname.obj
 0002:00001bd4       ??_C@_05KHLCHHI@?$GARTTI@  00000001800b8bd4     libvcruntimed:undname.obj
 0002:00001be0       ??_C@_0BA@KKLDJDLB@?$GAlocal?5vftable?8@ 00000001800b8be0     libvcruntimed:undname.obj
 0002:00001bf0       ??_C@_0CE@IIHCMGGL@?$GAlocal?5vftable?5constructor?5clos@ 00000001800b8bf0     libvcruntimed:undname.obj
 0002:00001c14       ??_C@_06FHBGPFGH@?5new?$FL?$FN@ 00000001800b8c14     libvcruntimed:undname.obj
 0002:00001c20       ??_C@_09LBNFPBCA@?5delete?$FL?$FN@ 00000001800b8c20     libvcruntimed:undname.obj
 0002:00001c30       ??_C@_0P@HJKNJFNN@?$GAomni?5callsig?8@ 00000001800b8c30     libvcruntimed:undname.obj
 0002:00001c40       ??_C@_0BL@CNOONJFP@?$GAplacement?5delete?5closure?8@ 00000001800b8c40     libvcruntimed:undname.obj
 0002:00001c60       ??_C@_0BN@CKNJLHMB@?$GAplacement?5delete?$FL?$FN?5closure?8@ 00000001800b8c60     libvcruntimed:undname.obj
 0002:00001c80       ??_C@_0CG@CFDHKGGD@?$GAmanaged?5vector?5constructor?5ite@ 00000001800b8c80     libvcruntimed:undname.obj
 0002:00001ca8       ??_C@_0CF@IMGKMJNO@?$GAmanaged?5vector?5destructor?5iter@ 00000001800b8ca8     libvcruntimed:undname.obj
 0002:00001cd0       ??_C@_0CG@HLDDJMAG@?$GAeh?5vector?5copy?5constructor?5ite@ 00000001800b8cd0     libvcruntimed:undname.obj
 0002:00001cf8       ??_C@_0CM@FCBBDIGB@?$GAeh?5vector?5vbase?5copy?5construct@ 00000001800b8cf8     libvcruntimed:undname.obj
 0002:00001d28       ??_C@_0BL@CLIPGLGB@?$GAdynamic?5initializer?5for?5?8@ 00000001800b8d28     libvcruntimed:undname.obj
 0002:00001d48       ??_C@_0CB@PDBIFEP@?$GAdynamic?5atexit?5destructor?5for?5@ 00000001800b8d48     libvcruntimed:undname.obj
 0002:00001d70       ??_C@_0CD@CGAJBKEJ@?$GAvector?5copy?5constructor?5iterat@ 00000001800b8d70     libvcruntimed:undname.obj
 0002:00001d98       ??_C@_0CJ@GJELGAMM@?$GAvector?5vbase?5copy?5constructor?5@ 00000001800b8d98     libvcruntimed:undname.obj
 0002:00001dc8       ??_C@_0CL@FGIJHLCE@?$GAmanaged?5vector?5copy?5constructo@ 00000001800b8dc8     libvcruntimed:undname.obj
 0002:00001df8       ??_C@_0BM@PMGGMLDN@?$GAlocal?5static?5thread?5guard?8@ 00000001800b8df8     libvcruntimed:undname.obj
 0002:00001e18       ??_C@_0N@BDNMDMOL@operator?5?$CC?$CC?5@ 00000001800b8e18     libvcruntimed:undname.obj
 0002:00001e28       ??_C@_0BC@GGEBGALA@operator?5co_await@ 00000001800b8e28     libvcruntimed:undname.obj
 0002:00001e40       ??_C@_0M@GAAIMMOH@operator?$DM?$DN?$DO@ 00000001800b8e40     libvcruntimed:undname.obj
 0002:00001e50       ??_C@_0BC@DAFEJGAK@?5Type?5Descriptor?8@ 00000001800b8e50     libvcruntimed:undname.obj
 0002:00001e68       ??_C@_0BM@LDKODKLH@?5Base?5Class?5Descriptor?5at?5?$CI@ 00000001800b8e68     libvcruntimed:undname.obj
 0002:00001e88       ??_C@_0BD@LGICGFMM@?5Base?5Class?5Array?8@ 00000001800b8e88     libvcruntimed:undname.obj
 0002:00001ea0       ??_C@_0BN@MECKDCOJ@?5Class?5Hierarchy?5Descriptor?8@ 00000001800b8ea0     libvcruntimed:undname.obj
 0002:00001ec0       ??_C@_0BK@CFCOFLF@?5Complete?5Object?5Locator?8@ 00000001800b8ec0     libvcruntimed:undname.obj
 0002:00001ee0       ??_C@_0BG@JNJLAMPM@?$GAanonymous?5namespace?8@ 00000001800b8ee0     libvcruntimed:undname.obj
 0002:00001ef6       ?in_place@std@@3Uin_place_t@1@B 00000001800b8ef6     libvcruntimed:undname.obj
 0002:00001ef8       ??_C@_04HEJADOOB@CV?3?5@   00000001800b8ef8     libvcruntimed:undname.obj
 0002:00001f00       ??_C@_03GDILBHBJ@$$h@      00000001800b8f00     libvcruntimed:undname.obj
 0002:00001f04       ??_C@_02MOLJINC@?3?3@      00000001800b8f04     libvcruntimed:undname.obj
 0002:00001f08       ??_C@_0BE@JAEOCHPE@template?9parameter?9@ 00000001800b8f08     libvcruntimed:undname.obj
 0002:00001f20       ??_C@_0BF@LNLGBBNL@?$GAtemplate?9parameter?9@ 00000001800b8f20     libvcruntimed:undname.obj
 0002:00001f38       ??_C@_0O@KHGCOMHP@generic?9type?9@ 00000001800b8f38     libvcruntimed:undname.obj
 0002:00001f48       ??_C@_0P@ODDENDLM@?$GAgeneric?9type?9@ 00000001800b8f48     libvcruntimed:undname.obj
 0002:00001f58       ??_C@_02OHHJMEON@?8?8@     00000001800b8f58     libvcruntimed:undname.obj
 0002:00001f60       ??_C@_0BN@IBLMMFAP@?$GAnon?9type?9template?9parameter@ 00000001800b8f60     libvcruntimed:undname.obj
 0002:00001f80       ??_C@_03DLDNIBIK@?$CFlf@   00000001800b8f80     libvcruntimed:undname.obj
 0002:00001f84       ??_C@_04OFALKAJ@?$DP?$DP_C@ 00000001800b8f84     libvcruntimed:undname.obj
 0002:00001f8c       ??_C@_03KHICJKCI@?4?4?4@   00000001800b8f8c     libvcruntimed:undname.obj
 0002:00001f90       ??_C@_04HIBGFPH@NULL@      00000001800b8f90     libvcruntimed:undname.obj
 0002:00001f98       ??_C@_02DPKJAMEF@?$CFd@    00000001800b8f98     libvcruntimed:undname.obj
 0002:00001fa0       ??_C@_0BK@IHCCFNEL@?$GAtemplate?9type?9parameter?9@ 00000001800b8fa0     libvcruntimed:undname.obj
 0002:00001fc0       ??_C@_0BK@OFCNNNKO@?$GAgeneric?9class?9parameter?9@ 00000001800b8fc0     libvcruntimed:undname.obj
 0002:00001fe0       ??_C@_0BL@NGJBLFIL@?$GAgeneric?9method?9parameter?9@ 00000001800b8fe0     libvcruntimed:undname.obj
 0002:00002000       ??_C@_07OHNGEDJK@nullptr@  00000001800b9000     libvcruntimed:undname.obj
 0002:00002008       ??_C@_06COJIGPIB@lambda@   00000001800b9008     libvcruntimed:undname.obj
 0002:00002010       ??_C@_04GKJNKENE@void@     00000001800b9010     libvcruntimed:undname.obj
 0002:00002018       ??_C@_0BE@EODMJLIF@?$GAtemplate?9parameter@ 00000001800b9018     libvcruntimed:undname.obj
 0002:0000202c       ??_C@_03OPGICMGF@?$HN?8?5@ 00000001800b902c     libvcruntimed:undname.obj
 0002:00002030       ??_C@_02IGFCGPIL@?$HN?8@   00000001800b9030     libvcruntimed:undname.obj
 0002:00002038       ??_C@_0N@CBHHHENL@?$GAvtordispex?$HL@ 00000001800b9038     libvcruntimed:undname.obj
 0002:00002048       ??_C@_0L@GHPFDFH@?$GAvtordisp?$HL@ 00000001800b9048     libvcruntimed:undname.obj
 0002:00002058       ??_C@_0L@HNGCOGAE@?$GAadjustor?$HL@ 00000001800b9058     libvcruntimed:undname.obj
 0002:00002068       ??_C@_0CB@KJDOOODE@?$GAlocal?5static?5destructor?5helper@ 00000001800b9068     libvcruntimed:undname.obj
 0002:00002090       ??_C@_0DB@ILEFOCIJ@?$GAtemplate?5static?5data?5member?5co@ 00000001800b9090     libvcruntimed:undname.obj
 0002:000020c8       ??_C@_0DA@HGFJFBBE@?$GAtemplate?5static?5data?5member?5de@ 00000001800b90c8     libvcruntimed:undname.obj
 0002:000020f8       ??_C@_07PGOEDBHP@static?5@ 00000001800b90f8     libvcruntimed:undname.obj
 0002:00002100       ??_C@_08NIEOINHE@virtual?5@ 00000001800b9100     libvcruntimed:undname.obj
 0002:00002110       ??_C@_09LAPHOOG@private?3?5@ 00000001800b9110     libvcruntimed:undname.obj
 0002:00002120       ??_C@_0M@GAIFPFIP@protected?3?5@ 00000001800b9120     libvcruntimed:undname.obj
 0002:00002130       ??_C@_08GPDDCMKI@public?3?5@ 00000001800b9130     libvcruntimed:undname.obj
 0002:00002140       ??_C@_08KJLFOPNE@?$FLthunk?$FN?3@ 00000001800b9140     libvcruntimed:undname.obj
 0002:00002150       ??_C@_0M@DHNBOJMP@extern?5?$CCC?$CC?5@ 00000001800b9150     libvcruntimed:undname.obj
 0002:0000215c       ??_C@_02KCKGHPCA@?$CJ?5@   00000001800b915c     libvcruntimed:undname.obj
 0002:00002160       ??_C@_05CIHEBHNO@char?5@   00000001800b9160     libvcruntimed:undname.obj
 0002:00002168       ??_C@_06EHJMALKF@short?5@  00000001800b9168     libvcruntimed:undname.obj
 0002:00002170       ??_C@_04LAHKHJMA@int?5@    00000001800b9170     libvcruntimed:undname.obj
 0002:00002178       ??_C@_05CJIMAING@long?5@   00000001800b9178     libvcruntimed:undname.obj
 0002:00002180       ??_C@_09EBBEKKIH@unsigned?5@ 00000001800b9180     libvcruntimed:undname.obj
 0002:0000218c       ??_C@_05BEFAKPML@void?5@   00000001800b918c     libvcruntimed:undname.obj
 0002:00002198       ??_C@_09GAIEOBLP@volatile?5@ 00000001800b9198     libvcruntimed:undname.obj
 0002:000021a8       ??_C@_08PABEKFH@volatile@  00000001800b91a8     libvcruntimed:undname.obj
 0002:000021b8       ??_C@_0BA@LKIJLKPP@std?3?3nullptr_t?5@ 00000001800b91b8     libvcruntimed:undname.obj
 0002:000021c8       ??_C@_0P@GCOCNKDM@std?3?3nullptr_t@ 00000001800b91c8     libvcruntimed:undname.obj
 0002:000021d8       ??_C@_0L@EGPHHEKN@?$DMellipsis?$DO@ 00000001800b91d8     libvcruntimed:undname.obj
 0002:000021e4       ??_C@_04EENFHACM@?0?4?4?4@ 00000001800b91e4     libvcruntimed:undname.obj
 0002:000021f0       ??_C@_0M@ELJOJFFH@?0?$DMellipsis?$DO@ 00000001800b91f0     libvcruntimed:undname.obj
 0002:00002200       ??_C@_09DNHFEOJI@?5noexcept@ 00000001800b9200     libvcruntimed:undname.obj
 0002:0000220c       ??_C@_03PBJBJNON@cpu@      00000001800b920c     libvcruntimed:undname.obj
 0002:00002210       ??_C@_03DCBBJBAA@amp@      00000001800b9210     libvcruntimed:undname.obj
 0002:00002214       ??_C@_02KEGNLNML@?0?5@     00000001800b9214     libvcruntimed:undname.obj
 0002:00002218       ??_C@_04ENMBGAPA@char@     00000001800b9218     libvcruntimed:undname.obj
 0002:00002220       ??_C@_05BFKKPKCG@short@    00000001800b9220     libvcruntimed:undname.obj
 0002:00002228       ??_C@_03JBIPMCLC@int@      00000001800b9228     libvcruntimed:undname.obj
 0002:0000222c       ??_C@_04GOKPGOLB@long@     00000001800b922c     libvcruntimed:undname.obj
 0002:00002234       ??_C@_05KNFBNCOH@float@    00000001800b9234     libvcruntimed:undname.obj
 0002:0000223c       ??_C@_06BNJCAIGJ@double@   00000001800b923c     libvcruntimed:undname.obj
 0002:00002244       ??_C@_04DDKJGDCM@bool@     00000001800b9244     libvcruntimed:undname.obj
 0002:0000224c       ??_C@_06EBGKOKIG@__int8@   00000001800b924c     libvcruntimed:undname.obj
 0002:00002258       ??_C@_07ICFHOGAF@__int16@  00000001800b9258     libvcruntimed:undname.obj
 0002:00002260       ??_C@_07OFLPPHGP@__int32@  00000001800b9260     libvcruntimed:undname.obj
 0002:00002268       ??_C@_07LFCOJCAC@__int64@  00000001800b9268     libvcruntimed:undname.obj
 0002:00002270       ??_C@_08GAHOLHEO@__int128@ 00000001800b9270     libvcruntimed:undname.obj
 0002:00002280       ??_C@_09EEKGDCPH@?$DMunknown?$DO@ 00000001800b9280     libvcruntimed:undname.obj
 0002:00002290       ??_C@_07CFHGOPCN@char8_t@  00000001800b9290     libvcruntimed:undname.obj
 0002:00002298       ??_C@_08HBIPOFJB@char16_t@ 00000001800b9298     libvcruntimed:undname.obj
 0002:000022a8       ??_C@_08IECNCBKG@char32_t@ 00000001800b92a8     libvcruntimed:undname.obj
 0002:000022b8       ??_C@_07CLGGIAMF@wchar_t@  00000001800b92b8     libvcruntimed:undname.obj
 0002:000022c0       ??_C@_04HAPDLBFF@auto@     00000001800b92c0     libvcruntimed:undname.obj
 0002:000022c8       ??_C@_0P@LHCGKIGK@decltype?$CIauto?$CJ@ 00000001800b92c8     libvcruntimed:undname.obj
 0002:000022d8       ??_C@_05PCNBGHCF@this?5@   00000001800b92d8     libvcruntimed:undname.obj
 0002:000022e0       ??_C@_06GCICPBLB@__w64?5@  00000001800b92e0     libvcruntimed:undname.obj
 0002:000022e8       ??_C@_07NFANNNEC@UNKNOWN@  00000001800b92e8     libvcruntimed:undname.obj
 0002:000022f0       ??_C@_07EDHNAJHC@signed?5@ 00000001800b92f0     libvcruntimed:undname.obj
 0002:000022f8       ??_C@_05BNCCCJPP@const@    00000001800b92f8     libvcruntimed:undname.obj
 0002:00002300       ??_C@_09EFNPDFFP@?5volatile@ 00000001800b9300     libvcruntimed:undname.obj
 0002:00002310       ??_C@_0P@GCIFDJCJ@?$GAunknown?5ecsu?8@ 00000001800b9310     libvcruntimed:undname.obj
 0002:00002320       ??_C@_06MOJHIBMG@union?5@  00000001800b9320     libvcruntimed:undname.obj
 0002:00002328       ??_C@_07DIBCDNGL@struct?5@ 00000001800b9328     libvcruntimed:undname.obj
 0002:00002330       ??_C@_06LJBABKPM@class?5@  00000001800b9330     libvcruntimed:undname.obj
 0002:00002338       ??_C@_08KOFANOFK@coclass?5@ 00000001800b9338     libvcruntimed:undname.obj
 0002:00002348       ??_C@_0N@DLIEFKNA@cointerface?5@ 00000001800b9348     libvcruntimed:undname.obj
 0002:00002358       ??_C@_05LJGMCFOG@enum?5@   00000001800b9358     libvcruntimed:undname.obj
 0002:00002360       ??_C@_06LIJLOJAG@const?5@  00000001800b9360     libvcruntimed:undname.obj
 0002:00002368       ??_C@_02KJPKDIBN@?$CG?5@   00000001800b9368     libvcruntimed:undname.obj
 0002:0000236c       ??_C@_03PCKGMOPB@?$CG?$CG?5@ 00000001800b936c     libvcruntimed:undname.obj
 0002:00002370       ??_C@_0M@EALIELKG@cli?3?3array?$DM@ 00000001800b9370     libvcruntimed:undname.obj
 0002:00002380       ??_C@_0O@GKABPPIF@cli?3?3pin_ptr?$DM@ 00000001800b9380     libvcruntimed:undname.obj
 0002:00002390       ??_C@_02GOGNNPBN@?$CJ?$FL@ 00000001800b9390     libvcruntimed:undname.obj
 0002:00002394       ??_C@_06EEGAIFAK@?$HLflat?$HN@ 00000001800b9394     libvcruntimed:undname.obj
 0002:0000239c       ??_C@_05JIBOFOHK@?$HLfor?5@ 00000001800b939c     libvcruntimed:undname.obj
 0002:000023a4       ??_C@_02MDINNEEG@s?5@      00000001800b93a4     libvcruntimed:undname.obj
 0002:000023b0       ??_7DNameNode@@6B@         00000001800b93b0     libvcruntimed:undname.obj
 0002:000023d8       ??_7charNode@@6B@          00000001800b93d8     libvcruntimed:undname.obj
 0002:00002400       ??_7pcharNode@@6B@         00000001800b9400     libvcruntimed:undname.obj
 0002:00002428       ??_7pDNameNode@@6B@        00000001800b9428     libvcruntimed:undname.obj
 0002:00002450       ??_7DNameStatusNode@@6B@   00000001800b9450     libvcruntimed:undname.obj
 0002:00002478       ??_7pairNode@@6B@          00000001800b9478     libvcruntimed:undname.obj
 0002:000025a0       ??_C@_04OKOHEJBO@?5?$DP?$DP?5@ 00000001800b95a0     libvcruntimed:undname.obj
