 PhysXCommon_64

 Timestamp is 68ffc081 (Mon Oct 27 18:57:05 2025)

 Preferred load address is 0000000180000000

 Start         Length     Name                   Class
 0001:00000000 00003770H .text$di                CODE
 0001:00003770 001f8f30H .text$mn                CODE
 0001:001fc6a0 00000060H .text$mn$00             CODE
 0001:001fc700 00000c40H .text$mn$21             CODE
 0001:001fd340 000006d0H .text$x                 CODE
 0001:001fda10 0000000fH .text$yd                CODE
 0002:00000000 00000288H .idata$5                DATA
 0002:00000288 00000038H .00cfg                  DATA
 0002:000002c0 00000008H .CRT$XCA                DATA
 0002:000002c8 00001af0H .CRT$XCU                DATA
 0002:00001db8 00000008H .CRT$XCZ                DATA
 0002:00001dc0 00000008H .CRT$XIA                DATA
 0002:00001dc8 00000018H .CRT$XIC                DATA
 0002:00001de0 00000008H .CRT$XIZ                DATA
 0002:00001de8 00000008H .CRT$XPA                DATA
 0002:00001df0 00000010H .CRT$XPX                DATA
 0002:00001e00 00000008H .CRT$XPXA               DATA
 0002:00001e08 00000008H .CRT$XPZ                DATA
 0002:00001e10 00000008H .CRT$XTA                DATA
 0002:00001e18 00000008H .CRT$XTZ                DATA
 0002:00001e20 00000000H .gehcont$y              DATA
 0002:00001e20 00000000H .gfids$y                DATA
 0002:00001e20 00012f80H .rdata                  DATA
 0002:00014da0 00000160H .rdata$00               DATA
 0002:00014f00 00000000H .rdata$CastGuardVftablesA DATA
 0002:00014f00 00000000H .rdata$CastGuardVftablesC DATA
 0002:00014f00 00000464H .rdata$r                DATA
 0002:00015364 00000258H .rdata$voltmd           DATA
 0002:000155bc 0000047cH .rdata$zzzdbg           DATA
 0002:00015a38 00000008H .rtc$IAA                DATA
 0002:00015a40 00000008H .rtc$IZZ                DATA
 0002:00015a48 00000008H .rtc$TAA                DATA
 0002:00015a50 00000008H .rtc$TZZ                DATA
 0002:00015a58 00016a20H .xdata                  DATA
 0002:0002c478 00000084H .xdata$x                DATA
 0002:0002c4fc 00000020H .didat$2                DATA
 0002:0002c51c 00000024H .didat$3                DATA
 0002:0002c540 000000d0H .didat$4                DATA
 0002:0002c610 00000430H .didat$6                DATA
 0002:0002ca40 000001f0H .didat$7                DATA
 0002:0002cc30 0000c6ccH .edata                  DATA
 0002:000392fc 00000014H .idata$2                DATA
 0002:00039310 00000018H .idata$3                DATA
 0002:00039328 00000288H .idata$4                DATA
 0002:000395b0 000005dcH .idata$6                DATA
 0003:00000000 00001cf0H .data                   DATA
 0003:00001cf0 00001278H .data$r                 DATA
 0003:00002f68 000000f0H .data$rs                DATA
 0003:00003058 000000d8H .didat$5                DATA
 0003:00003130 0000473cH .bss                    DATA
 0004:00000000 0000d398H .pdata                  DATA
 0005:00000000 00002208H _RDATA                  DATA
 0006:00000000 00000100H .fptable                DATA
 0007:00000000 000000a0H .rsrc$01                DATA
 0007:000000a0 000004b0H .rsrc$02                DATA

  Address         Publics by Value              Rva+Base               Lib:Object

 0000:00000000       __AbsoluteZero             0000000000000000     <absolute>
 0000:00000000       ___safe_se_handler_count   0000000000000000     <absolute>
 0000:00000000       ___safe_se_handler_table   0000000000000000     <absolute>
 0000:00000000       __arm64x_extra_rfe_table   0000000000000000     <absolute>
 0000:00000000       __arm64x_extra_rfe_table_size 0000000000000000     <absolute>
 0000:00000000       __arm64x_native_entrypoint 0000000000000000     <absolute>
 0000:00000000       __arm64x_redirection_metadata 0000000000000000     <absolute>
 0000:00000000       __arm64x_redirection_metadata_count 0000000000000000     <absolute>
 0000:00000000       __dynamic_value_reloc_table 0000000000000000     <absolute>
 0000:00000000       __enclave_config           0000000000000000     <absolute>
 0000:00000000       __guard_check_icall_a64n_fptr 0000000000000000     <absolute>
 0000:00000000       __guard_eh_cont_count      0000000000000000     <absolute>
 0000:00000000       __guard_eh_cont_table      0000000000000000     <absolute>
 0000:00000000       __guard_fids_count         0000000000000000     <absolute>
 0000:00000000       __guard_fids_table         0000000000000000     <absolute>
 0000:00000000       __guard_iat_count          0000000000000000     <absolute>
 0000:00000000       __guard_iat_table          0000000000000000     <absolute>
 0000:00000000       __guard_longjmp_count      0000000000000000     <absolute>
 0000:00000000       __guard_longjmp_table      0000000000000000     <absolute>
 0000:00000000       __hybrid_auxiliary_delayload_iat 0000000000000000     <absolute>
 0000:00000000       __hybrid_auxiliary_delayload_iat_copy 0000000000000000     <absolute>
 0000:00000000       __hybrid_auxiliary_iat     0000000000000000     <absolute>
 0000:00000000       __hybrid_auxiliary_iat_copy 0000000000000000     <absolute>
 0000:00000000       __hybrid_code_map          0000000000000000     <absolute>
 0000:00000000       __hybrid_code_map_count    0000000000000000     <absolute>
 0000:00000000       __hybrid_image_info_bitfield 0000000000000000     <absolute>
 0000:00000000       __x64_code_ranges_to_entry_points 0000000000000000     <absolute>
 0000:00000000       __x64_code_ranges_to_entry_points_count 0000000000000000     <absolute>
 0000:00000100       __guard_flags              0000000000000100     <absolute>
 0000:00000000       __ImageBase                0000000180000000     <linker-defined>
 0001:00003770       ??0PtrTable@Cm@physx@@QEAA@W4PxEMPTY@2@@Z 0000000180004770 f i CmPtrTable.obj
 0001:00003790       ??0PtrTable@Cm@physx@@QEAA@XZ 0000000180004790 f   CmPtrTable.obj
 0001:000037a0       ??1AABBTreeBuildNode@Gu@physx@@QEAA@XZ 00000001800047a0 f   GuMeshFactory.obj
 0001:000037a0       ??1BigConvexDataBuilder@physx@@QEAA@XZ 00000001800047a0 f   GuCookingBigConvexDataBuilder.obj
 0001:000037a0       ??1Box@Gu@physx@@QEAA@XZ   00000001800047a0 f   GuBox.obj
 0001:000037a0       ??1HeightFieldData@Gu@physx@@QEAA@XZ 00000001800047a0 f   GuCCTSweepTests.obj
 0001:000037a0       ??1PtrTable@Cm@physx@@QEAA@XZ 00000001800047a0 f   CmPtrTable.obj
 0001:000037a0       ?build@CompanionPrunerIncremental@@UEAAXXZ 00000001800047a0 f   GuSecondaryPruner.obj
 0001:000037a0       ?checkTreeLeaf@IncrementalAABBTree@Gu@physx@@QEAAXPEAVIncrementalAABBTreeNode@23@I@Z 00000001800047a0 f   GuIncrementalAABBTree.obj
 0001:000037a0       ?execute@?$PxThreadT@V?$PxReflectionAllocator@VPxThreadImpl@physx@@@physx@@@physx@@UEAAXXZ 00000001800047a0 f   GuSDF.obj
 0001:000037a0       ?execute@PxRunnable@physx@@UEAAXXZ 00000001800047a0 f   GuSDF.obj
 0001:000037a0       ?merge@BucketPruner@Gu@physx@@UEAAXPEBX@Z 00000001800047a0 f   GuBucketPruner.obj
 0001:000037a0       ?merge@IncrementalAABBPruner@Gu@physx@@UEAAXPEBX@Z 00000001800047a0 f   GuIncrementalAABBPruner.obj
 0001:000037a0       ?onMeshIndexFormatChange@TriangleMeshBuilder@physx@@UEAAXXZ 00000001800047a0 f   GuCookingTriangleMesh.obj
 0001:000037a0       ?profile@Callback@RTree@Gu@physx@@UEAAXXZ 00000001800047a0 f   GuMidphaseRTree.obj
 0001:000037a0       ?purge@BucketPruner@Gu@physx@@UEAAXXZ 00000001800047a0 f   GuBucketPruner.obj
 0001:000037a0       ?requiresObjects@ConvexMesh@Gu@physx@@UEAAXAEAVPxProcessPxBaseCallback@3@@Z 00000001800047a0 f   GuConvexMesh.obj
 0001:000037a0       ?requiresObjects@DeformableVolumeMesh@Gu@physx@@UEAAXAEAVPxProcessPxBaseCallback@3@@Z 00000001800047a0 f   GuTetrahedronMesh.obj
 0001:000037a0       ?requiresObjects@HeightField@Gu@physx@@UEAAXAEAVPxProcessPxBaseCallback@3@@Z 00000001800047a0 f   GuHeightField.obj
 0001:000037a0       ?requiresObjects@TriangleMesh@Gu@physx@@UEAAXAEAVPxProcessPxBaseCallback@3@@Z 00000001800047a0 f   GuTriangleMesh.obj
 0001:000037a0       ?swapIndex@CompanionPrunerAABBTree@@UEAAXII@Z 00000001800047a0 f   GuSecondaryPruner.obj
 0001:000037a0       ?swapIndex@CompanionPrunerBucket@@UEAAXII@Z 00000001800047a0 f   GuSecondaryPruner.obj
 0001:000037a0       ?timeStampChange@CompanionPrunerAABBTree@@UEAAXXZ 00000001800047a0 f   GuSecondaryPruner.obj
 0001:000037a0       ?timeStampChange@CompanionPrunerBucket@@UEAAXXZ 00000001800047a0 f   GuSecondaryPruner.obj
 0001:000037a0       ?visualize@BasePruner@Gu@physx@@UEBAXAEAVPxRenderOutput@3@II@Z 00000001800047a0 f   GuIncrementalAABBPruner.obj
 0001:000037a0       _guard_check_icall_nop     00000001800047a0 f   LIBCMT:guard_support.obj
 0001:000037b0       ??4AABBTreeBounds@Gu@physx@@QEAAAEAV012@AEBV012@@Z 00000001800047b0 f i GuMeshFactory.obj
 0001:000037b0       ??4CmModuleUpdateLoader@Cm@physx@@QEAAAEAV012@AEBV012@@Z 00000001800047b0 f i CmWindowsModuleUpdateLoader.obj
 0001:000037b0       ??4PtrTable@Cm@physx@@QEAAAEAU012@AEBU012@@Z 00000001800047b0 f i CmPtrTable.obj
 0001:000037c0       ?add@PtrTable@Cm@physx@@QEAAXPEAXAEAVPtrTableStorageManager@23@@Z 00000001800047c0 f   CmPtrTable.obj
 0001:00003880       ?clear@PtrTable@Cm@physx@@QEAAXAEAVPtrTableStorageManager@23@@Z 0000000180004880 f   CmPtrTable.obj
 0001:000038f0       ?exportExtraData@PtrTable@Cm@physx@@QEAAXAEAVPxSerializationContext@3@@Z 00000001800048f0 f   CmPtrTable.obj
 0001:00003940       ?find@PtrTable@Cm@physx@@QEBAIPEBX@Z 0000000180004940 f   CmPtrTable.obj
 0001:00003970       ?getCount@PtrTable@Cm@physx@@QEBAIXZ 0000000180004970 f i CmPtrTable.obj
 0001:00003980       ?getPtrs@PtrTable@Cm@physx@@QEAAPEAPEAXXZ 0000000180004980 f i CmPtrTable.obj
 0001:00003980       ?getPtrs@PtrTable@Cm@physx@@QEBAPEBQEAXXZ 0000000180004980 f i CmPtrTable.obj
 0001:00003990       ?importExtraData@PtrTable@Cm@physx@@QEAAXAEAVPxDeserializationContext@3@@Z 0000000180004990 f   CmPtrTable.obj
 0001:000039c0       ?realloc@PtrTable@Cm@physx@@AEAAXIIAEAVPtrTableStorageManager@23@@Z 00000001800049c0 f   CmPtrTable.obj
 0001:00003a70       ?replaceWithLast@PtrTable@Cm@physx@@QEAAXIAEAVPtrTableStorageManager@23@@Z 0000000180004a70 f   CmPtrTable.obj
 0001:00003b70       ??_ECollection@Cm@physx@@UEAAPEAXI@Z 0000000180004b70 f i CmCollection.obj
 0001:00003b70       ??_GCollection@Cm@physx@@UEAAPEAXI@Z 0000000180004b70 f i CmCollection.obj
 0001:00003c30       ??_EPxCollection@physx@@MEAAPEAXI@Z 0000000180004c30 f i CmCollection.obj
 0001:00003c30       ??_GPxCollection@physx@@MEAAPEAXI@Z 0000000180004c30 f i CmCollection.obj
 0001:00003c60       ?add@Collection@Cm@physx@@UEAAXAEAVPxBase@3@_K@Z 0000000180004c60 f   CmCollection.obj
 0001:00003d60       ?add@Collection@Cm@physx@@UEAAXAEAVPxCollection@3@@Z 0000000180004d60 f   CmCollection.obj
 0001:00003fb0       ?addId@Collection@Cm@physx@@UEAAXAEAVPxBase@3@_K@Z 0000000180004fb0 f   CmCollection.obj
 0001:00004100       ?contains@Collection@Cm@physx@@UEBA_NAEAVPxBase@3@@Z 0000000180005100 f   CmCollection.obj
 0001:000041b0       ?create@?$PxHashBase@V?$PxPair@$$CB_KPEAVPxBase@physx@@@physx@@_KU?$PxHash@_K@2@UGetKey@?$PxHashMapBase@_KPEAVPxBase@physx@@U?$PxHash@_K@2@VPxAllocator@2@@2@VPxAllocator@2@$00@physx@@QEAAPEAV?$PxPair@$$CB_KPEAVPxBase@physx@@@2@AEB_KAEA_N@Z 00000001800051b0 f i CmCollection.obj
 0001:000041b0       ?create@?$PxHashBase@V?$PxPair@QEAVPxBase@physx@@_K@physx@@PEAVPxBase@2@U?$PxHash@PEAVPxBase@physx@@@2@UGetKey@?$PxHashMapBase@PEAVPxBase@physx@@_KU?$PxHash@PEAVPxBase@physx@@@2@VPxAllocator@2@@2@VPxAllocator@2@$00@physx@@QEAAPEAV?$PxPair@QEAVPxBase@physx@@_K@2@AEBQEAVPxBase@2@AEA_N@Z 00000001800051b0 f i CmCollection.obj
 0001:00004340       ?erase@?$PxHashBase@V?$PxPair@$$CB_KPEAVPxBase@physx@@@physx@@_KU?$PxHash@_K@2@UGetKey@?$PxHashMapBase@_KPEAVPxBase@physx@@U?$PxHash@_K@2@VPxAllocator@2@@2@VPxAllocator@2@$00@physx@@QEAA_NAEB_K@Z 0000000180005340 f i CmCollection.obj
 0001:00004340       ?erase@?$PxHashBase@V?$PxPair@QEAVPxBase@physx@@_K@physx@@PEAVPxBase@2@U?$PxHash@PEAVPxBase@physx@@@2@UGetKey@?$PxHashMapBase@PEAVPxBase@physx@@_KU?$PxHash@PEAVPxBase@physx@@@2@VPxAllocator@2@@2@VPxAllocator@2@$00@physx@@QEAA_NAEBQEAVPxBase@2@@Z 0000000180005340 f i CmCollection.obj
 0001:000044f0       ?find@?$PxHashMapBase@PEAVPxBase@physx@@_KU?$PxHash@PEAVPxBase@physx@@@2@VPxAllocator@2@@physx@@QEBAPEBV?$PxPair@QEAVPxBase@physx@@_K@2@AEBQEAVPxBase@2@@Z 00000001800054f0 f i CmCollection.obj
 0001:000044f0       ?find@?$PxHashMapBase@_KPEAVPxBase@physx@@U?$PxHash@_K@2@VPxAllocator@2@@physx@@QEBAPEBV?$PxPair@$$CB_KPEAVPxBase@physx@@@2@AEB_K@Z 00000001800054f0 f i CmCollection.obj
 0001:00004590       ?find@Collection@Cm@physx@@UEBAPEAVPxBase@3@_K@Z 0000000180005590 f   CmCollection.obj
 0001:00004600       ?getId@Collection@Cm@physx@@UEBA_KAEBVPxBase@3@@Z 0000000180005600 f   CmCollection.obj
 0001:000046b0       ?getIds@Collection@Cm@physx@@UEBAIPEA_KII@Z 00000001800056b0 f   CmCollection.obj
 0001:00004810       ?getNbIds@Collection@Cm@physx@@UEBAIXZ 0000000180005810 f   CmCollection.obj
 0001:00004820       ?getNbObjects@Collection@Cm@physx@@UEBAIXZ 0000000180005820 f   CmCollection.obj
 0001:00004830       ?getObject@Collection@Cm@physx@@UEBAAEAVPxBase@3@I@Z 0000000180005830 f   CmCollection.obj
 0001:00004840       ?getObjects@Collection@Cm@physx@@UEBAIPEAPEAVPxBase@3@II@Z 0000000180005840 f   CmCollection.obj
 0001:00004900       ?insert@?$PxHashMapBase@_KPEAVPxBase@physx@@U?$PxHash@_K@2@VPxAllocator@2@@physx@@QEAA_N_KQEAVPxBase@2@@Z 0000000180005900 f i CmCollection.obj
 0001:00004950       ?release@Collection@Cm@physx@@UEAAXXZ 0000000180005950 f i CmCollection.obj
 0001:00004970       ?remove@Collection@Cm@physx@@UEAAXAEAVPxBase@3@@Z 0000000180005970 f   CmCollection.obj
 0001:00004ab0       ?remove@Collection@Cm@physx@@UEAAXAEAVPxCollection@3@@Z 0000000180005ab0 f   CmCollection.obj
 0001:00004c10       ?removeId@Collection@Cm@physx@@UEAAX_K@Z 0000000180005c10 f   CmCollection.obj
 0001:00004d00       ?reserveInternal@?$PxHashBase@V?$PxPair@$$CB_KPEAVPxBase@physx@@@physx@@_KU?$PxHash@_K@2@UGetKey@?$PxHashMapBase@_KPEAVPxBase@physx@@U?$PxHash@_K@2@VPxAllocator@2@@2@VPxAllocator@2@$00@physx@@AEAAXI@Z 0000000180005d00 f i CmCollection.obj
 0001:00004d00       ?reserveInternal@?$PxHashBase@V?$PxPair@QEAVPxBase@physx@@_K@physx@@PEAVPxBase@2@U?$PxHash@PEAVPxBase@physx@@@2@UGetKey@?$PxHashMapBase@PEAVPxBase@physx@@_KU?$PxHash@PEAVPxBase@physx@@@2@VPxAllocator@2@@2@VPxAllocator@2@$00@physx@@AEAAXI@Z 0000000180005d00 f i CmCollection.obj
 0001:00004ef0       PxCreateCollection         0000000180005ef0 f   CmCollection.obj
 0001:00004ff0       ??0RadixSort@Cm@physx@@QEAA@XZ 0000000180005ff0 f   CmRadixSort.obj
 0001:00005020       ??0RadixSortBuffered@Cm@physx@@QEAA@XZ 0000000180006020 f   CmRadixSort.obj
 0001:00005050       ??1RadixSort@Cm@physx@@UEAA@XZ 0000000180006050 f   CmRadixSort.obj
 0001:00005060       ??1RadixSortBuffered@Cm@physx@@UEAA@XZ 0000000180006060 f   CmRadixSort.obj
 0001:00005090       ??_ERadixSort@Cm@physx@@UEAAPEAXI@Z 0000000180006090 f i CmRadixSort.obj
 0001:00005120       ??_ERadixSortBuffered@Cm@physx@@UEAAPEAXI@Z 0000000180006120 f i CmRadixSort.obj
 0001:00005210       ?CheckResize@RadixSortBuffered@Cm@physx@@AEAAXI@Z 0000000180006210 f i CmRadixSort.obj
 0001:00005250       ?GetNbHits@RadixSort@Cm@physx@@QEBAIXZ 0000000180006250 f i CmRadixSort.obj
 0001:00005260       ?GetNbTotalCalls@RadixSort@Cm@physx@@QEBAIXZ 0000000180006260 f i CmRadixSort.obj
 0001:00005270       ?GetRanks@RadixSort@Cm@physx@@QEBAPEBIXZ 0000000180006270 f i CmRadixSort.obj
 0001:00005270       ?getGridModelInvMass@DeformableVolumeAuxData@Gu@physx@@UEAAPEAMXZ 0000000180006270 f i GuTetrahedronMesh.obj
 0001:00005270       ?getHeightField@HeightFieldUtil@Gu@physx@@QEBAAEBVHeightField@23@XZ 0000000180006270 f i GuCCTSweepTests.obj
 0001:00005270       ?getSimulationMesh@DeformableVolumeMesh@Gu@physx@@UEAAPEAVPxTetrahedronMesh@3@XZ 0000000180006270 f i GuTetrahedronMesh.obj
 0001:00005270       ?getSimulationMesh@DeformableVolumeMesh@Gu@physx@@UEBAPEBVPxTetrahedronMesh@3@XZ 0000000180006270 f i GuTetrahedronMesh.obj
 0001:00005280       ?GetRecyclable@RadixSort@Cm@physx@@QEBAPEAIXZ 0000000180006280 f i CmRadixSort.obj
 0001:00005280       ?GetValencies@BigConvexData@physx@@QEBAPEBUValency@Gu@2@XZ 0000000180006280 f i GuBigConvexData.obj
 0001:00005280       ?getCollisionMesh@DeformableVolumeMesh@Gu@physx@@UEAAPEAVPxTetrahedronMesh@3@XZ 0000000180006280 f i GuTetrahedronMesh.obj
 0001:00005280       ?getCollisionMesh@DeformableVolumeMesh@Gu@physx@@UEBAPEBVPxTetrahedronMesh@3@XZ 0000000180006280 f i GuTetrahedronMesh.obj
 0001:00005280       ?getHeightFieldGeometry@HeightFieldUtil@Gu@physx@@QEBAAEBVPxHeightFieldGeometry@3@XZ 0000000180006280 f i GuCCTSweepTests.obj
 0001:00005280       ?getObjects@PruningPool@Gu@physx@@QEBAPEAUPrunerPayload@23@XZ 0000000180006280 f i GuIncrementalAABBPrunerCore.obj
 0001:00005280       ?getPos@AABBTreeBuildNode@Gu@physx@@QEBAPEBV123@XZ 0000000180006280 f i GuMeshFactory.obj
 0001:00005280       ?getVertices@TetrahedronMesh@Gu@physx@@UEBAPEBV?$PxVec3T@M@3@XZ 0000000180006280 f i GuTetrahedronMesh.obj
 0001:00005280       ?getVertices@TriangleMesh@Gu@physx@@UEBAPEBV?$PxVec3T@M@3@XZ 0000000180006280 f i GuTriangleMesh.obj
 0001:00005290       ?Resize@RadixSortBuffered@Cm@physx@@AEAA_NI@Z 0000000180006290 f   CmRadixSort.obj
 0001:00005390       ?SetBuffers@RadixSort@Cm@physx@@QEAA_NPEAI00PEAPEAI@Z 0000000180006390 f   CmRadixSort.obj
 0001:000053d0       ?Sort@RadixSort@Cm@physx@@QEAAAEAV123@PEBIIW4RadixHint@23@@Z 00000001800063d0 f   CmRadixSort.obj
 0001:00005a80       ?Sort@RadixSort@Cm@physx@@QEAAAEAV123@PEBMI@Z 0000000180006a80 f   CmRadixSort.obj
 0001:00006210       ?Sort@RadixSortBuffered@Cm@physx@@QEAAAEAV123@PEBIIW4RadixHint@23@@Z 0000000180007210 f   CmRadixSort.obj
 0001:000062b0       ?Sort@RadixSortBuffered@Cm@physx@@QEAAAEAV123@PEBMI@Z 00000001800072b0 f   CmRadixSort.obj
 0001:00006340       ?invalidateRanks@RadixSort@Cm@physx@@QEAAXXZ 0000000180007340 f i CmRadixSort.obj
 0001:00006350       ?reset@RadixSortBuffered@Cm@physx@@QEAAXXZ 0000000180007350 f   CmRadixSort.obj
 0001:000063e0       ?ReadHeader@Cm@physx@@YA_NEEEEAEAIAEA_NAEAVPxInputStream@2@@Z 00000001800073e0 f   CmSerialize.obj
 0001:00006540       ?ReadIndices@Cm@physx@@YAXGIPEAGAEAVPxInputStream@2@_N@Z 0000000180007540 f   CmSerialize.obj
 0001:000066f0       ?StoreIndices@Cm@physx@@YAXGIPEBGAEAVPxOutputStream@2@_N@Z 00000001800076f0 f   CmSerialize.obj
 0001:000067e0       ?WriteHeader@Cm@physx@@YA_NEEEEI_NAEAVPxOutputStream@2@@Z 00000001800077e0 f   CmSerialize.obj
 0001:00006910       ?computeMaxIndex@physx@@YAGPEBGI@Z 0000000180007910 f   CmSerialize.obj
 0001:00006940       ?computeMaxIndex@physx@@YAIPEBII@Z 0000000180007940 f   CmSerialize.obj
 0001:00006970       ?readByteBuffer@physx@@YAXPEAEIAEAVPxInputStream@1@@Z 0000000180007970 f   CmSerialize.obj
 0001:00006970       ?writeByteBuffer@physx@@YAXPEBEIAEAVPxOutputStream@1@@Z 0000000180007970 f   CmSerialize.obj
 0001:00006990       ?readChunk@physx@@YAXAEAC000AEAVPxInputStream@1@@Z 0000000180007990 f   CmSerialize.obj
 0001:00006a10       ?readDword@physx@@YAI_NAEAVPxInputStream@1@@Z 0000000180007a10 f   CmSerialize.obj
 0001:00006a70       ?readFloat@physx@@YAM_NAEAVPxInputStream@1@@Z 0000000180007a70 f   CmSerialize.obj
 0001:00006ad0       ?readFloatBuffer@physx@@YA_NPEAMI_NAEAVPxInputStream@1@@Z 0000000180007ad0 f   CmSerialize.obj
 0001:00006b50       ?readHeader@physx@@YA_NCCCCAEAIAEA_NAEAVPxInputStream@1@@Z 0000000180007b50 f   CmSerialize.obj
 0001:00006ca0       ?readIndices@physx@@YAXIIPEAIAEAVPxInputStream@1@_N@Z 0000000180007ca0 f   CmSerialize.obj
 0001:00006dd0       ?readWord@physx@@YAG_NAEAVPxInputStream@1@@Z 0000000180007dd0 f   CmSerialize.obj
 0001:00006e10       ?readWordBuffer@physx@@YAXPEAGI_NAEAVPxInputStream@1@@Z 0000000180007e10 f   CmSerialize.obj
 0001:00006e80       ?storeIndices@physx@@YAXIIPEBIAEAVPxOutputStream@1@_N@Z 0000000180007e80 f   CmSerialize.obj
 0001:00007010       ?writeDword@physx@@YAXI_NAEAVPxOutputStream@1@@Z 0000000180008010 f   CmSerialize.obj
 0001:00007060       ?writeFloat@physx@@YAXM_NAEAVPxOutputStream@1@@Z 0000000180008060 f   CmSerialize.obj
 0001:000070b0       ?writeFloatBuffer@physx@@YAXPEBMI_NAEAVPxOutputStream@1@@Z 00000001800080b0 f   CmSerialize.obj
 0001:00007150       ?writeHeader@physx@@YA_NCCCCI_NAEAVPxOutputStream@1@@Z 0000000180008150 f   CmSerialize.obj
 0001:00007280       ?writeWord@physx@@YAXG_NAEAVPxOutputStream@1@@Z 0000000180008280 f   CmSerialize.obj
 0001:000072c0       ?writeWordBuffer@physx@@YAXPEBGI_NAEAVPxOutputStream@1@@Z 00000001800082c0 f   CmSerialize.obj
 0001:00007340       ??6PxRenderOutput@physx@@QEAAAEAV01@AEBV?$PxTransformT@M@1@@Z 0000000180008340 f i CmVisualization.obj
 0001:000074c0       ??6PxRenderOutput@physx@@QEAAAEAV01@AEBV?$PxVec3T@M@1@@Z 00000001800084c0 f i CmVisualization.obj
 0001:000077b0       ?renderOutputDebugArrow@Cm@physx@@YAXAEAVPxRenderOutput@2@AEBUPxDebugArrow@2@@Z 00000001800087b0 f   CmVisualization.obj
 0001:00007b60       ?renderOutputDebugBasis@Cm@physx@@YAXAEAVPxRenderOutput@2@AEBUPxDebugBasis@2@@Z 0000000180008b60 f   CmVisualization.obj
 0001:000080c0       ?renderOutputDebugBox@Cm@physx@@YAXAEAVPxRenderOutput@2@AEBVPxBounds3@2@@Z 00000001800090c0 f   CmVisualization.obj
 0001:00008330       ?renderOutputDebugCircle@Cm@physx@@YAXAEAVPxRenderOutput@2@IM@Z 0000000180009330 f   CmVisualization.obj
 0001:00008410       ?visualizeAngularLimit@Cm@physx@@YAXAEAVPxRenderOutput@2@MAEBV?$PxTransformT@M@2@MM@Z 0000000180009410 f   CmVisualization.obj
 0001:000085a0       ?visualizeDoubleCone@Cm@physx@@YAXAEAVPxRenderOutput@2@MAEBV?$PxTransformT@M@2@M@Z 00000001800095a0 f   CmVisualization.obj
 0001:000087c0       ?visualizeJointFrames@Cm@physx@@YAXAEAVPxRenderOutput@2@MAEBV?$PxTransformT@M@2@1@Z 00000001800097c0 f   CmVisualization.obj
 0001:000094b0       ?visualizeLimitCone@Cm@physx@@YAXAEAVPxRenderOutput@2@MAEBV?$PxTransformT@M@2@MM@Z 000000018000a4b0 f   CmVisualization.obj
 0001:000096e0       ?visualizeLinearLimit@Cm@physx@@YAXAEAVPxRenderOutput@2@MAEBV?$PxTransformT@M@2@1M@Z 000000018000a6e0 f   CmVisualization.obj
 0001:00009ce0       ??0CmModuleUpdateLoader@Cm@physx@@QEAA@PEBD@Z 000000018000ace0 f   CmWindowsModuleUpdateLoader.obj
 0001:00009d20       ??1CmModuleUpdateLoader@Cm@physx@@QEAA@XZ 000000018000ad20 f   CmWindowsModuleUpdateLoader.obj
 0001:00009d50       ?LoadModule@CmModuleUpdateLoader@Cm@physx@@QEAAPEAUHINSTANCE__@@PEBD0@Z 000000018000ad50 f   CmWindowsModuleUpdateLoader.obj
 0001:00009dc0       __local_stdio_printf_options 000000018000adc0 f i CmWindowsModuleUpdateLoader.obj
 0001:00009dd0       printf                     000000018000add0 f i CmWindowsModuleUpdateLoader.obj
 0001:00009e30       ?commonDelayHook@@YAP6A_JXZIPEAUDelayLoadInfo@@@Z 000000018000ae30 f   CmWindowsDelayLoadHook.obj
 0001:00009f10       PxSetPhysXCommonDelayLoadHook 000000018000af10 f   CmWindowsDelayLoadHook.obj
 0001:00009f20       ??0?$PxQuatT@M@physx@@QEAA@AEBV?$PxMat33T@M@1@@Z 000000018000af20 f i GuBox.obj
 0001:0000a110       ??0Box@Gu@physx@@QEAA@AEBV012@@Z 000000018000b110 f i GuBox.obj
 0001:0000a110       ??4Box@Gu@physx@@QEAAAEBV012@AEBV012@@Z 000000018000b110 f i GuBox.obj
 0001:0000a170       ??0Box@Gu@physx@@QEAA@AEBV?$PxVec3T@M@2@0AEBV?$PxMat33T@M@2@@Z 000000018000b170 f i GuBox.obj
 0001:0000a1e0       ??0AABBTreeBuildNode@Gu@physx@@QEAA@XZ 000000018000b1e0 f i GuMeshFactory.obj
 0001:0000a1e0       ??0BigConvexData@physx@@QEAA@W4PxEMPTY@1@@Z 000000018000b1e0 f i GuBigConvexData.obj
 0001:0000a1e0       ??0Box@Gu@physx@@QEAA@XZ   000000018000b1e0 f i GuBox.obj
 0001:0000a1e0       ??0HeightFieldData@Gu@physx@@QEAA@W4PxEMPTY@2@@Z 000000018000b1e0 f i GuCCTSweepTests.obj
 0001:0000a1e0       ?getAABB@AABBTreeBuildNode@Gu@physx@@QEBAAEBVPxBounds3@3@XZ 000000018000b1e0 f i GuMeshFactory.obj
 0001:0000a1e0       ?getPaddedBounds@HeightFieldData@Gu@physx@@QEBAAEBVCenterExtentsPadded@23@XZ 000000018000b1e0 f i GuCCTSweepTests.obj
 0001:0000a1f0       ??D?$PxMat33T@M@physx@@QEBA?BV?$PxVec3T@M@1@AEBV21@@Z 000000018000b1f0 f i GuBox.obj
 0001:0000a1f0       ?rotate@Box@Gu@physx@@QEBA?AV?$PxVec3T@M@3@AEBV43@@Z 000000018000b1f0 f i GuBox.obj
 0001:0000a280       ?PxComputeBasisVectors@physx@@YAXAEBV?$PxVec3T@M@1@AEAV21@1@Z 000000018000b280 f i GuBox.obj
 0001:0000a3b0       ?computeAABBExtent@Box@Gu@physx@@QEBA?AV?$PxVec3T@M@3@XZ 000000018000b3b0 f i GuBox.obj
 0001:0000a470       ?computeBoxPoints@Box@Gu@physx@@QEBAXPEIAV?$PxVec3T@M@3@@Z 000000018000b470 f i GuBox.obj
 0001:0000a4b0       ?computeOBBPoints@Gu@physx@@YAXPEIAV?$PxVec3T@M@2@AEBV32@1111@Z 000000018000b4b0 f   GuBox.obj
 0001:0000a740       ?create@Box@Gu@physx@@QEAAXAEBVCapsule@23@@Z 000000018000b740 f   GuBox.obj
 0001:0000a980       ?getBoxEdges@Gu@physx@@YAPEBEXZ 000000018000b980 f   GuBox.obj
 0001:0000a990       ?getTransform@Box@Gu@physx@@QEBA?AV?$PxTransformT@M@3@XZ 000000018000b990 f i GuBox.obj
 0001:0000a9f0       ?isValid@Box@Gu@physx@@QEBA_NXZ 000000018000b9f0 f i GuBox.obj
 0001:0000aa10       ?rotateInv@Box@Gu@physx@@QEBA?AV?$PxVec3T@M@3@AEBV43@@Z 000000018000ba10 f i GuBox.obj
 0001:0000aaa0       ?setAxes@Box@Gu@physx@@QEAAXAEBV?$PxVec3T@M@3@00@Z 000000018000baa0 f i GuBox.obj
 0001:0000aae0       ?setEmpty@Box@Gu@physx@@QEAAXXZ 000000018000bae0 f i GuBox.obj
 0001:0000ab20       ?transform@Box@Gu@physx@@QEBA?AV?$PxVec3T@M@3@AEBV43@@Z 000000018000bb20 f i GuBox.obj
 0001:0000abc0       ?computeBoxAroundCapsule@Gu@physx@@YAXAEBVCapsule@12@AEAVBox@12@@Z 000000018000bbc0 f   GuCapsule.obj
 0001:0000ae80       ??0HeightFieldData@Gu@physx@@QEAA@$$QEAU012@@Z 000000018000be80 f i GuCCTSweepTests.obj
 0001:0000ae80       ??0HeightFieldData@Gu@physx@@QEAA@AEBU012@@Z 000000018000be80 f i GuCCTSweepTests.obj
 0001:0000ae80       ??4HeightFieldData@Gu@physx@@QEAAAEAU012@$$QEAU012@@Z 000000018000be80 f i GuCCTSweepTests.obj
 0001:0000ae80       ??4HeightFieldData@Gu@physx@@QEAAAEAU012@AEBU012@@Z 000000018000be80 f i GuCCTSweepTests.obj
 0001:0000aee0       ??0HeightFieldData@Gu@physx@@QEAA@XZ 000000018000bee0 f i GuCCTSweepTests.obj
 0001:0000aef0       ??0HeightFieldTraceUtil@Gu@physx@@QEAA@AEBVPxHeightFieldGeometry@2@@Z 000000018000bef0 f i GuCCTSweepTests.obj
 0001:0000aef0       ??0HeightFieldUtil@Gu@physx@@QEAA@AEBVPxHeightFieldGeometry@2@@Z 000000018000bef0 f i GuCCTSweepTests.obj
 0001:0000af30       ??4AABBTreeBuildParams@Gu@physx@@QEAAAEAV012@AEBV012@@Z 000000018000bf30 f i GuMeshFactory.obj
 0001:0000af30       ??4HeightFieldTraceUtil@Gu@physx@@QEAAAEAV012@$$QEAV012@@Z 000000018000bf30 f i GuCCTSweepTests.obj
 0001:0000af30       ??4HeightFieldTraceUtil@Gu@physx@@QEAAAEAV012@AEBV012@@Z 000000018000bf30 f i GuCCTSweepTests.obj
 0001:0000af30       ??4HeightFieldUtil@Gu@physx@@QEAAAEAV012@AEBV012@@Z 000000018000bf30 f i GuCCTSweepTests.obj
 0001:0000af50       ??4HeightFieldUtil@Gu@physx@@QEAAAEAV012@$$QEAV012@@Z 000000018000bf50 f i GuCCTSweepTests.obj
 0001:0000afb0       ??_EEntityReport@Gu@physx@@UEAAPEAXI@Z 000000018000bfb0 f i GuSweepsHF.obj
 0001:0000afb0       ??_EOverlapCallback@PxBVH@physx@@UEAAPEAXI@Z 000000018000bfb0 f i GuQuerySystem.obj
 0001:0000afb0       ??_EOverlapReport@Gu@physx@@UEAAPEAXI@Z 000000018000bfb0 f i GuCCTSweepTests.obj
 0001:0000afb0       ??_ERaycastCallback@PxBVH@physx@@UEAAPEAXI@Z 000000018000bfb0 f i GuQuerySystem.obj
 0001:0000afb0       ??_ERemapCallback@RTreeCooker@physx@@UEAAPEAXI@Z 000000018000bfb0 f i GuCookingTriangleMesh.obj
 0001:0000afb0       ??_GEntityReport@Gu@physx@@UEAAPEAXI@Z 000000018000bfb0 f i GuSweepsHF.obj
 0001:0000afb0       ??_GOverlapCallback@PxBVH@physx@@UEAAPEAXI@Z 000000018000bfb0 f i GuQuerySystem.obj
 0001:0000afb0       ??_GOverlapReport@Gu@physx@@UEAAPEAXI@Z 000000018000bfb0 f i GuCCTSweepTests.obj
 0001:0000afb0       ??_GRaycastCallback@PxBVH@physx@@UEAAPEAXI@Z 000000018000bfb0 f i GuQuerySystem.obj
 0001:0000afb0       ??_GRemapCallback@RTreeCooker@physx@@UEAAPEAXI@Z 000000018000bfb0 f i GuCookingTriangleMesh.obj
 0001:0000afe0       ??_H@YAXPEAX_K1P6APEAX0@Z@Z 000000018000bfe0 f i GuCCTSweepTests.obj
 0001:0000b030       ?ceilUp@HeightFieldTraceUtil@Gu@physx@@SAMM@Z 000000018000c030 f i GuCCTSweepTests.obj
 0001:0000b070       ?floorDown@HeightFieldTraceUtil@Gu@physx@@SAMM@Z 000000018000c070 f i GuCCTSweepTests.obj
 0001:0000b0b0       ?getHeightAtShapePoint@HeightFieldUtil@Gu@physx@@QEBAMMM@Z 000000018000c0b0 f i GuCCTSweepTests.obj
 0001:0000b110       ?getHeightInternal2@HeightField@Gu@physx@@QEBAMIMM@Z 000000018000c110 f i GuCCTSweepTests.obj
 0001:0000b280       ?getNormalAtShapePoint@HeightFieldUtil@Gu@physx@@QEBA?AV?$PxVec3T@M@3@MM@Z 000000018000c280 f i GuCCTSweepTests.obj
 0001:0000b340       ?getNormal_2@HeightField@Gu@physx@@QEBA?AV?$PxVec3T@M@3@IMMMMM@Z 000000018000c340 f i GuCCTSweepTests.obj
 0001:0000b450       ?getOneOverColumnScale@HeightFieldUtil@Gu@physx@@QEBAMXZ 000000018000c450 f i GuCCTSweepTests.obj
 0001:0000b460       ?getOneOverHeightScale@HeightFieldUtil@Gu@physx@@QEBAMXZ 000000018000c460 f i GuCCTSweepTests.obj
 0001:0000b470       ?getOneOverRowScale@HeightFieldUtil@Gu@physx@@QEBAMXZ 000000018000c470 f i GuCCTSweepTests.obj
 0001:0000b480       ?hf2shapen@HeightFieldUtil@Gu@physx@@QEBA?AV?$PxVec3T@M@3@AEBV43@@Z 000000018000c480 f i GuCCTSweepTests.obj
 0001:0000b480       ?shape2hfp@HeightFieldUtil@Gu@physx@@QEBA?AV?$PxVec3T@M@3@AEBV43@@Z 000000018000c480 f i GuCCTSweepTests.obj
 0001:0000b4c0       ?hf2shapep@HeightFieldUtil@Gu@physx@@QEBA?AV?$PxVec3T@M@3@AEBV43@@Z 000000018000c4c0 f i GuCCTSweepTests.obj
 0001:0000b500       ?hf2worldn@HeightFieldUtil@Gu@physx@@QEBA?AV?$PxVec3T@M@3@AEBV?$PxTransformT@M@3@AEBV43@@Z 000000018000c500 f i GuCCTSweepTests.obj
 0001:0000b670       ?hf2worldp@HeightFieldUtil@Gu@physx@@QEBA?AV?$PxVec3T@M@3@AEBV?$PxTransformT@M@3@AEBV43@@Z 000000018000c670 f i GuCCTSweepTests.obj
 0001:0000b7f0       ?overlapAABBTriangles0to1@HeightFieldUtil@Gu@physx@@QEBAXAEBV?$PxTransformT@M@3@AEBVPxBounds3@3@AEAVOverlapReport@23@I@Z 000000018000c7f0 f i GuCCTSweepTests.obj
 0001:0000bb40       ?overlapAABBTriangles@HeightFieldUtil@Gu@physx@@QEBAXAEBV?$PxTransformT@M@3@0AEBVPxBounds3@3@AEAVOverlapReport@23@I@Z 000000018000cb40 f i GuCCTSweepTests.obj
 0001:0000c130       ?overlapAABBTriangles@HeightFieldUtil@Gu@physx@@QEBAXAEBV?$PxTransformT@M@3@AEBVPxBounds3@3@AEAVOverlapReport@23@I@Z 000000018000d130 f i GuCCTSweepTests.obj
 0001:0000c780       ?sweepBoxTriangles_Precise@Gu@physx@@YA_NIPEBVPxTriangle@2@_NAEBVPxBoxGeometry@2@AEBV?$PxTransformT@M@2@AEBV?$PxVec3T@M@2@MAEAUPxGeomSweepHit@2@PEBIMV?$PxFlags@W4Enum@PxHitFlag@physx@@G@2@@Z 000000018000d780 f   GuCCTSweepTests.obj
 0001:0000d510       ?sweepBox_BoxGeom_Precise@@YA_NAEBVPxGeometry@physx@@AEBV?$PxTransformT@M@2@AEBVPxBoxGeometry@2@1AEBVBox@Gu@2@AEBV?$PxVec3T@M@2@MAEAUPxGeomSweepHit@2@V?$PxFlags@W4Enum@PxHitFlag@physx@@G@2@MPEAUPxQueryThreadContext@2@@Z 000000018000e510 f   GuCCTSweepTests.obj
 0001:0000d6d0       ?sweepBox_CapsuleGeom_Precise@@YA_NAEBVPxGeometry@physx@@AEBV?$PxTransformT@M@2@AEBVPxBoxGeometry@2@1AEBVBox@Gu@2@AEBV?$PxVec3T@M@2@MAEAUPxGeomSweepHit@2@V?$PxFlags@W4Enum@PxHitFlag@physx@@G@2@MPEAUPxQueryThreadContext@2@@Z 000000018000e6d0 f   GuCCTSweepTests.obj
 0001:0000daa0       ?sweepBox_HeightFieldGeom_Precise@@YA_NAEBVPxGeometry@physx@@AEBV?$PxTransformT@M@2@AEBVPxBoxGeometry@2@1AEBVBox@Gu@2@AEBV?$PxVec3T@M@2@MAEAUPxGeomSweepHit@2@V?$PxFlags@W4Enum@PxHitFlag@physx@@G@2@MPEAUPxQueryThreadContext@2@@Z 000000018000eaa0 f   GuCCTSweepTests.obj
 0001:0000e290       ?sweepBox_SphereGeom_Precise@@YA_NAEBVPxGeometry@physx@@AEBV?$PxTransformT@M@2@AEBVPxBoxGeometry@2@1AEBVBox@Gu@2@AEBV?$PxVec3T@M@2@MAEAUPxGeomSweepHit@2@V?$PxFlags@W4Enum@PxHitFlag@physx@@G@2@MPEAUPxQueryThreadContext@2@@Z 000000018000f290 f   GuCCTSweepTests.obj
 0001:0000e560       ?sweepCapsule_BoxGeom_Precise@@YA_NAEBVPxGeometry@physx@@AEBV?$PxTransformT@M@2@AEBVPxCapsuleGeometry@2@1AEBVCapsule@Gu@2@AEBV?$PxVec3T@M@2@MAEAUPxGeomSweepHit@2@V?$PxFlags@W4Enum@PxHitFlag@physx@@G@2@MPEAUPxQueryThreadContext@2@@Z 000000018000f560 f   GuCCTSweepTests.obj
 0001:000117e0       ?getMidphaseID@RTreeTriangleMesh@Gu@physx@@UEBA?AW4Enum@PxMeshMidPhase@3@XZ 00000001800127e0 f   GuTriangleMeshRTree.obj
 0001:000117e0       ?getMidphaseID@RTreeTriangleMeshBuilder@physx@@UEBA?AW4Enum@PxMeshMidPhase@2@XZ 00000001800127e0 f   GuCookingTriangleMesh.obj
 0001:000117e0       ?getTetrahedraRemap@TetrahedronMesh@Gu@physx@@UEBAPEBIXZ 00000001800127e0 f   GuTetrahedronMesh.obj
 0001:000117e0       ?raycast_particlesystem@@YAIAEBVPxGeometry@physx@@AEBV?$PxTransformT@M@2@AEBV?$PxVec3T@M@2@2MV?$PxFlags@W4Enum@PxHitFlag@physx@@G@2@IPEIAUPxGeomRaycastHit@2@IPEAUPxQueryThreadContext@2@@Z 00000001800127e0 f   GuRaycastTests.obj
 0001:000117e0       ?raycast_softbody@@YAIAEBVPxGeometry@physx@@AEBV?$PxTransformT@M@2@AEBV?$PxVec3T@M@2@2MV?$PxFlags@W4Enum@PxHitFlag@physx@@G@2@IPEIAUPxGeomRaycastHit@2@IPEAUPxQueryThreadContext@2@@Z 00000001800127e0 f   GuRaycastTests.obj
 0001:00012290       ??0AABBTreeBounds@Gu@physx@@QEAA@XZ 0000000180013290 f   GuMeshFactory.obj
 0001:000122a0       ??0?$CacheMap@UCachedEdge@Gu@physx@@$0IA@@Gu@physx@@QEAA@XZ 00000001800132a0 f i GuGeometryQuery.obj
 0001:00012360       ??0?$CacheMap@UCachedVertex@Gu@physx@@$0IA@@Gu@physx@@QEAA@XZ 0000000180013360 f i GuGeometryQuery.obj
 0001:00012420       ??0?$Convex@UConvexShape@Gu@physx@@@RefGjkEpa@Gu@physx@@QEAA@AEBUConvexShape@23@AEBV?$PxTransformT@M@3@@Z 0000000180013420 f i GuGeometryQuery.obj
 0001:000128a0       ??0?$EpaDepth@UConvexShape@Gu@physx@@@RefGjkEpa@Gu@physx@@QEAA@AEAU?$Convex@UConvexShape@Gu@physx@@@123@0@Z 00000001800138a0 f i GuGeometryQuery.obj
 0001:00012b70       ??0MultiplePersistentContactManifold@Gu@physx@@QEAA@XZ 0000000180013b70 f i GuGeometryQuery.obj
 0001:00012bd0       ??0PCMMeshContactGeneration@Gu@physx@@QEAA@AEBT__m128@@0AEBVPxTransformV@aos@2@1AEAVMultiplePersistentContactManifold@12@AEAVPxContactBuffer@2@PEAV?$PxInlineArray@I$0DMA@V?$PxReflectionAllocator@I@physx@@@2@PEAVPxRenderOutput@2@@Z 0000000180013bd0 f i GuGeometryQuery.obj
 0001:00013500       ??4MultiplePersistentContactManifold@Gu@physx@@QEAAAEAV012@$$QEAV012@@Z 0000000180014500 f i GuGeometryQuery.obj
 0001:00013810       ??4MultiplePersistentContactManifold@Gu@physx@@QEAAAEAV012@AEBV012@@Z 0000000180014810 f i GuGeometryQuery.obj
 0001:00013830       ??_E?$SupportLocalImpl@VBoxV@Gu@physx@@@Gu@physx@@UEAAPEAXI@Z 0000000180014830 f i GuGeometryQuery.obj
 0001:00013830       ??_E?$SupportLocalImpl@VConvexHullNoScaleV@Gu@physx@@@Gu@physx@@UEAAPEAXI@Z 0000000180014830 f i GuMTD.obj
 0001:00013830       ??_E?$SupportLocalImpl@VConvexHullV@Gu@physx@@@Gu@physx@@UEAAPEAXI@Z 0000000180014830 f i GuGeometryQuery.obj
 0001:00013830       ??_E?$SupportLocalImpl@VTriangleV@Gu@physx@@@Gu@physx@@UEAAPEAXI@Z 0000000180014830 f i GuPCMContactConvexCommon.obj
 0001:00013830       ??_G?$SupportLocalImpl@VBoxV@Gu@physx@@@Gu@physx@@UEAAPEAXI@Z 0000000180014830 f i GuGeometryQuery.obj
 0001:00013830       ??_G?$SupportLocalImpl@VConvexHullNoScaleV@Gu@physx@@@Gu@physx@@UEAAPEAXI@Z 0000000180014830 f i GuMTD.obj
 0001:00013830       ??_G?$SupportLocalImpl@VConvexHullV@Gu@physx@@@Gu@physx@@UEAAPEAXI@Z 0000000180014830 f i GuGeometryQuery.obj
 0001:00013830       ??_G?$SupportLocalImpl@VTriangleV@Gu@physx@@@Gu@physx@@UEAAPEAXI@Z 0000000180014830 f i GuPCMContactConvexCommon.obj
 0001:00013860       ??_ESupportLocal@Gu@physx@@UEAAPEAXI@Z 0000000180014860 f i GuGeometryQuery.obj
 0001:00013860       ??_GSupportLocal@Gu@physx@@UEAAPEAXI@Z 0000000180014860 f i GuGeometryQuery.obj
 0001:00013890       ?ComputeCubemapNearestOffset@physx@@YAIAEBV?$PxVec3T@M@1@I@Z 0000000180014890 f i GuGeometryQuery.obj
 0001:000139a0       ?addPoint@?$EpaDepth@UConvexShape@Gu@physx@@@RefGjkEpa@Gu@physx@@QEAAMAEBV?$PxVec3T@M@4@@Z 00000001800149a0 f i GuGeometryQuery.obj
 0001:00013ec0       ?allocate@?$PxArray@IV?$PxInlineAllocator@$0PAA@V?$PxReflectionAllocator@I@physx@@@physx@@@physx@@IEAAPEAIIPEAI@Z 0000000180014ec0 f i GuGeometryQuery.obj
 0001:00013f80       ?clearManifold@MultiplePersistentContactManifold@Gu@physx@@QEAAXXZ 0000000180014f80 f i GuGeometryQuery.obj
 0001:00013fe0       ?clip2x2@FaceClipper@Gu@physx@@AEAAXXZ 0000000180014fe0 f i GuGeometryQuery.obj
 0001:00014b90       ?clipNone@FaceClipper@Gu@physx@@AEAAXXZ 0000000180015b90 f i GuGeometryQuery.obj
 0001:00014c50       ?clipNxN@FaceClipper@Gu@physx@@AEAAXXZ 0000000180015c50 f i GuGeometryQuery.obj
 0001:00015480       ?computeClosest@?$GjkDistance@UConvexShape@Gu@physx@@@RefGjkEpa@Gu@physx@@QEAAXXZ 0000000180016480 f i GuGeometryQuery.obj
 0001:00016af0       ?computeGeomBounds@PxGeometryQuery@physx@@SAXAEAVPxBounds3@2@AEBVPxGeometry@2@AEBV?$PxTransformT@M@2@MMV?$PxFlags@W4Enum@PxGeometryQueryFlag@physx@@I@2@@Z 0000000180017af0 f   GuGeometryQuery.obj
 0001:00016c00       ?computePenetration@PxGeometryQuery@physx@@SA_NAEAV?$PxVec3T@M@2@AEAMAEBVPxGeometry@2@AEBV?$PxTransformT@M@2@23V?$PxFlags@W4Enum@PxGeometryQueryFlag@physx@@I@2@@Z 0000000180017c00 f   GuGeometryQuery.obj
 0001:00016e10       ?computePoints@?$EpaDepth@UConvexShape@Gu@physx@@@RefGjkEpa@Gu@physx@@QEAAXAEAV?$PxVec3T@M@4@0@Z 0000000180017e10 f i GuGeometryQuery.obj
 0001:00017390       ?contactFace@ConvexShape@Gu@physx@@QEBAIAEBV?$PxVec3T@M@3@0AEAV43@QEAV43@@Z 0000000180018390 f i GuGeometryQuery.obj
 0001:00017910       ?distancePointSegmentSquared@Gu@physx@@YAMAEBVSegment@12@AEBV?$PxVec3T@M@2@PEAM@Z 0000000180018910 f i GuGeometryQuery.obj
 0001:00017a50       ?doSupport@?$SupportLocalImpl@VBoxV@Gu@physx@@@Gu@physx@@UEBA?AT__m128@@AEBT4@@Z 0000000180018a50 f i GuGeometryQuery.obj
 0001:00017a80       ?doSupport@?$SupportLocalImpl@VBoxV@Gu@physx@@@Gu@physx@@UEBAXAEBT__m128@@AEAT4@1@Z 0000000180018a80 f i GuGeometryQuery.obj
 0001:00017ad0       ?doSupport@?$SupportLocalImpl@VConvexHullV@Gu@physx@@@Gu@physx@@UEBA?AT__m128@@AEBT4@@Z 0000000180018ad0 f i GuGeometryQuery.obj
 0001:00017bb0       ?doSupport@?$SupportLocalImpl@VConvexHullV@Gu@physx@@@Gu@physx@@UEBAXAEBT__m128@@AEAT4@1@Z 0000000180018bb0 f i GuGeometryQuery.obj
 0001:000185f0       ?generateTriangleContacts@PxGeometryQuery@physx@@SA_NAEBVPxGeometry@2@AEBV?$PxTransformT@M@2@QEBV?$PxVec3T@M@2@IMMMAEAVPxContactBuffer@2@@Z 00000001800195f0 f   GuGeometryQuery.obj
 0001:0001a1a0       ?getBounds@?$Convex@UConvexShape@Gu@physx@@@RefGjkEpa@Gu@physx@@QEBA?AVPxBounds3@4@XZ 000000018001b1a0 f i GuGeometryQuery.obj
 0001:0001aa70       ?getEmptyManifold@MultiplePersistentContactManifold@Gu@physx@@QEAAPEAVSinglePersistentContactManifold@23@XZ 000000018001ba70 f i GuGeometryQuery.obj
 0001:0001aa90       ?getManifold@MultiplePersistentContactManifold@Gu@physx@@QEAAPEAVSinglePersistentContactManifold@23@I@Z 000000018001ba90 f i GuGeometryQuery.obj
 0001:0001aa90       ?getManifold@MultiplePersistentContactManifold@Gu@physx@@QEBAPEBVSinglePersistentContactManifold@23@I@Z 000000018001ba90 f i GuGeometryQuery.obj
 0001:0001aab0       ?getUniqueID@PxCustomGeometry@physx@@SAIXZ 000000018001bab0 f   GuGeometryQuery.obj
 0001:0001aad0       ?hillClimbing@ConvexHullV@Gu@physx@@QEBAIAEBT__m128@@@Z 000000018001bad0 f i GuGeometryQuery.obj
 0001:0001ad00       ?initialize@MultiplePersistentContactManifold@Gu@physx@@QEAAXXZ 000000018001bd00 f i GuGeometryQuery.obj
 0001:0001ad60       ?invalidate@MultiplePersistentContactManifold@Gu@physx@@QEBAIAEBVPxTransformV@aos@3@AEBT__m128@@1@Z 000000018001bd60 f i GuGeometryQuery.obj
 0001:0001add0       ?invalidate@MultiplePersistentContactManifold@Gu@physx@@QEBAIAEBVPxTransformV@aos@3@AEBT__m128@@@Z 000000018001bdd0 f i GuGeometryQuery.obj
 0001:0001ae40       ?isFinite@?$PxQuatT@M@physx@@QEBA_NXZ 000000018001be40 f i GuGeometryQuery.obj
 0001:0001aeb0       ?isFinite@?$PxVec3T@M@physx@@QEBA_NXZ 000000018001beb0 f i GuGeometryQuery.obj
 0001:0001af10       ?isUnit@?$PxQuatT@M@physx@@QEBA_NXZ 000000018001bf10 f i GuGeometryQuery.obj
 0001:0001af80       ?isValid@?$PxTransformT@M@physx@@QEBA_NXZ 000000018001bf80 f i GuGeometryQuery.obj
 0001:0001aff0       ?isValid@PxGeometryQuery@physx@@SA_NAEBVPxGeometry@2@@Z 000000018001bff0 f   GuGeometryQuery.obj
 0001:0001b300       ?makePlane@?$EpaDepth@UConvexShape@Gu@physx@@@RefGjkEpa@Gu@physx@@QEAA_NEEEAEAV?$PxVec4T@M@4@@Z 000000018001c300 f i GuGeometryQuery.obj
 0001:0001b6d0       ?makePlanes@FaceClipper@Gu@physx@@AEAAXPEBV?$PxVec3T@M@3@IPEAV?$PxVec4T@M@3@AEAI@Z 000000018001c6d0 f i GuGeometryQuery.obj
 0001:0001bb30       ?makePolygon@FaceClipper@Gu@physx@@AEAAXPEAV?$PxVec3T@M@3@AEAI@Z 000000018001cb30 f i GuGeometryQuery.obj
 0001:0001c460       ?maxTransformPositionDelta@MultiplePersistentContactManifold@Gu@physx@@QEBA?AT__m128@@AEBT4@@Z 000000018001d460 f i GuGeometryQuery.obj
 0001:0001c4a0       ?overlap@PxGeometryQuery@physx@@SA_NAEBVPxGeometry@2@AEBV?$PxTransformT@M@2@01V?$PxFlags@W4Enum@PxGeometryQueryFlag@physx@@I@2@PEAUPxQueryThreadContext@2@@Z 000000018001d4a0 f   GuGeometryQuery.obj
 0001:0001c610       ?pointDistance@PxGeometryQuery@physx@@SAMAEBV?$PxVec3T@M@2@AEBVPxGeometry@2@AEBV?$PxTransformT@M@2@PEAV32@PEAIV?$PxFlags@W4Enum@PxGeometryQueryFlag@physx@@I@2@@Z 000000018001d610 f   GuGeometryQuery.obj
 0001:0001cef0       ?populateVerts@?$SupportLocalImpl@VBoxV@Gu@physx@@@Gu@physx@@UEBAXPEBEIPEBV?$PxVec3T@M@3@PEAT__m128@@@Z 000000018001def0 f i GuGeometryQuery.obj
 0001:0001cf30       ?populateVerts@?$SupportLocalImpl@VConvexHullV@Gu@physx@@@Gu@physx@@UEBAXPEBEIPEBV?$PxVec3T@M@3@PEAT__m128@@@Z 000000018001df30 f i GuGeometryQuery.obj
 0001:0001cf90       ?raycast@PxGeometryQuery@physx@@SAIAEBV?$PxVec3T@M@2@0AEBVPxGeometry@2@AEBV?$PxTransformT@M@2@MV?$PxFlags@W4Enum@PxHitFlag@physx@@G@2@IPEIAUPxGeomRaycastHit@2@IV?$PxFlags@W4Enum@PxGeometryQueryFlag@physx@@I@2@PEAUPxQueryThreadContext@2@@Z 000000018001df90 f   GuGeometryQuery.obj
 0001:0001d270       ?reduceManifoldContactsInDifferentPatches@MultiplePersistentContactManifold@Gu@physx@@QEBAIPEAPEAUPCMContactPatch@23@IPEAVMeshPersistentContact@23@IAEBT__m128@@@Z 000000018001e270 f i GuGeometryQuery.obj
 0001:0001dbe0       ?refineContactPatchConnective@MultiplePersistentContactManifold@Gu@physx@@QEBAXPEAPEAUPCMContactPatch@23@IPEAVMeshPersistentContact@23@AEBT__m128@@@Z 000000018001ebe0 f i GuGeometryQuery.obj
 0001:0001dcd0       ?refreshManifold@MultiplePersistentContactManifold@Gu@physx@@QEAAXAEBVPxMatTransformV@aos@3@AEBT__m128@@1@Z 000000018001ecd0 f i GuGeometryQuery.obj
 0001:0001e700       ?setRelativeTransform@MultiplePersistentContactManifold@Gu@physx@@QEAAXAEBVPxTransformV@aos@3@@Z 000000018001f700 f i GuGeometryQuery.obj
 0001:0001e710       ?supportIndex@?$Convex@UConvexShape@Gu@physx@@@RefGjkEpa@Gu@physx@@QEAAEAEBV?$PxVec3T@M@4@@Z 000000018001f710 f i GuGeometryQuery.obj
 0001:0001ead0       ?supportLocal@ConvexShape@Gu@physx@@QEBA?AV?$PxVec3T@M@3@AEBV43@@Z 000000018001fad0 f i GuGeometryQuery.obj
 0001:0001eb80       ?supportVertexIndex@ConvexHullV@Gu@physx@@QEBAIAEBT__m128@@@Z 000000018001fb80 f i GuGeometryQuery.obj
 0001:0001ede0       ?sweep@PxGeometryQuery@physx@@SA_NAEBV?$PxVec3T@M@2@MAEBVPxGeometry@2@AEBV?$PxTransformT@M@2@12AEAUPxGeomSweepHit@2@V?$PxFlags@W4Enum@PxHitFlag@physx@@G@2@MV?$PxFlags@W4Enum@PxGeometryQueryFlag@physx@@I@2@PEAUPxQueryThreadContext@2@@Z 000000018001fde0 f   GuGeometryQuery.obj
 0001:0001f420       ?computeBoxPoints@Gu@physx@@YAXAEBVPxBounds3@2@PEIAV?$PxVec3T@M@2@@Z 0000000180020420 f   GuInternal.obj
 0001:0001f4c0       ?computeSweptBox@Gu@physx@@YAXAEAVBox@12@AEBV?$PxVec3T@M@2@1AEBV?$PxMat33T@M@2@1M@Z 00000001800204c0 f   GuInternal.obj
 0001:0001fa00       ?getPlane@Gu@physx@@YA?AVPxPlane@2@AEBV?$PxTransformT@M@2@@Z 0000000180020a00 f   GuInternal.obj
 0001:0001fab0       ??$copy@V?$PxReflectionAllocator@USlab@NodeAllocator@Gu@physx@@@physx@@@?$PxArray@USlab@NodeAllocator@Gu@physx@@V?$PxReflectionAllocator@USlab@NodeAllocator@Gu@physx@@@4@@physx@@IEAAXAEBV01@@Z 0000000180020ab0 f i GuMeshFactory.obj
 0001:0001fb80       ??0AABBTreeBuildNode@Gu@physx@@QEAA@AEBV012@@Z 0000000180020b80 f i GuMeshFactory.obj
 0001:0001fb80       ??4AABBTreeBuildNode@Gu@physx@@QEAAAEAV012@AEBV012@@Z 0000000180020b80 f i GuMeshFactory.obj
 0001:0001fbc0       ??0AABBTreeBuildParams@Gu@physx@@QEAA@IIPEBVAABBTreeBounds@12@W4BVHBuildStrategy@12@@Z 0000000180020bc0 f i GuMeshFactory.obj
 0001:0001fbe0       ??0DeformableVolumeCollisionData@Gu@physx@@QEAA@XZ 0000000180020be0 f i GuMeshFactory.obj
 0001:0001fc40       ??0MeshFactory@Gu@physx@@QEAA@XZ 0000000180020c40 f   GuMeshFactory.obj
 0001:0001fe40       ??0NodeAllocator@Gu@physx@@QEAA@AEBV012@@Z 0000000180020e40 f i GuMeshFactory.obj
 0001:0001fe80       ??0TriangleMeshData@Gu@physx@@QEAA@XZ 0000000180020e80 f i GuMeshFactory.obj
 0001:0001ffa0       ??1AABBTreeBounds@Gu@physx@@QEAA@XZ 0000000180020fa0 f i GuMeshFactory.obj
 0001:0001ffb0       ??1AABBTreeBuildParams@Gu@physx@@QEAA@XZ 0000000180020fb0 f i GuMeshFactory.obj
 0001:0001ffb0       ?reset@AABBTreeBuildParams@Gu@physx@@QEAAXXZ 0000000180020fb0 f i GuMeshFactory.obj
 0001:00020000       ??1CollisionMeshMappingData@Gu@physx@@UEAA@XZ 0000000180021000 f i GuMeshFactory.obj
 0001:00020160       ??1DeformableVolumeCollisionData@Gu@physx@@UEAA@XZ 0000000180021160 f i GuMeshFactory.obj
 0001:000202b0       ??1DeformableVolumeSimulationData@Gu@physx@@UEAA@XZ 00000001800212b0 f i GuMeshFactory.obj
 0001:000203f0       ??1MeshDataBase@Gu@physx@@UEAA@XZ 00000001800213f0 f i GuMeshFactory.obj
 0001:00020550       ??1MeshFactory@Gu@physx@@MEAA@XZ 0000000180021550 f   GuMeshFactory.obj
 0001:000206b0       ??1RTreeTriangleData@Gu@physx@@UEAA@XZ 00000001800216b0 f i GuMeshFactory.obj
 0001:00020720       ??1TetrahedronMeshData@Gu@physx@@QEAA@XZ 0000000180021720 f i GuMeshFactory.obj
 0001:000207b0       ??1TriangleMeshData@Gu@physx@@UEAA@XZ 00000001800217b0 f i GuMeshFactory.obj
 0001:000208f0       ??4NodeAllocator@Gu@physx@@QEAAAEAV012@AEBV012@@Z 00000001800218f0 f i GuMeshFactory.obj
 0001:000209a0       ??_EMeshFactory@Gu@physx@@MEAAPEAXI@Z 00000001800219a0 f i GuMeshFactory.obj
 0001:00020ac0       ??_FAABBTreeBuildParams@Gu@physx@@QEAAXXZ 0000000180021ac0 f i GuMeshFactory.obj
 0001:00020ae0       ??_EBV4TriangleData@Gu@physx@@UEAAPEAXI@Z 0000000180021ae0 f i GuMeshFactory.obj
 0001:00020ae0       ??_GBV4TriangleData@Gu@physx@@UEAAPEAXI@Z 0000000180021ae0 f i GuMeshFactory.obj
 0001:00020b70       ??_ECollisionMeshMappingData@Gu@physx@@UEAAPEAXI@Z 0000000180021b70 f i GuMeshFactory.obj
 0001:00020b70       ??_GCollisionMeshMappingData@Gu@physx@@UEAAPEAXI@Z 0000000180021b70 f i GuMeshFactory.obj
 0001:00020be0       ??_EDeformableVolumeCollisionData@Gu@physx@@UEAAPEAXI@Z 0000000180021be0 f i GuMeshFactory.obj
 0001:00020be0       ??_GDeformableVolumeCollisionData@Gu@physx@@UEAAPEAXI@Z 0000000180021be0 f i GuMeshFactory.obj
 0001:00020c50       ??_EDeformableVolumeSimulationData@Gu@physx@@UEAAPEAXI@Z 0000000180021c50 f i GuMeshFactory.obj
 0001:00020c50       ??_GDeformableVolumeSimulationData@Gu@physx@@UEAAPEAXI@Z 0000000180021c50 f i GuMeshFactory.obj
 0001:00020cc0       ??_EMeshDataBase@Gu@physx@@UEAAPEAXI@Z 0000000180021cc0 f i GuMeshFactory.obj
 0001:00020cc0       ??_GMeshDataBase@Gu@physx@@UEAAPEAXI@Z 0000000180021cc0 f i GuMeshFactory.obj
 0001:00020d30       ??_EPxCollisionMeshMappingData@physx@@UEAAPEAXI@Z 0000000180021d30 f i GuMeshFactory.obj
 0001:00020d30       ??_GPxCollisionMeshMappingData@physx@@UEAAPEAXI@Z 0000000180021d30 f i GuMeshFactory.obj
 0001:00020d90       ??_ECallbackRaycast@RTree@Gu@physx@@UEAAPEAXI@Z 0000000180021d90 f i GuMidphaseRTree.obj
 0001:00020d90       ??_ECallbackRefit@RTree@Gu@physx@@UEAAPEAXI@Z 0000000180021d90 f i GuTriangleMeshRTree.obj
 0001:00020d90       ??_EPxInsertionCallback@physx@@MEAAPEAXI@Z 0000000180021d90 f i GuMeshFactory.obj
 0001:00020d90       ??_GCallbackRaycast@RTree@Gu@physx@@UEAAPEAXI@Z 0000000180021d90 f i GuMidphaseRTree.obj
 0001:00020d90       ??_GCallbackRefit@RTree@Gu@physx@@UEAAPEAXI@Z 0000000180021d90 f i GuTriangleMeshRTree.obj
 0001:00020d90       ??_GPxInsertionCallback@physx@@MEAAPEAXI@Z 0000000180021d90 f i GuMeshFactory.obj
 0001:00020dc0       ??_ERTreeTriangleData@Gu@physx@@UEAAPEAXI@Z 0000000180021dc0 f i GuMeshFactory.obj
 0001:00020dc0       ??_GRTreeTriangleData@Gu@physx@@UEAAPEAXI@Z 0000000180021dc0 f i GuMeshFactory.obj
 0001:00020eb0       ??_ETriangleMeshData@Gu@physx@@UEAAPEAXI@Z 0000000180021eb0 f i GuMeshFactory.obj
 0001:00020eb0       ??_GTriangleMeshData@Gu@physx@@UEAAPEAXI@Z 0000000180021eb0 f i GuMeshFactory.obj
 0001:00020f20       ??_V@YAXPEAX_K@Z           0000000180021f20 f i LIBCMT:delete_array_size.obj
 0001:00020f20       ?__global_delete@@YAXPEAX_K@Z 0000000180021f20 f i GuMeshFactory.obj
 0001:00020f30       ?addBVH@MeshFactory@Gu@physx@@QEAAXPEAVBVH@23@_N@Z 0000000180021f30 f   GuMeshFactory.obj
 0001:00020fd0       ?addConvexMesh@MeshFactory@Gu@physx@@QEAAXPEAVConvexMesh@23@_N@Z 0000000180021fd0 f   GuMeshFactory.obj
 0001:00021070       ?addDeformableVolumeMesh@MeshFactory@Gu@physx@@QEAAXPEAVDeformableVolumeMesh@23@_N@Z 0000000180022070 f   GuMeshFactory.obj
 0001:00021110       ?addFactoryListener@MeshFactory@Gu@physx@@QEAAXAEAVMeshFactoryListener@23@@Z 0000000180022110 f   GuMeshFactory.obj
 0001:00021180       ?addHeightField@MeshFactory@Gu@physx@@QEAAXPEAVHeightField@23@_N@Z 0000000180022180 f   GuMeshFactory.obj
 0001:00021220       ?addTetrahedronMesh@MeshFactory@Gu@physx@@QEAAXPEAVTetrahedronMesh@23@_N@Z 0000000180022220 f   GuMeshFactory.obj
 0001:000212c0       ?addTriangleMesh@MeshFactory@Gu@physx@@QEAAXPEAVTriangleMesh@23@_N@Z 00000001800222c0 f   GuMeshFactory.obj
 0001:00021360       ?allocate@?$PxArray@USlab@NodeAllocator@Gu@physx@@V?$PxReflectionAllocator@USlab@NodeAllocator@Gu@physx@@@4@@physx@@IEAAPEAUSlab@NodeAllocator@Gu@2@IPEAI@Z 0000000180022360 f i GuMeshFactory.obj
 0001:00021410       ?allocateAdjacencies@TriangleMeshData@Gu@physx@@QEAAPEAIXZ 0000000180022410 f i GuMeshFactory.obj
 0001:00021480       ?allocateExtraTrigData@TriangleMeshData@Gu@physx@@QEAAPEAEXZ 0000000180022480 f i GuMeshFactory.obj
 0001:000214f0       ?allocateFaceRemap@TriangleMeshData@Gu@physx@@QEAAPEAIXZ 00000001800224f0 f i GuMeshFactory.obj
 0001:00021560       ?allocateGridModelData@DeformableVolumeSimulationData@Gu@physx@@QEAAXIIIIIII@Z 0000000180022560 f i GuMeshFactory.obj
 0001:000217e0       ?allocateMaterials@TetrahedronMeshData@Gu@physx@@QEAAPEAGXZ 00000001800227e0 f i GuMeshFactory.obj
 0001:00021850       ?allocateMaterials@TriangleMeshData@Gu@physx@@QEAAPEAGXZ 0000000180022850 f i GuMeshFactory.obj
 0001:000218c0       ?allocateTetrahedrons@TetrahedronMeshData@Gu@physx@@QEAAXII@Z 00000001800228c0 f i GuMeshFactory.obj
 0001:00021950       ?allocateTriangles@TriangleMeshData@Gu@physx@@QEAAPEAXI_NI@Z 0000000180022950 f i GuMeshFactory.obj
 0001:00021a40       ?allocateVertices@MeshDataBase@Gu@physx@@QEAAPEAV?$PxVec3T@M@3@I@Z 0000000180022a40 f i GuMeshFactory.obj
 0001:00021ab0       ?allocateVertices@TetrahedronMeshData@Gu@physx@@QEAAPEAV?$PxVec3T@M@3@II@Z 0000000180022ab0 f i GuMeshFactory.obj
 0001:00021b50       ?allocatemappingData@CollisionMeshMappingData@Gu@physx@@QEAAXIIII@Z 0000000180022b50 f i GuMeshFactory.obj
 0001:000221a0       ?create@?$PxHashBase@PEAVBVH@Gu@physx@@PEAV123@U?$PxHash@PEAVBVH@Gu@physx@@@3@UGetKey@?$PxHashSetBase@PEAVBVH@Gu@physx@@U?$PxHash@PEAVBVH@Gu@physx@@@3@VPxAllocator@3@$00@3@VPxAllocator@3@$00@physx@@QEAAPEAPEAVBVH@Gu@2@AEBQEAV342@AEA_N@Z 00000001800231a0 f i GuMeshFactory.obj
 0001:000221a0       ?create@?$PxHashBase@PEAVConvexMesh@Gu@physx@@PEAV123@U?$PxHash@PEAVConvexMesh@Gu@physx@@@3@UGetKey@?$PxHashSetBase@PEAVConvexMesh@Gu@physx@@U?$PxHash@PEAVConvexMesh@Gu@physx@@@3@VPxAllocator@3@$00@3@VPxAllocator@3@$00@physx@@QEAAPEAPEAVConvexMesh@Gu@2@AEBQEAV342@AEA_N@Z 00000001800231a0 f i GuMeshFactory.obj
 0001:000221a0       ?create@?$PxHashBase@PEAVDeformableVolumeMesh@Gu@physx@@PEAV123@U?$PxHash@PEAVDeformableVolumeMesh@Gu@physx@@@3@UGetKey@?$PxHashSetBase@PEAVDeformableVolumeMesh@Gu@physx@@U?$PxHash@PEAVDeformableVolumeMesh@Gu@physx@@@3@VPxAllocator@3@$00@3@VPxAllocator@3@$00@physx@@QEAAPEAPEAVDeformableVolumeMesh@Gu@2@AEBQEAV342@AEA_N@Z 00000001800231a0 f i GuMeshFactory.obj
 0001:000221a0       ?create@?$PxHashBase@PEAVHeightField@Gu@physx@@PEAV123@U?$PxHash@PEAVHeightField@Gu@physx@@@3@UGetKey@?$PxHashSetBase@PEAVHeightField@Gu@physx@@U?$PxHash@PEAVHeightField@Gu@physx@@@3@VPxAllocator@3@$00@3@VPxAllocator@3@$00@physx@@QEAAPEAPEAVHeightField@Gu@2@AEBQEAV342@AEA_N@Z 00000001800231a0 f i GuMeshFactory.obj
 0001:000221a0       ?create@?$PxHashBase@PEAVTetrahedronMesh@Gu@physx@@PEAV123@U?$PxHash@PEAVTetrahedronMesh@Gu@physx@@@3@UGetKey@?$PxHashSetBase@PEAVTetrahedronMesh@Gu@physx@@U?$PxHash@PEAVTetrahedronMesh@Gu@physx@@@3@VPxAllocator@3@$00@3@VPxAllocator@3@$00@physx@@QEAAPEAPEAVTetrahedronMesh@Gu@2@AEBQEAV342@AEA_N@Z 00000001800231a0 f i GuMeshFactory.obj
 0001:000221a0       ?create@?$PxHashBase@PEAVTriangleMesh@Gu@physx@@PEAV123@U?$PxHash@PEAVTriangleMesh@Gu@physx@@@3@UGetKey@?$PxHashSetBase@PEAVTriangleMesh@Gu@physx@@U?$PxHash@PEAVTriangleMesh@Gu@physx@@@3@VPxAllocator@3@$00@3@VPxAllocator@3@$00@physx@@QEAAPEAPEAVTriangleMesh@Gu@2@AEBQEAV342@AEA_N@Z 00000001800231a0 f i GuMeshFactory.obj
 0001:00022330       ?createBVH@MeshFactory@Gu@physx@@IEAAPEAVPxBVH@3@AEAVBVHData@23@@Z 0000000180023330 f   GuMeshFactory.obj
 0001:00022490       ?createBVH@MeshFactory@Gu@physx@@QEAAPEAVPxBVH@3@AEAVPxInputStream@3@@Z 0000000180023490 f   GuMeshFactory.obj
 0001:00022610       ?createBVH@MeshFactory@Gu@physx@@QEAAPEAVPxBVH@3@PEAX@Z 0000000180023610 f   GuMeshFactory.obj
 0001:00022620       ?createConvexMesh@MeshFactory@Gu@physx@@IEAAPEAVPxConvexMesh@3@AEAUConvexHullInitData@23@@Z 0000000180023620 f   GuMeshFactory.obj
 0001:00022770       ?createConvexMesh@MeshFactory@Gu@physx@@QEAAPEAVPxConvexMesh@3@AEAVPxInputStream@3@@Z 0000000180023770 f   GuMeshFactory.obj
 0001:000228d0       ?createConvexMesh@MeshFactory@Gu@physx@@QEAAPEAVPxConvexMesh@3@PEAX@Z 00000001800238d0 f   GuMeshFactory.obj
 0001:000228e0       ?createDeformableVolumeMesh@MeshFactory@Gu@physx@@IEAAPEAVPxDeformableVolumeMesh@3@AEAVDeformableVolumeMeshData@23@@Z 00000001800238e0 f   GuMeshFactory.obj
 0001:00022a20       ?createDeformableVolumeMesh@MeshFactory@Gu@physx@@QEAAPEAVPxDeformableVolumeMesh@3@AEAVPxInputStream@3@@Z 0000000180023a20 f   GuMeshFactory.obj
 0001:00023070       ?createDeformableVolumeMesh@MeshFactory@Gu@physx@@QEAAPEAVPxDeformableVolumeMesh@3@PEAX@Z 0000000180024070 f   GuMeshFactory.obj
 0001:00023080       ?createHeightField@MeshFactory@Gu@physx@@QEAAPEAVPxHeightField@3@AEAVPxInputStream@3@@Z 0000000180024080 f   GuMeshFactory.obj
 0001:00023200       ?createHeightField@MeshFactory@Gu@physx@@QEAAPEAVPxHeightField@3@PEAX@Z 0000000180024200 f   GuMeshFactory.obj
 0001:00023360       ?createTetrahedronMesh@MeshFactory@Gu@physx@@IEAAPEAVPxTetrahedronMesh@3@AEAVTetrahedronMeshData@23@@Z 0000000180024360 f   GuMeshFactory.obj
 0001:000234b0       ?createTetrahedronMesh@MeshFactory@Gu@physx@@QEAAPEAVPxTetrahedronMesh@3@AEAVPxInputStream@3@@Z 00000001800244b0 f   GuMeshFactory.obj
 0001:00023520       ?createTetrahedronMesh@MeshFactory@Gu@physx@@QEAAPEAVPxTetrahedronMesh@3@PEAX@Z 0000000180024520 f   GuMeshFactory.obj
 0001:00023530       ?createTriangleMesh@MeshFactory@Gu@physx@@IEAAPEAVPxTriangleMesh@3@AEAVTriangleMeshData@23@@Z 0000000180024530 f   GuMeshFactory.obj
 0001:00023720       ?createTriangleMesh@MeshFactory@Gu@physx@@QEAAPEAVPxTriangleMesh@3@AEAVPxInputStream@3@@Z 0000000180024720 f   GuMeshFactory.obj
 0001:00023780       ?createTriangleMesh@MeshFactory@Gu@physx@@QEAAPEAVPxTriangleMesh@3@PEAX@Z 0000000180024780 f   GuMeshFactory.obj
 0001:00023790       ?erase@?$PxHashBase@PEAVBVH@Gu@physx@@PEAV123@U?$PxHash@PEAVBVH@Gu@physx@@@3@UGetKey@?$PxHashSetBase@PEAVBVH@Gu@physx@@U?$PxHash@PEAVBVH@Gu@physx@@@3@VPxAllocator@3@$00@3@VPxAllocator@3@$00@physx@@QEAA_NAEBQEAVBVH@Gu@2@@Z 0000000180024790 f i GuMeshFactory.obj
 0001:00023790       ?erase@?$PxHashBase@PEAVConvexMesh@Gu@physx@@PEAV123@U?$PxHash@PEAVConvexMesh@Gu@physx@@@3@UGetKey@?$PxHashSetBase@PEAVConvexMesh@Gu@physx@@U?$PxHash@PEAVConvexMesh@Gu@physx@@@3@VPxAllocator@3@$00@3@VPxAllocator@3@$00@physx@@QEAA_NAEBQEAVConvexMesh@Gu@2@@Z 0000000180024790 f i GuMeshFactory.obj
 0001:00023790       ?erase@?$PxHashBase@PEAVDeformableVolumeMesh@Gu@physx@@PEAV123@U?$PxHash@PEAVDeformableVolumeMesh@Gu@physx@@@3@UGetKey@?$PxHashSetBase@PEAVDeformableVolumeMesh@Gu@physx@@U?$PxHash@PEAVDeformableVolumeMesh@Gu@physx@@@3@VPxAllocator@3@$00@3@VPxAllocator@3@$00@physx@@QEAA_NAEBQEAVDeformableVolumeMesh@Gu@2@@Z 0000000180024790 f i GuMeshFactory.obj
 0001:00023790       ?erase@?$PxHashBase@PEAVHeightField@Gu@physx@@PEAV123@U?$PxHash@PEAVHeightField@Gu@physx@@@3@UGetKey@?$PxHashSetBase@PEAVHeightField@Gu@physx@@U?$PxHash@PEAVHeightField@Gu@physx@@@3@VPxAllocator@3@$00@3@VPxAllocator@3@$00@physx@@QEAA_NAEBQEAVHeightField@Gu@2@@Z 0000000180024790 f i GuMeshFactory.obj
 0001:00023790       ?erase@?$PxHashBase@PEAVTetrahedronMesh@Gu@physx@@PEAV123@U?$PxHash@PEAVTetrahedronMesh@Gu@physx@@@3@UGetKey@?$PxHashSetBase@PEAVTetrahedronMesh@Gu@physx@@U?$PxHash@PEAVTetrahedronMesh@Gu@physx@@@3@VPxAllocator@3@$00@3@VPxAllocator@3@$00@physx@@QEAA_NAEBQEAVTetrahedronMesh@Gu@2@@Z 0000000180024790 f i GuMeshFactory.obj
 0001:00023790       ?erase@?$PxHashBase@PEAVTriangleMesh@Gu@physx@@PEAV123@U?$PxHash@PEAVTriangleMesh@Gu@physx@@@3@UGetKey@?$PxHashSetBase@PEAVTriangleMesh@Gu@physx@@U?$PxHash@PEAVTriangleMesh@Gu@physx@@@3@VPxAllocator@3@$00@3@VPxAllocator@3@$00@physx@@QEAA_NAEBQEAVTriangleMesh@Gu@2@@Z 0000000180024790 f i GuMeshFactory.obj
 0001:00023910       ?getBVHs@MeshFactory@Gu@physx@@QEBAIPEAPEAVPxBVH@3@II@Z 0000000180024910 f   GuMeshFactory.obj
 0001:000239e0       ?getBounds@AABBTreeBounds@Gu@physx@@QEAAPEAVPxBounds3@3@XZ 00000001800249e0 f i GuMeshFactory.obj
 0001:000239e0       ?getBounds@AABBTreeBounds@Gu@physx@@QEBAPEBVPxBounds3@3@XZ 00000001800249e0 f i GuMeshFactory.obj
 0001:000239f0       ?getConvexMeshes@MeshFactory@Gu@physx@@QEBAIPEAPEAVPxConvexMesh@3@II@Z 00000001800249f0 f   GuMeshFactory.obj
 0001:00023ac0       ?getDeformableVolumeMeshes@MeshFactory@Gu@physx@@QEBAIPEAPEAVPxDeformableVolumeMesh@3@II@Z 0000000180024ac0 f   GuMeshFactory.obj
 0001:00023b90       ?getHeightFields@MeshFactory@Gu@physx@@QEBAIPEAPEAVPxHeightField@3@II@Z 0000000180024b90 f   GuMeshFactory.obj
 0001:00023c60       ?getNbBVHs@MeshFactory@Gu@physx@@QEBAIXZ 0000000180024c60 f   GuMeshFactory.obj
 0001:00023ca0       ?getNbConvexMeshes@MeshFactory@Gu@physx@@QEBAIXZ 0000000180024ca0 f   GuMeshFactory.obj
 0001:00023ce0       ?getNbDeformableVolumeMeshes@MeshFactory@Gu@physx@@QEBAIXZ 0000000180024ce0 f   GuMeshFactory.obj
 0001:00023d20       ?getNbHeightFields@MeshFactory@Gu@physx@@QEBAIXZ 0000000180024d20 f   GuMeshFactory.obj
 0001:00023d60       ?getNbPrimitives@AABBTreeBuildNode@Gu@physx@@QEBAIXZ 0000000180024d60 f i GuMeshFactory.obj
 0001:00023d60       ?getNbRuntimePrimitives@AABBTreeBuildNode@Gu@physx@@QEBAIXZ 0000000180024d60 f i GuMeshFactory.obj
 0001:00023d70       ?getNbTetrahedronMeshes@MeshFactory@Gu@physx@@QEBAIXZ 0000000180024d70 f   GuMeshFactory.obj
 0001:00023db0       ?getNbTriangleMeshes@MeshFactory@Gu@physx@@QEBAIXZ 0000000180024db0 f   GuMeshFactory.obj
 0001:00023df0       ?getNeg@AABBTreeBuildNode@Gu@physx@@QEBAPEBV123@XZ 0000000180024df0 f i GuMeshFactory.obj
 0001:00023e10       ?getPrimitives@AABBTreeBuildNode@Gu@physx@@QEAAPEAIPEAI@Z 0000000180024e10 f i GuMeshFactory.obj
 0001:00023e10       ?getPrimitives@AABBTreeBuildNode@Gu@physx@@QEBAPEBIPEBI@Z 0000000180024e10 f i GuMeshFactory.obj
 0001:00023e20       ?getTetrahedronMeshes@MeshFactory@Gu@physx@@QEBAIPEAPEAVPxTetrahedronMesh@3@II@Z 0000000180024e20 f   GuMeshFactory.obj
 0001:00023ef0       ?getTriangleMeshes@MeshFactory@Gu@physx@@QEBAIPEAPEAVPxTriangleMesh@3@II@Z 0000000180024ef0 f   GuMeshFactory.obj
 0001:00023fc0       ?growAndPushBack@?$PxArray@PEAVMeshFactoryListener@Gu@physx@@V?$PxReflectionAllocator@PEAVMeshFactoryListener@Gu@physx@@@3@@physx@@IEAAAEAPEAVMeshFactoryListener@Gu@2@AEBQEAV342@@Z 0000000180024fc0 f i GuMeshFactory.obj
 0001:00024100       ?isLeaf@AABBTreeBuildNode@Gu@physx@@QEBA_NXZ 0000000180025100 f i GuMeshFactory.obj
 0001:00025d50       ?moveFrom@AABBTreeBounds@Gu@physx@@QEAAXAEAV123@@Z 0000000180026d50 f i GuMeshFactory.obj
 0001:00025d60       ?notifyFactoryListener@MeshFactory@Gu@physx@@QEAAXPEBVPxBase@3@G@Z 0000000180026d60 f   GuMeshFactory.obj
 0001:00025dd0       ?notifyListenersAdd@MeshFactory@Gu@physx@@IEAAXPEBVPxBase@3@@Z 0000000180026dd0 f   GuMeshFactory.obj
 0001:00025e20       ?notifyListenersRemove@MeshFactory@Gu@physx@@IEAAXPEBVPxBase@3@@Z 0000000180026e20 f   GuMeshFactory.obj
 0001:00025e70       ?ownsMemory@AABBTreeBounds@Gu@physx@@QEBA_NXZ 0000000180026e70 f i GuMeshFactory.obj
 0001:00026150       ?recreate@?$PxArray@USlab@NodeAllocator@Gu@physx@@V?$PxReflectionAllocator@USlab@NodeAllocator@Gu@physx@@@4@@physx@@IEAAXI@Z 0000000180027150 f i GuMeshFactory.obj
 0001:00026260       ?release@CollisionMeshMappingData@Gu@physx@@UEAAXXZ 0000000180027260 f i GuMeshFactory.obj
 0001:00026280       ?release@MeshFactory@Gu@physx@@QEAAXXZ 0000000180027280 f   GuMeshFactory.obj
 0001:00026380       ?remove@MeshFactory@Gu@physx@@QEAA_NAEAVPxBase@3@@Z 0000000180027380 f   GuMeshFactory.obj
 0001:000263d0       ?removeBVH@MeshFactory@Gu@physx@@QEAA_NAEAVPxBVH@3@@Z 00000001800273d0 f   GuMeshFactory.obj
 0001:00026460       ?removeConvexMesh@MeshFactory@Gu@physx@@QEAA_NAEAVPxConvexMesh@3@@Z 0000000180027460 f   GuMeshFactory.obj
 0001:000264f0       ?removeDeformableVolumeMesh@MeshFactory@Gu@physx@@QEAA_NAEAVPxDeformableVolumeMesh@3@@Z 00000001800274f0 f   GuMeshFactory.obj
 0001:00026580       ?removeFactoryListener@MeshFactory@Gu@physx@@QEAAXAEAVMeshFactoryListener@23@@Z 0000000180027580 f   GuMeshFactory.obj
 0001:00026600       ?removeHeightField@MeshFactory@Gu@physx@@QEAA_NAEAVPxHeightField@3@@Z 0000000180027600 f   GuMeshFactory.obj
 0001:00026690       ?removeTetrahedronMesh@MeshFactory@Gu@physx@@QEAA_NAEAVPxTetrahedronMesh@3@@Z 0000000180027690 f   GuMeshFactory.obj
 0001:00026720       ?removeTriangleMesh@MeshFactory@Gu@physx@@QEAA_NAEAVPxTriangleMesh@3@@Z 0000000180027720 f   GuMeshFactory.obj
 0001:000267b0       ?reserveInternal@?$PxHashBase@PEAVBVH@Gu@physx@@PEAV123@U?$PxHash@PEAVBVH@Gu@physx@@@3@UGetKey@?$PxHashSetBase@PEAVBVH@Gu@physx@@U?$PxHash@PEAVBVH@Gu@physx@@@3@VPxAllocator@3@$00@3@VPxAllocator@3@$00@physx@@AEAAXI@Z 00000001800277b0 f i GuMeshFactory.obj
 0001:000267b0       ?reserveInternal@?$PxHashBase@PEAVConvexMesh@Gu@physx@@PEAV123@U?$PxHash@PEAVConvexMesh@Gu@physx@@@3@UGetKey@?$PxHashSetBase@PEAVConvexMesh@Gu@physx@@U?$PxHash@PEAVConvexMesh@Gu@physx@@@3@VPxAllocator@3@$00@3@VPxAllocator@3@$00@physx@@AEAAXI@Z 00000001800277b0 f i GuMeshFactory.obj
 0001:000267b0       ?reserveInternal@?$PxHashBase@PEAVDeformableVolumeMesh@Gu@physx@@PEAV123@U?$PxHash@PEAVDeformableVolumeMesh@Gu@physx@@@3@UGetKey@?$PxHashSetBase@PEAVDeformableVolumeMesh@Gu@physx@@U?$PxHash@PEAVDeformableVolumeMesh@Gu@physx@@@3@VPxAllocator@3@$00@3@VPxAllocator@3@$00@physx@@AEAAXI@Z 00000001800277b0 f i GuMeshFactory.obj
 0001:000267b0       ?reserveInternal@?$PxHashBase@PEAVHeightField@Gu@physx@@PEAV123@U?$PxHash@PEAVHeightField@Gu@physx@@@3@UGetKey@?$PxHashSetBase@PEAVHeightField@Gu@physx@@U?$PxHash@PEAVHeightField@Gu@physx@@@3@VPxAllocator@3@$00@3@VPxAllocator@3@$00@physx@@AEAAXI@Z 00000001800277b0 f i GuMeshFactory.obj
 0001:000267b0       ?reserveInternal@?$PxHashBase@PEAVTetrahedronMesh@Gu@physx@@PEAV123@U?$PxHash@PEAVTetrahedronMesh@Gu@physx@@@3@UGetKey@?$PxHashSetBase@PEAVTetrahedronMesh@Gu@physx@@U?$PxHash@PEAVTetrahedronMesh@Gu@physx@@@3@VPxAllocator@3@$00@3@VPxAllocator@3@$00@physx@@AEAAXI@Z 00000001800277b0 f i GuMeshFactory.obj
 0001:000267b0       ?reserveInternal@?$PxHashBase@PEAVTriangleMesh@Gu@physx@@PEAV123@U?$PxHash@PEAVTriangleMesh@Gu@physx@@@3@UGetKey@?$PxHashSetBase@PEAVTriangleMesh@Gu@physx@@U?$PxHash@PEAVTriangleMesh@Gu@physx@@@3@VPxAllocator@3@$00@3@VPxAllocator@3@$00@physx@@AEAAXI@Z 00000001800277b0 f i GuMeshFactory.obj
 0001:00026980       ?setBounds@AABBTreeBounds@Gu@physx@@QEAAXPEAVPxBounds3@3@@Z 0000000180027980 f i GuMeshFactory.obj
 0001:00026990       ?setNbRunTimePrimitives@AABBTreeBuildNode@Gu@physx@@QEAAXI@Z 0000000180027990 f i GuMeshFactory.obj
 0001:000269a0       ?takeOwnership@AABBTreeBounds@Gu@physx@@QEAAXXZ 00000001800279a0 f i GuMeshFactory.obj
 0001:000269b0       getInsertionCallback       00000001800279b0 f   GuMeshFactory.obj
 0001:000269c0       ?getInternalData@TriangleMesh@Gu@physx@@UEBA_NAEAUPxTriangleMeshInternalData@3@_N@Z 00000001800279c0 f   GuTriangleMesh.obj
 0001:000269c0       ?isDynamic@Pruner@Gu@physx@@UEBA_NXZ 00000001800279c0 f   GuIncrementalAABBPruner.obj
 0001:000283c0       ??$gjk@U?$LocalConvex@VCapsuleV@Gu@physx@@@Gu@physx@@U?$LocalConvex@VConvexHullV@Gu@physx@@@23@@Gu@physx@@YA?AW4GjkStatus@01@AEBU?$LocalConvex@VCapsuleV@Gu@physx@@@01@AEBU?$LocalConvex@VConvexHullV@Gu@physx@@@01@AEBT__m128@@2AEAT5@333@Z 00000001800293c0 f i GuMTD.obj
 0001:00029030       ??_E?$LocalConvex@UCustomConvexV@@@Gu@physx@@UEAAPEAXI@Z 000000018002a030 f i GuGjkQuery.obj
 0001:00029030       ??_E?$LocalConvex@UPointConvexV@@@Gu@physx@@UEAAPEAXI@Z 000000018002a030 f i GuGjkQuery.obj
 0001:00029030       ??_E?$LocalConvex@VBoxV@Gu@physx@@@Gu@physx@@UEAAPEAXI@Z 000000018002a030 f i GuSweepTests.obj
 0001:00029030       ??_E?$LocalConvex@VCapsuleV@Gu@physx@@@Gu@physx@@UEAAPEAXI@Z 000000018002a030 f i GuMTD.obj
 0001:00029030       ??_E?$LocalConvex@VConvexHullNoScaleV@Gu@physx@@@Gu@physx@@UEAAPEAXI@Z 000000018002a030 f i GuPCMContactBoxConvex.obj
 0001:00029030       ??_E?$LocalConvex@VConvexHullV@Gu@physx@@@Gu@physx@@UEAAPEAXI@Z 000000018002a030 f i GuMTD.obj
 0001:00029030       ??_E?$LocalConvex@VTetrahedronV@Gu@physx@@@Gu@physx@@UEAAPEAXI@Z 000000018002a030 f i GuCookingTetrahedronMesh.obj
 0001:00029030       ??_E?$LocalConvex@VTriangleV@Gu@physx@@@Gu@physx@@UEAAPEAXI@Z 000000018002a030 f i GuSweepTests.obj
 0001:00029030       ??_EGjkConvex@Gu@physx@@UEAAPEAXI@Z 000000018002a030 f i GuMTD.obj
 0001:00029030       ??_G?$LocalConvex@UCustomConvexV@@@Gu@physx@@UEAAPEAXI@Z 000000018002a030 f i GuGjkQuery.obj
 0001:00029030       ??_G?$LocalConvex@UPointConvexV@@@Gu@physx@@UEAAPEAXI@Z 000000018002a030 f i GuGjkQuery.obj
 0001:00029030       ??_G?$LocalConvex@VBoxV@Gu@physx@@@Gu@physx@@UEAAPEAXI@Z 000000018002a030 f i GuSweepTests.obj
 0001:00029030       ??_G?$LocalConvex@VCapsuleV@Gu@physx@@@Gu@physx@@UEAAPEAXI@Z 000000018002a030 f i GuMTD.obj
 0001:00029030       ??_G?$LocalConvex@VConvexHullNoScaleV@Gu@physx@@@Gu@physx@@UEAAPEAXI@Z 000000018002a030 f i GuPCMContactBoxConvex.obj
 0001:00029030       ??_G?$LocalConvex@VConvexHullV@Gu@physx@@@Gu@physx@@UEAAPEAXI@Z 000000018002a030 f i GuMTD.obj
 0001:00029030       ??_G?$LocalConvex@VTetrahedronV@Gu@physx@@@Gu@physx@@UEAAPEAXI@Z 000000018002a030 f i GuCookingTetrahedronMesh.obj
 0001:00029030       ??_G?$LocalConvex@VTriangleV@Gu@physx@@@Gu@physx@@UEAAPEAXI@Z 000000018002a030 f i GuSweepTests.obj
 0001:00029030       ??_GGjkConvex@Gu@physx@@UEAAPEAXI@Z 000000018002a030 f i GuMTD.obj
 0001:0002d870       ?doSupport@?$SupportLocalImpl@VConvexHullNoScaleV@Gu@physx@@@Gu@physx@@UEBA?AT__m128@@AEBT4@@Z 000000018002e870 f i GuMTD.obj
 0001:0002d8c0       ?doSupport@?$SupportLocalImpl@VConvexHullNoScaleV@Gu@physx@@@Gu@physx@@UEBAXAEBT__m128@@AEAT4@1@Z 000000018002e8c0 f i GuMTD.obj
 0001:0002da50       ?getCenter@?$LocalConvex@UCustomConvexV@@@Gu@physx@@UEBA?AT__m128@@XZ 000000018002ea50 f i GuGjkQuery.obj
 0001:0002da50       ?getCenter@?$LocalConvex@UPointConvexV@@@Gu@physx@@UEBA?AT__m128@@XZ 000000018002ea50 f i GuGjkQuery.obj
 0001:0002da50       ?getCenter@?$LocalConvex@VBoxV@Gu@physx@@@Gu@physx@@UEBA?AT__m128@@XZ 000000018002ea50 f i GuSweepTests.obj
 0001:0002da50       ?getCenter@?$LocalConvex@VCapsuleV@Gu@physx@@@Gu@physx@@UEBA?AT__m128@@XZ 000000018002ea50 f i GuMTD.obj
 0001:0002da50       ?getCenter@?$LocalConvex@VConvexHullNoScaleV@Gu@physx@@@Gu@physx@@UEBA?AT__m128@@XZ 000000018002ea50 f i GuPCMContactBoxConvex.obj
 0001:0002da50       ?getCenter@?$LocalConvex@VConvexHullV@Gu@physx@@@Gu@physx@@UEBA?AT__m128@@XZ 000000018002ea50 f i GuMTD.obj
 0001:0002da50       ?getCenter@?$LocalConvex@VTetrahedronV@Gu@physx@@@Gu@physx@@UEBA?AT__m128@@XZ 000000018002ea50 f i GuCookingTetrahedronMesh.obj
 0001:0002da50       ?getCenter@?$LocalConvex@VTriangleV@Gu@physx@@@Gu@physx@@UEBA?AT__m128@@XZ 000000018002ea50 f i GuSweepTests.obj
 0001:0002da60       ?getSweepMargin@?$LocalConvex@VCapsuleV@Gu@physx@@@Gu@physx@@UEBA?AT__m128@@XZ 000000018002ea60 f i GuMTD.obj
 0001:0002da60       ?getSweepMargin@?$RelativeConvex@VCapsuleV@Gu@physx@@@Gu@physx@@UEBA?AT__m128@@XZ 000000018002ea60 f i GuCCDSweepPrimitives.obj
 0001:0002da70       ?getSweepMargin@?$LocalConvex@UCustomConvexV@@@Gu@physx@@UEBA?AT__m128@@XZ 000000018002ea70 f i GuGjkQuery.obj
 0001:0002da70       ?getSweepMargin@?$LocalConvex@UPointConvexV@@@Gu@physx@@UEBA?AT__m128@@XZ 000000018002ea70 f i GuGjkQuery.obj
 0001:0002da70       ?getSweepMargin@?$LocalConvex@VBoxV@Gu@physx@@@Gu@physx@@UEBA?AT__m128@@XZ 000000018002ea70 f i GuSweepTests.obj
 0001:0002da70       ?getSweepMargin@?$LocalConvex@VConvexHullNoScaleV@Gu@physx@@@Gu@physx@@UEBA?AT__m128@@XZ 000000018002ea70 f i GuPCMContactBoxConvex.obj
 0001:0002da70       ?getSweepMargin@?$LocalConvex@VConvexHullV@Gu@physx@@@Gu@physx@@UEBA?AT__m128@@XZ 000000018002ea70 f i GuMTD.obj
 0001:0002da70       ?getSweepMargin@?$RelativeConvex@UCustomConvexV@@@Gu@physx@@UEBA?AT__m128@@XZ 000000018002ea70 f i GuGjkQuery.obj
 0001:0002da70       ?getSweepMargin@?$RelativeConvex@VBoxV@Gu@physx@@@Gu@physx@@UEBA?AT__m128@@XZ 000000018002ea70 f i GuOverlapTests.obj
 0001:0002da70       ?getSweepMargin@?$RelativeConvex@VConvexHullNoScaleV@Gu@physx@@@Gu@physx@@UEBA?AT__m128@@XZ 000000018002ea70 f i GuPCMContactConvexConvex.obj
 0001:0002da70       ?getSweepMargin@?$RelativeConvex@VConvexHullV@Gu@physx@@@Gu@physx@@UEBA?AT__m128@@XZ 000000018002ea70 f i GuOverlapTests.obj
 0001:0002da90       ?getSweepMargin@GjkConvex@Gu@physx@@UEBA?AT__m128@@XZ 000000018002ea90 f i GuMTD.obj
 0001:0002dab0       ?pointConvexDistance@@YA_NAEAV?$PxVec3T@M@physx@@0AEAMAEBV12@PEBVConvexMesh@Gu@2@AEBVPxMeshScale@2@AEBUPxTransformPadded@2@@Z 000000018002eab0 f   GuMTD.obj
 0001:0002e470       ?populateVerts@?$SupportLocalImpl@VConvexHullNoScaleV@Gu@physx@@@Gu@physx@@UEBAXPEBEIPEBV?$PxVec3T@M@3@PEAT__m128@@@Z 000000018002f470 f i GuMTD.obj
 0001:0002e860       ?support@?$LocalConvex@VCapsuleV@Gu@physx@@@Gu@physx@@UEBA?AT__m128@@AEBT4@@Z 000000018002f860 f i GuMTD.obj
 0001:0002e8c0       ?support@?$LocalConvex@VCapsuleV@Gu@physx@@@Gu@physx@@UEBA?AT__m128@@AEBT4@AEAH@Z 000000018002f8c0 f i GuMTD.obj
 0001:0002e930       ?support@?$LocalConvex@VConvexHullV@Gu@physx@@@Gu@physx@@UEBA?AT__m128@@AEBT4@@Z 000000018002f930 f i GuMTD.obj
 0001:0002ea10       ?support@?$LocalConvex@VConvexHullV@Gu@physx@@@Gu@physx@@UEBA?AT__m128@@AEBT4@AEAH@Z 000000018002fa10 f i GuMTD.obj
 0001:0002eae0       ?support@GjkConvex@Gu@physx@@UEBA?AT__m128@@AEBT4@@Z 000000018002fae0 f i GuMTD.obj
 0001:0002eb00       ?support@GjkConvex@Gu@physx@@UEBA?AT__m128@@AEBT4@AEAH@Z 000000018002fb00 f i GuMTD.obj
 0001:0002eb20       ?supportPoint@?$LocalConvex@VCapsuleV@Gu@physx@@@Gu@physx@@UEBA?AT__m128@@H@Z 000000018002fb20 f i GuMTD.obj
 0001:0002eb50       ?supportPoint@?$LocalConvex@VConvexHullV@Gu@physx@@@Gu@physx@@UEBA?AT__m128@@H@Z 000000018002fb50 f i GuMTD.obj
 0001:0002eba0       ?supportPoint@GjkConvex@Gu@physx@@UEBA?AT__m128@@H@Z 000000018002fba0 f i GuMTD.obj
 0001:00030f40       ?GeomOverlapCallback_ConvexCoreHeightfield@@YA_NAEBVPxGeometry@physx@@AEBV?$PxTransformT@M@2@01PEAUTriggerCache@Gu@2@PEAUPxQueryThreadContext@2@@Z 0000000180031f40 f   GuOverlapTests.obj
 0001:00031050       ??$gjk@U?$RelativeConvex@VBoxV@Gu@physx@@@Gu@physx@@U?$LocalConvex@VConvexHullV@Gu@physx@@@23@@Gu@physx@@YA?AW4GjkStatus@01@AEBU?$RelativeConvex@VBoxV@Gu@physx@@@01@AEBU?$LocalConvex@VConvexHullV@Gu@physx@@@01@AEBT__m128@@2AEAT5@333@Z 0000000180032050 f i GuOverlapTests.obj
 0001:00031d00       ??$gjk@U?$RelativeConvex@VConvexHullV@Gu@physx@@@Gu@physx@@U?$LocalConvex@VConvexHullV@Gu@physx@@@23@@Gu@physx@@YA?AW4GjkStatus@01@AEBU?$RelativeConvex@VConvexHullV@Gu@physx@@@01@AEBU?$LocalConvex@VConvexHullV@Gu@physx@@@01@AEBT__m128@@2AEAT5@333@Z 0000000180032d00 f i GuOverlapTests.obj
 0001:00032a20       ??_E?$RelativeConvex@UCustomConvexV@@@Gu@physx@@UEAAPEAXI@Z 0000000180033a20 f i GuGjkQuery.obj
 0001:00032a20       ??_E?$RelativeConvex@VBoxV@Gu@physx@@@Gu@physx@@UEAAPEAXI@Z 0000000180033a20 f i GuOverlapTests.obj
 0001:00032a20       ??_E?$RelativeConvex@VCapsuleV@Gu@physx@@@Gu@physx@@UEAAPEAXI@Z 0000000180033a20 f i GuCCDSweepPrimitives.obj
 0001:00032a20       ??_E?$RelativeConvex@VConvexHullNoScaleV@Gu@physx@@@Gu@physx@@UEAAPEAXI@Z 0000000180033a20 f i GuPCMContactConvexConvex.obj
 0001:00032a20       ??_E?$RelativeConvex@VConvexHullV@Gu@physx@@@Gu@physx@@UEAAPEAXI@Z 0000000180033a20 f i GuOverlapTests.obj
 0001:00032a20       ??_E?$RelativeConvex@VTriangleV@Gu@physx@@@Gu@physx@@UEAAPEAXI@Z 0000000180033a20 f i GuCCDSweepPrimitives.obj
 0001:00032a20       ??_G?$RelativeConvex@UCustomConvexV@@@Gu@physx@@UEAAPEAXI@Z 0000000180033a20 f i GuGjkQuery.obj
 0001:00032a20       ??_G?$RelativeConvex@VBoxV@Gu@physx@@@Gu@physx@@UEAAPEAXI@Z 0000000180033a20 f i GuOverlapTests.obj
 0001:00032a20       ??_G?$RelativeConvex@VCapsuleV@Gu@physx@@@Gu@physx@@UEAAPEAXI@Z 0000000180033a20 f i GuCCDSweepPrimitives.obj
 0001:00032a20       ??_G?$RelativeConvex@VConvexHullNoScaleV@Gu@physx@@@Gu@physx@@UEAAPEAXI@Z 0000000180033a20 f i GuPCMContactConvexConvex.obj
 0001:00032a20       ??_G?$RelativeConvex@VConvexHullV@Gu@physx@@@Gu@physx@@UEAAPEAXI@Z 0000000180033a20 f i GuOverlapTests.obj
 0001:00032a20       ??_G?$RelativeConvex@VTriangleV@Gu@physx@@@Gu@physx@@UEAAPEAXI@Z 0000000180033a20 f i GuCCDSweepPrimitives.obj
 0001:00032a80       ?getCenter@?$RelativeConvex@UCustomConvexV@@@Gu@physx@@UEBA?AT__m128@@XZ 0000000180033a80 f i GuGjkQuery.obj
 0001:00032a80       ?getCenter@?$RelativeConvex@VBoxV@Gu@physx@@@Gu@physx@@UEBA?AT__m128@@XZ 0000000180033a80 f i GuOverlapTests.obj
 0001:00032a80       ?getCenter@?$RelativeConvex@VCapsuleV@Gu@physx@@@Gu@physx@@UEBA?AT__m128@@XZ 0000000180033a80 f i GuCCDSweepPrimitives.obj
 0001:00032a80       ?getCenter@?$RelativeConvex@VConvexHullNoScaleV@Gu@physx@@@Gu@physx@@UEBA?AT__m128@@XZ 0000000180033a80 f i GuPCMContactConvexConvex.obj
 0001:00032a80       ?getCenter@?$RelativeConvex@VConvexHullV@Gu@physx@@@Gu@physx@@UEBA?AT__m128@@XZ 0000000180033a80 f i GuOverlapTests.obj
 0001:00032a80       ?getCenter@?$RelativeConvex@VTriangleV@Gu@physx@@@Gu@physx@@UEBA?AT__m128@@XZ 0000000180033a80 f i GuCCDSweepPrimitives.obj
 0001:00032ac0       ?getOverlapFuncTable@Gu@physx@@YAPEAY0L@Q6A_NAEBVPxGeometry@2@AEBV?$PxTransformT@M@2@01PEAUTriggerCache@12@PEAUPxQueryThreadContext@2@@ZXZ 0000000180033ac0 f   GuOverlapTests.obj
 0001:00034780       ?support@?$RelativeConvex@VBoxV@Gu@physx@@@Gu@physx@@UEBA?AT__m128@@AEBT4@@Z 0000000180035780 f i GuOverlapTests.obj
 0001:00034800       ?support@?$RelativeConvex@VBoxV@Gu@physx@@@Gu@physx@@UEBA?AT__m128@@AEBT4@AEAH@Z 0000000180035800 f i GuOverlapTests.obj
 0001:00034890       ?support@?$RelativeConvex@VConvexHullV@Gu@physx@@@Gu@physx@@UEBA?AT__m128@@AEBT4@@Z 0000000180035890 f i GuOverlapTests.obj
 0001:000349c0       ?support@?$RelativeConvex@VConvexHullV@Gu@physx@@@Gu@physx@@UEBA?AT__m128@@AEBT4@AEAH@Z 00000001800359c0 f i GuOverlapTests.obj
 0001:00034ae0       ?support@ConvexShape@Gu@physx@@QEBA?AV?$PxVec3T@M@3@AEBV43@@Z 0000000180035ae0 f i GuOverlapTests.obj
 0001:00034e40       ?supportPoint@?$RelativeConvex@VBoxV@Gu@physx@@@Gu@physx@@UEBA?AT__m128@@H@Z 0000000180035e40 f i GuOverlapTests.obj
 0001:00034eb0       ?supportPoint@?$RelativeConvex@VConvexHullV@Gu@physx@@@Gu@physx@@UEBA?AT__m128@@H@Z 0000000180035eb0 f i GuOverlapTests.obj
 0001:00034f30       ?raycast_box@@YAIAEBVPxGeometry@physx@@AEBV?$PxTransformT@M@2@AEBV?$PxVec3T@M@2@2MV?$PxFlags@W4Enum@PxHitFlag@physx@@G@2@IPEIAUPxGeomRaycastHit@2@IPEAUPxQueryThreadContext@2@@Z 0000000180035f30 f   GuRaycastTests.obj
 0001:00035580       ?raycast_sphere@@YAIAEBVPxGeometry@physx@@AEBV?$PxTransformT@M@2@AEBV?$PxVec3T@M@2@2MV?$PxFlags@W4Enum@PxHitFlag@physx@@G@2@IPEIAUPxGeomRaycastHit@2@IPEAUPxQueryThreadContext@2@@Z 0000000180036580 f   GuRaycastTests.obj
 0001:00035700       ?raycast_capsule@@YAIAEBVPxGeometry@physx@@AEBV?$PxTransformT@M@2@AEBV?$PxVec3T@M@2@2MV?$PxFlags@W4Enum@PxHitFlag@physx@@G@2@IPEIAUPxGeomRaycastHit@2@IPEAUPxQueryThreadContext@2@@Z 0000000180036700 f   GuRaycastTests.obj
 0001:00035c50       ?raycast_plane@@YAIAEBVPxGeometry@physx@@AEBV?$PxTransformT@M@2@AEBV?$PxVec3T@M@2@2MV?$PxFlags@W4Enum@PxHitFlag@physx@@G@2@IPEIAUPxGeomRaycastHit@2@IPEAUPxQueryThreadContext@2@@Z 0000000180036c50 f   GuRaycastTests.obj
 0001:00035dc0       ?raycast_convexMesh@@YAIAEBVPxGeometry@physx@@AEBV?$PxTransformT@M@2@AEBV?$PxVec3T@M@2@2MV?$PxFlags@W4Enum@PxHitFlag@physx@@G@2@IPEIAUPxGeomRaycastHit@2@IPEAUPxQueryThreadContext@2@@Z 0000000180036dc0 f   GuRaycastTests.obj
 0001:000368a0       ?raycast_triangleMesh@@YAIAEBVPxGeometry@physx@@AEBV?$PxTransformT@M@2@AEBV?$PxVec3T@M@2@2MV?$PxFlags@W4Enum@PxHitFlag@physx@@G@2@IPEIAUPxGeomRaycastHit@2@IPEAUPxQueryThreadContext@2@@Z 00000001800378a0 f   GuRaycastTests.obj
 0001:00036930       ?raycast_heightField@@YAIAEBVPxGeometry@physx@@AEBV?$PxTransformT@M@2@AEBV?$PxVec3T@M@2@2MV?$PxFlags@W4Enum@PxHitFlag@physx@@G@2@IPEIAUPxGeomRaycastHit@2@IPEAUPxQueryThreadContext@2@@Z 0000000180037930 f   GuRaycastTests.obj
 0001:00038590       ??Dphysx@@YA?AV?$PxMat34T@M@0@AEBVPxMeshScale@0@AEBV?$PxTransformT@M@0@@Z 0000000180039590 f i GuRaycastTests.obj
 0001:00038b90       ??_ESupport@PxGjkQuery@physx@@UEAAPEAXI@Z 0000000180039b90 f i GuRaycastTests.obj
 0001:00038b90       ??_GSupport@PxGjkQuery@physx@@UEAAPEAXI@Z 0000000180039b90 f i GuRaycastTests.obj
 0001:000390c0       ?getRaycastFuncTable@Gu@physx@@YAAEAY0L@Q6AIAEBVPxGeometry@2@AEBV?$PxTransformT@M@2@AEBV?$PxVec3T@M@2@2MV?$PxFlags@W4Enum@PxHitFlag@physx@@G@2@IPEIAUPxGeomRaycastHit@2@IPEAUPxQueryThreadContext@2@@ZXZ 000000018003a0c0 f   GuRaycastTests.obj
 0001:000390f0       ??Dphysx@@YA?AV?$PxMat34T@M@0@AEBV?$PxTransformT@M@0@AEBVPxMeshScale@0@@Z 000000018003a0f0 f i GuSweepMTD.obj
 0001:00039650       ??_E?$MeshHitCallback@UPxGeomRaycastHit@physx@@@Gu@physx@@UEAAPEAXI@Z 000000018003a650 f i GuSweepMTD.obj
 0001:00039650       ??_G?$MeshHitCallback@UPxGeomRaycastHit@physx@@@Gu@physx@@UEAAPEAXI@Z 000000018003a650 f i GuSweepMTD.obj
 0001:00039680       ??_EMeshMTDGenerationCallback@@UEAAPEAXI@Z 000000018003a680 f i GuSweepMTD.obj
 0001:00039680       ??_GMeshMTDGenerationCallback@@UEAAPEAXI@Z 000000018003a680 f i GuSweepMTD.obj
 0001:000396b0       ??_EMidPhaseQueryLocalReport@@UEAAPEAXI@Z 000000018003a6b0 f i GuSweepMTD.obj
 0001:000396b0       ??_ERTreeCookerRemap@@UEAAPEAXI@Z 000000018003a6b0 f i GuCookingTriangleMesh.obj
 0001:000396b0       ??_GMidPhaseQueryLocalReport@@UEAAPEAXI@Z 000000018003a6b0 f i GuSweepMTD.obj
 0001:000396b0       ??_GRTreeCookerRemap@@UEAAPEAXI@Z 000000018003a6b0 f i GuCookingTriangleMesh.obj
 0001:000396e0       ?allocate@?$PxArray@IV?$PxReflectionAllocator@I@physx@@@physx@@IEAAPEAIIPEAI@Z 000000018003a6e0 f i GuSweepMTD.obj
 0001:00039790       ?computeBox_HeightFieldMTD@Gu@physx@@YA_NAEBVPxHeightFieldGeometry@2@AEBV?$PxTransformT@M@2@AEBVBox@12@1M_NAEAUPxGeomSweepHit@2@@Z 000000018003a790 f   GuSweepMTD.obj
 0001:0003a4b0       ?computeBox_TriangleMeshMTD@Gu@physx@@YA_NAEBVPxTriangleMeshGeometry@2@AEBV?$PxTransformT@M@2@AEBVBox@12@1M_NAEAUPxGeomSweepHit@2@@Z 000000018003b4b0 f   GuSweepMTD.obj
 0001:0003b000       ?computeCapsule_CapsuleMTD@Gu@physx@@YA_NAEBVCapsule@12@0AEAUPxGeomSweepHit@2@@Z 000000018003c000 f   GuSweepMTD.obj
 0001:0003b230       ?computeCapsule_HeightFieldMTD@Gu@physx@@YA_NAEBVPxHeightFieldGeometry@2@AEBV?$PxTransformT@M@2@AEAVCapsuleV@12@M_NAEAUPxGeomSweepHit@2@@Z 000000018003c230 f   GuSweepMTD.obj
 0001:0003ba70       ?computeCapsule_TriangleMeshMTD@Gu@physx@@YA_NAEBVPxTriangleMeshGeometry@2@AEBV?$PxTransformT@M@2@AEAVCapsuleV@12@M_NAEAUPxGeomSweepHit@2@@Z 000000018003ca70 f   GuSweepMTD.obj
 0001:0003c320       ?computeConvex_HeightFieldMTD@Gu@physx@@YA_NAEBVPxHeightFieldGeometry@2@AEBV?$PxTransformT@M@2@AEBVPxConvexMeshGeometry@2@1M_NAEAUPxGeomSweepHit@2@@Z 000000018003d320 f   GuSweepMTD.obj
 0001:0003d590       ?computeConvex_TriangleMeshMTD@Gu@physx@@YA_NAEBVPxTriangleMeshGeometry@2@AEBV?$PxTransformT@M@2@AEBVPxConvexMeshGeometry@2@1M_NAEAUPxGeomSweepHit@2@@Z 000000018003e590 f   GuSweepMTD.obj
 0001:0003e7c0       ?computePlane_BoxMTD@Gu@physx@@YA_NAEBVPxPlane@2@AEBVBox@12@AEAUPxGeomSweepHit@2@@Z 000000018003f7c0 f   GuSweepMTD.obj
 0001:0003ea50       ?computePlane_CapsuleMTD@Gu@physx@@YA_NAEBVPxPlane@2@AEBVCapsule@12@AEAUPxGeomSweepHit@2@@Z 000000018003fa50 f   GuSweepMTD.obj
 0001:0003eb90       ?computePlane_ConvexMTD@Gu@physx@@YA_NAEBVPxPlane@2@AEBVPxConvexMeshGeometry@2@AEBV?$PxTransformT@M@2@AEAUPxGeomSweepHit@2@@Z 000000018003fb90 f   GuSweepMTD.obj
 0001:0003f0c0       ?computeSphere_CapsuleMTD@Gu@physx@@YA_NAEBVSphere@12@AEBVCapsule@12@AEAUPxGeomSweepHit@2@@Z 00000001800400c0 f   GuSweepMTD.obj
 0001:0003f270       ?computeSphere_SphereMTD@Gu@physx@@YA_NAEBVSphere@12@0AEAUPxGeomSweepHit@2@@Z 0000000180040270 f   GuSweepMTD.obj
 0001:0003f360       ?getInverse@?$PxMat33T@M@physx@@QEBA?BV12@XZ 0000000180040360 f i GuSweepMTD.obj
 0001:0003f5b0       ?growAndPushBack@?$PxArray@IV?$PxReflectionAllocator@I@physx@@@physx@@IEAAAEAIAEBI@Z 00000001800405b0 f i GuSweepMTD.obj
 0001:0003f6f0       ?init@FastVertex2ShapeScaling@Cm@physx@@QEAAXAEBV?$PxVec3T@M@3@AEBV?$PxQuatT@M@3@@Z 00000001800406f0 f i GuSweepMTD.obj
 0001:0003ff70       ?processHit@MeshMTDGenerationCallback@@UEAA_NAEBUPxGeomRaycastHit@physx@@AEBV?$PxVec3T@M@3@11AEAMPEBI@Z 0000000180040f70 f i GuSweepMTD.obj
 0001:0003ffc0       ?recreate@?$PxArray@IV?$PxReflectionAllocator@I@physx@@@physx@@IEAAXI@Z 0000000180040fc0 f i GuSweepMTD.obj
 0001:000400d0       ?reportTouchedTris@MidPhaseQueryLocalReport@@UEAA_NIPEBI@Z 00000001800410d0 f i GuSweepMTD.obj
 0001:00040140       ??$gjkPenetration@U?$LocalConvex@VCapsuleV@Gu@physx@@@Gu@physx@@U?$LocalConvex@VConvexHullV@Gu@physx@@@23@@Gu@physx@@YA?AW4GjkStatus@01@AEBU?$LocalConvex@VCapsuleV@Gu@physx@@@01@AEBU?$LocalConvex@VConvexHullV@Gu@physx@@@01@AEBT__m128@@2_NPEIAE4AEAEAEAUGjkOutput@01@@Z 0000000180041140 f i GuSweepSharedTests.obj
 0001:000401b0       ??$gjkPenetration@U?$LocalConvex@VCapsuleV@Gu@physx@@@Gu@physx@@U?$LocalConvex@VConvexHullV@Gu@physx@@@23@@Gu@physx@@YA?AW4GjkStatus@01@AEBU?$LocalConvex@VCapsuleV@Gu@physx@@@01@AEBU?$LocalConvex@VConvexHullV@Gu@physx@@@01@AEBT__m128@@2_NPEIAE4PEIAT5@5AEAEAEAUGjkOutput@01@@Z 00000001800411b0 f i GuSweepSharedTests.obj
 0001:00041c80       ??$gjkPenetration@U?$RelativeConvex@VBoxV@Gu@physx@@@Gu@physx@@U?$LocalConvex@VConvexHullV@Gu@physx@@@23@@Gu@physx@@YA?AW4GjkStatus@01@AEBU?$RelativeConvex@VBoxV@Gu@physx@@@01@AEBU?$LocalConvex@VConvexHullV@Gu@physx@@@01@AEBT__m128@@2_NPEIAE4AEAEAEAUGjkOutput@01@@Z 0000000180042c80 f i GuSweepSharedTests.obj
 0001:00041cf0       ??$gjkPenetration@U?$RelativeConvex@VBoxV@Gu@physx@@@Gu@physx@@U?$LocalConvex@VConvexHullV@Gu@physx@@@23@@Gu@physx@@YA?AW4GjkStatus@01@AEBU?$RelativeConvex@VBoxV@Gu@physx@@@01@AEBU?$LocalConvex@VConvexHullV@Gu@physx@@@01@AEBT__m128@@2_NPEIAE4PEIAT5@5AEAEAEAUGjkOutput@01@@Z 0000000180042cf0 f i GuSweepSharedTests.obj
 0001:00043810       ??$gjkPenetration@U?$RelativeConvex@VConvexHullV@Gu@physx@@@Gu@physx@@U?$LocalConvex@VConvexHullV@Gu@physx@@@23@@Gu@physx@@YA?AW4GjkStatus@01@AEBU?$RelativeConvex@VConvexHullV@Gu@physx@@@01@AEBU?$LocalConvex@VConvexHullV@Gu@physx@@@01@AEBT__m128@@2_NPEIAE4AEAEAEAUGjkOutput@01@@Z 0000000180044810 f i GuSweepSharedTests.obj
 0001:00043880       ??$gjkPenetration@U?$RelativeConvex@VConvexHullV@Gu@physx@@@Gu@physx@@U?$LocalConvex@VConvexHullV@Gu@physx@@@23@@Gu@physx@@YA?AW4GjkStatus@01@AEBU?$RelativeConvex@VConvexHullV@Gu@physx@@@01@AEBU?$LocalConvex@VConvexHullV@Gu@physx@@@01@AEBT__m128@@2_NPEIAE4PEIAT5@5AEAEAEAUGjkOutput@01@@Z 0000000180044880 f i GuSweepSharedTests.obj
 0001:00045450       ??$gjkRaycast@U?$LocalConvex@VCapsuleV@Gu@physx@@@Gu@physx@@U?$LocalConvex@VConvexHullV@Gu@physx@@@23@@Gu@physx@@YA_NAEBU?$LocalConvex@VCapsuleV@Gu@physx@@@01@AEBU?$LocalConvex@VConvexHullV@Gu@physx@@@01@AEBT__m128@@222AEAT4@33M@Z 0000000180046450 f i GuSweepSharedTests.obj
 0001:000461c0       ??$gjkRaycast@U?$RelativeConvex@VBoxV@Gu@physx@@@Gu@physx@@U?$LocalConvex@VConvexHullV@Gu@physx@@@23@@Gu@physx@@YA_NAEBU?$RelativeConvex@VBoxV@Gu@physx@@@01@AEBU?$LocalConvex@VConvexHullV@Gu@physx@@@01@AEBT__m128@@222AEAT4@33M@Z 00000001800471c0 f i GuSweepSharedTests.obj
 0001:00046f90       ??$gjkRaycast@U?$RelativeConvex@VConvexHullV@Gu@physx@@@Gu@physx@@U?$LocalConvex@VConvexHullV@Gu@physx@@@23@@Gu@physx@@YA_NAEBU?$RelativeConvex@VConvexHullV@Gu@physx@@@01@AEBU?$LocalConvex@VConvexHullV@Gu@physx@@@01@AEBT__m128@@222AEAT4@33M@Z 0000000180047f90 f i GuSweepSharedTests.obj
 0001:00047d90       ??$gjkRaycastPenetration@U?$LocalConvex@VCapsuleV@Gu@physx@@@Gu@physx@@U?$LocalConvex@VConvexHullV@Gu@physx@@@23@@Gu@physx@@YA_NAEBU?$LocalConvex@VCapsuleV@Gu@physx@@@01@AEBU?$LocalConvex@VConvexHullV@Gu@physx@@@01@AEBT__m128@@222AEAT4@33M_N@Z 0000000180048d90 f i GuSweepSharedTests.obj
 0001:00047fc0       ??$gjkRaycastPenetration@U?$RelativeConvex@VBoxV@Gu@physx@@@Gu@physx@@U?$LocalConvex@VConvexHullV@Gu@physx@@@23@@Gu@physx@@YA_NAEBU?$RelativeConvex@VBoxV@Gu@physx@@@01@AEBU?$LocalConvex@VConvexHullV@Gu@physx@@@01@AEBT__m128@@222AEAT4@33M_N@Z 0000000180048fc0 f i GuSweepSharedTests.obj
 0001:00048250       ??$gjkRaycastPenetration@U?$RelativeConvex@VConvexHullV@Gu@physx@@@Gu@physx@@U?$LocalConvex@VConvexHullV@Gu@physx@@@23@@Gu@physx@@YA_NAEBU?$RelativeConvex@VConvexHullV@Gu@physx@@@01@AEBU?$LocalConvex@VConvexHullV@Gu@physx@@@01@AEBT__m128@@222AEAT4@33M_N@Z 0000000180049250 f i GuSweepSharedTests.obj
 0001:00048930       ?sweepBox_ConvexGeom@@YA_NAEBVPxGeometry@physx@@AEBV?$PxTransformT@M@2@AEBVPxBoxGeometry@2@1AEBVBox@Gu@2@AEBV?$PxVec3T@M@2@MAEAUPxGeomSweepHit@2@V?$PxFlags@W4Enum@PxHitFlag@physx@@G@2@MPEAUPxQueryThreadContext@2@@Z 0000000180049930 f   GuSweepSharedTests.obj
 0001:00049500       ?sweepBox_PlaneGeom@@YA_NAEBVPxGeometry@physx@@AEBV?$PxTransformT@M@2@AEBVPxBoxGeometry@2@1AEBVBox@Gu@2@AEBV?$PxVec3T@M@2@MAEAUPxGeomSweepHit@2@V?$PxFlags@W4Enum@PxHitFlag@physx@@G@2@MPEAUPxQueryThreadContext@2@@Z 000000018004a500 f   GuSweepSharedTests.obj
 0001:000498d0       ?sweepCapsuleTriangles@Gu@physx@@YA_NIPEBVPxTriangle@2@_NAEBVPxCapsuleGeometry@2@AEBV?$PxTransformT@M@2@AEBV?$PxVec3T@M@2@MAEAUPxGeomSweepHit@2@PEBIMV?$PxFlags@W4Enum@PxHitFlag@physx@@G@2@@Z 000000018004a8d0 f   GuSweepSharedTests.obj
 0001:00049ad0       ?sweepCapsule_CapsuleGeom@@YA_NAEBVPxGeometry@physx@@AEBV?$PxTransformT@M@2@AEBVPxCapsuleGeometry@2@1AEBVCapsule@Gu@2@AEBV?$PxVec3T@M@2@MAEAUPxGeomSweepHit@2@V?$PxFlags@W4Enum@PxHitFlag@physx@@G@2@MPEAUPxQueryThreadContext@2@@Z 000000018004aad0 f   GuSweepSharedTests.obj
 0001:00049cc0       ?sweepCapsule_ConvexGeom@@YA_NAEBVPxGeometry@physx@@AEBV?$PxTransformT@M@2@AEBVPxCapsuleGeometry@2@1AEBVCapsule@Gu@2@AEBV?$PxVec3T@M@2@MAEAUPxGeomSweepHit@2@V?$PxFlags@W4Enum@PxHitFlag@physx@@G@2@MPEAUPxQueryThreadContext@2@@Z 000000018004acc0 f   GuSweepSharedTests.obj
 0001:0004a830       ?sweepCapsule_PlaneGeom@@YA_NAEBVPxGeometry@physx@@AEBV?$PxTransformT@M@2@AEBVPxCapsuleGeometry@2@1AEBVCapsule@Gu@2@AEBV?$PxVec3T@M@2@MAEAUPxGeomSweepHit@2@V?$PxFlags@W4Enum@PxHitFlag@physx@@G@2@MPEAUPxQueryThreadContext@2@@Z 000000018004b830 f   GuSweepSharedTests.obj
 0001:0004ab10       ?sweepCapsule_SphereGeom@@YA_NAEBVPxGeometry@physx@@AEBV?$PxTransformT@M@2@AEBVPxCapsuleGeometry@2@1AEBVCapsule@Gu@2@AEBV?$PxVec3T@M@2@MAEAUPxGeomSweepHit@2@V?$PxFlags@W4Enum@PxHitFlag@physx@@G@2@MPEAUPxQueryThreadContext@2@@Z 000000018004bb10 f   GuSweepSharedTests.obj
 0001:0004aca0       ?sweepConvex_BoxGeom@@YA_NAEBVPxGeometry@physx@@AEBV?$PxTransformT@M@2@AEBVPxConvexMeshGeometry@2@1AEBV?$PxVec3T@M@2@MAEAUPxGeomSweepHit@2@V?$PxFlags@W4Enum@PxHitFlag@physx@@G@2@MPEAUPxQueryThreadContext@2@@Z 000000018004bca0 f   GuSweepSharedTests.obj
 0001:0004aec0       ?sweepConvex_CapsuleGeom@@YA_NAEBVPxGeometry@physx@@AEBV?$PxTransformT@M@2@AEBVPxConvexMeshGeometry@2@1AEBV?$PxVec3T@M@2@MAEAUPxGeomSweepHit@2@V?$PxFlags@W4Enum@PxHitFlag@physx@@G@2@MPEAUPxQueryThreadContext@2@@Z 000000018004bec0 f   GuSweepSharedTests.obj
 0001:0004b100       ?sweepConvex_ConvexGeom@@YA_NAEBVPxGeometry@physx@@AEBV?$PxTransformT@M@2@AEBVPxConvexMeshGeometry@2@1AEBV?$PxVec3T@M@2@MAEAUPxGeomSweepHit@2@V?$PxFlags@W4Enum@PxHitFlag@physx@@G@2@MPEAUPxQueryThreadContext@2@@Z 000000018004c100 f   GuSweepSharedTests.obj
 0001:0004c090       ?sweepConvex_PlaneGeom@@YA_NAEBVPxGeometry@physx@@AEBV?$PxTransformT@M@2@AEBVPxConvexMeshGeometry@2@1AEBV?$PxVec3T@M@2@MAEAUPxGeomSweepHit@2@V?$PxFlags@W4Enum@PxHitFlag@physx@@G@2@MPEAUPxQueryThreadContext@2@@Z 000000018004d090 f   GuSweepSharedTests.obj
 0001:0004c520       ?sweepConvex_SphereGeom@@YA_NAEBVPxGeometry@physx@@AEBV?$PxTransformT@M@2@AEBVPxConvexMeshGeometry@2@1AEBV?$PxVec3T@M@2@MAEAUPxGeomSweepHit@2@V?$PxFlags@W4Enum@PxHitFlag@physx@@G@2@MPEAUPxQueryThreadContext@2@@Z 000000018004d520 f   GuSweepSharedTests.obj
 0001:0004cf10       ?transformPlaneToShapeSpace@FastVertex2ShapeScaling@Cm@physx@@QEBAXAEBV?$PxVec3T@M@3@MAEAV43@AEAM@Z 000000018004df10 f i GuSweepSharedTests.obj
 0001:0004d010       ?sweepCapsule_BoxGeom@@YA_NAEBVPxGeometry@physx@@AEBV?$PxTransformT@M@2@AEBVPxCapsuleGeometry@2@1AEBVCapsule@Gu@2@AEBV?$PxVec3T@M@2@MAEAUPxGeomSweepHit@2@V?$PxFlags@W4Enum@PxHitFlag@physx@@G@2@MPEAUPxQueryThreadContext@2@@Z 000000018004e010 f   GuSweepTests.obj
 0001:0004d870       ?sweepBox_SphereGeom@@YA_NAEBVPxGeometry@physx@@AEBV?$PxTransformT@M@2@AEBVPxBoxGeometry@2@1AEBVBox@Gu@2@AEBV?$PxVec3T@M@2@MAEAUPxGeomSweepHit@2@V?$PxFlags@W4Enum@PxHitFlag@physx@@G@2@MPEAUPxQueryThreadContext@2@@Z 000000018004e870 f   GuSweepTests.obj
 0001:0004de70       ?sweepBox_CapsuleGeom@@YA_NAEBVPxGeometry@physx@@AEBV?$PxTransformT@M@2@AEBVPxBoxGeometry@2@1AEBVBox@Gu@2@AEBV?$PxVec3T@M@2@MAEAUPxGeomSweepHit@2@V?$PxFlags@W4Enum@PxHitFlag@physx@@G@2@MPEAUPxQueryThreadContext@2@@Z 000000018004ee70 f   GuSweepTests.obj
 0001:0004e6d0       ?sweepBox_BoxGeom@@YA_NAEBVPxGeometry@physx@@AEBV?$PxTransformT@M@2@AEBVPxBoxGeometry@2@1AEBVBox@Gu@2@AEBV?$PxVec3T@M@2@MAEAUPxGeomSweepHit@2@V?$PxFlags@W4Enum@PxHitFlag@physx@@G@2@MPEAUPxQueryThreadContext@2@@Z 000000018004f6d0 f   GuSweepTests.obj
 0001:0004ef10       ?sweepConvex_ConvexCoreGeom@@YA_NAEBVPxGeometry@physx@@AEBV?$PxTransformT@M@2@AEBVPxConvexMeshGeometry@2@1AEBV?$PxVec3T@M@2@MAEAUPxGeomSweepHit@2@V?$PxFlags@W4Enum@PxHitFlag@physx@@G@2@MPEAUPxQueryThreadContext@2@@Z 000000018004ff10 f   GuSweepTests.obj
 0001:00050b80       ?sweepConvexCore_HeightFieldGeom@@YA_NAEBVPxGeometry@physx@@AEBV?$PxTransformT@M@2@AEBVPxConvexCoreGeometry@2@1AEBV?$PxVec3T@M@2@MAEAUPxGeomSweepHit@2@V?$PxFlags@W4Enum@PxHitFlag@physx@@G@2@MPEAUPxQueryThreadContext@2@@Z 0000000180051b80 f   GuSweepTests.obj
 0001:000513b0       ??$gjkPenetration@U?$LocalConvex@VCapsuleV@Gu@physx@@@Gu@physx@@U?$LocalConvex@VBoxV@Gu@physx@@@23@@Gu@physx@@YA?AW4GjkStatus@01@AEBU?$LocalConvex@VCapsuleV@Gu@physx@@@01@AEBU?$LocalConvex@VBoxV@Gu@physx@@@01@AEBT__m128@@2_NPEIAE4AEAEAEAUGjkOutput@01@@Z 00000001800523b0 f i GuSweepTests.obj
 0001:00051420       ??$gjkPenetration@U?$LocalConvex@VCapsuleV@Gu@physx@@@Gu@physx@@U?$LocalConvex@VBoxV@Gu@physx@@@23@@Gu@physx@@YA?AW4GjkStatus@01@AEBU?$LocalConvex@VCapsuleV@Gu@physx@@@01@AEBU?$LocalConvex@VBoxV@Gu@physx@@@01@AEBT__m128@@2_NPEIAE4PEIAT5@5AEAEAEAUGjkOutput@01@@Z 0000000180052420 f i GuSweepTests.obj
 0001:00052e70       ??$gjkPenetration@U?$RelativeConvex@VBoxV@Gu@physx@@@Gu@physx@@U?$LocalConvex@VBoxV@Gu@physx@@@23@@Gu@physx@@YA?AW4GjkStatus@01@AEBU?$RelativeConvex@VBoxV@Gu@physx@@@01@AEBU?$LocalConvex@VBoxV@Gu@physx@@@01@AEBT__m128@@2_NPEIAE4AEAEAEAUGjkOutput@01@@Z 0000000180053e70 f i GuSweepTests.obj
 0001:00052ee0       ??$gjkPenetration@U?$RelativeConvex@VBoxV@Gu@physx@@@Gu@physx@@U?$LocalConvex@VBoxV@Gu@physx@@@23@@Gu@physx@@YA?AW4GjkStatus@01@AEBU?$RelativeConvex@VBoxV@Gu@physx@@@01@AEBU?$LocalConvex@VBoxV@Gu@physx@@@01@AEBT__m128@@2_NPEIAE4PEIAT5@5AEAEAEAUGjkOutput@01@@Z 0000000180053ee0 f i GuSweepTests.obj
 0001:00054980       ??$gjkRaycast@U?$LocalConvex@VCapsuleV@Gu@physx@@@Gu@physx@@U?$LocalConvex@VBoxV@Gu@physx@@@23@@Gu@physx@@YA_NAEBU?$LocalConvex@VCapsuleV@Gu@physx@@@01@AEBU?$LocalConvex@VBoxV@Gu@physx@@@01@AEBT__m128@@222AEAT4@33M@Z 0000000180055980 f i GuSweepTests.obj
 0001:00055560       ??$gjkRaycast@U?$LocalConvex@VTriangleV@Gu@physx@@@Gu@physx@@U?$LocalConvex@VBoxV@Gu@physx@@@23@@Gu@physx@@YA_NAEBU?$LocalConvex@VTriangleV@Gu@physx@@@01@AEBU?$LocalConvex@VBoxV@Gu@physx@@@01@AEBT__m128@@222AEAT4@33M@Z 0000000180056560 f i GuSweepTests.obj
 0001:000561e0       ??$gjkRaycast@U?$RelativeConvex@VBoxV@Gu@physx@@@Gu@physx@@U?$LocalConvex@VBoxV@Gu@physx@@@23@@Gu@physx@@YA_NAEBU?$RelativeConvex@VBoxV@Gu@physx@@@01@AEBU?$LocalConvex@VBoxV@Gu@physx@@@01@AEBT__m128@@222AEAT4@33M@Z 00000001800571e0 f i GuSweepTests.obj
 0001:00056fa0       ?getSweepFuncTable@Gu@physx@@YAAEBUGeomSweepFuncs@12@XZ 0000000180057fa0 f   GuSweepTests.obj
 0001:00056fb0       ?getSweepMargin@?$LocalConvex@VTetrahedronV@Gu@physx@@@Gu@physx@@UEBA?AT__m128@@XZ 0000000180057fb0 f i GuCookingTetrahedronMesh.obj
 0001:00056fb0       ?getSweepMargin@?$LocalConvex@VTriangleV@Gu@physx@@@Gu@physx@@UEBA?AT__m128@@XZ 0000000180057fb0 f i GuSweepTests.obj
 0001:00056fb0       ?getSweepMargin@?$RelativeConvex@VTriangleV@Gu@physx@@@Gu@physx@@UEBA?AT__m128@@XZ 0000000180057fb0 f i GuCCDSweepPrimitives.obj
 0001:00057300       ?support@?$LocalConvex@VBoxV@Gu@physx@@@Gu@physx@@UEBA?AT__m128@@AEBT4@@Z 0000000180058300 f i GuSweepTests.obj
 0001:00057330       ?support@?$LocalConvex@VBoxV@Gu@physx@@@Gu@physx@@UEBA?AT__m128@@AEBT4@AEAH@Z 0000000180058330 f i GuSweepTests.obj
 0001:00057370       ?support@?$LocalConvex@VTriangleV@Gu@physx@@@Gu@physx@@UEBA?AT__m128@@AEBT4@@Z 0000000180058370 f i GuSweepTests.obj
 0001:00057400       ?support@?$LocalConvex@VTriangleV@Gu@physx@@@Gu@physx@@UEBA?AT__m128@@AEBT4@AEAH@Z 0000000180058400 f i GuSweepTests.obj
 0001:00057c60       ?supportPoint@?$LocalConvex@VBoxV@Gu@physx@@@Gu@physx@@UEBA?AT__m128@@H@Z 0000000180058c60 f i GuSweepTests.obj
 0001:00057ca0       ?supportPoint@?$LocalConvex@VTetrahedronV@Gu@physx@@@Gu@physx@@UEBA?AT__m128@@H@Z 0000000180058ca0 f i GuCookingTetrahedronMesh.obj
 0001:00057ca0       ?supportPoint@?$LocalConvex@VTriangleV@Gu@physx@@@Gu@physx@@UEBA?AT__m128@@H@Z 0000000180058ca0 f i GuSweepTests.obj
 0001:00057cc0       ?sweepBoxTriangles@Gu@physx@@YA_NIPEBVPxTriangle@2@_NAEBVPxBoxGeometry@2@AEBV?$PxTransformT@M@2@AEBV?$PxVec3T@M@2@MAEAUPxGeomSweepHit@2@PEBIMV?$PxFlags@W4Enum@PxHitFlag@physx@@G@2@@Z 0000000180058cc0 f   GuSweepTests.obj
 0001:00058700       ??$PxSort@HU?$Comparer@V?$PxVec3T@M@physx@@@MeshAnalyzer@Gu@physx@@V?$PxReflectionAllocator@H@4@@physx@@YAXPEAHIAEBU?$Comparer@V?$PxVec3T@M@physx@@@MeshAnalyzer@Gu@0@AEBV?$PxReflectionAllocator@H@0@I@Z 0000000180059700 f i GuSDF.obj
 0001:00058d90       ??$PxSort@HU?$PxLess@H@physx@@V?$PxReflectionAllocator@H@2@@physx@@YAXPEAHIAEBU?$PxLess@H@0@AEBV?$PxReflectionAllocator@H@0@I@Z 0000000180059d90 f i GuSDF.obj
 0001:00059200       ??$copy@V?$PxReflectionAllocator@I@physx@@@?$PxArray@IV?$PxReflectionAllocator@I@physx@@@physx@@IEAAXAEBV01@@Z 000000018005a200 f i GuSDF.obj
 0001:00059270       ??$copy@V?$PxReflectionAllocator@M@physx@@@?$PxArray@MV?$PxReflectionAllocator@M@physx@@@physx@@IEAAXAEBV01@@Z 000000018005a270 f i GuSDF.obj
 0001:000592d0       ??$copy@V?$PxReflectionAllocator@V?$PxVec3T@M@physx@@@physx@@@?$PxArray@V?$PxVec3T@M@physx@@V?$PxReflectionAllocator@V?$PxVec3T@M@physx@@@2@@physx@@IEAAXAEBV01@@Z 000000018005a2d0 f i GuSDF.obj
 0001:00059330       ??$mapDuplicatePoints@V?$PxVec3T@M@physx@@M@MeshAnalyzer@Gu@physx@@SAXPEBV?$PxVec3T@M@2@IAEAV?$PxArray@HV?$PxReflectionAllocator@H@physx@@@2@M@Z 000000018005a330 f i GuSDF.obj
 0001:000596b0       ??$splitRanges@V?$PxVec3T@M@physx@@M@MeshAnalyzer@Gu@physx@@CAXAEAV?$PxArray@URange@MeshAnalyzer@Gu@physx@@V?$PxReflectionAllocator@URange@MeshAnalyzer@Gu@physx@@@4@@2@AEBV?$PxArray@HV?$PxReflectionAllocator@H@physx@@@2@PEBV?$PxVec3T@M@2@HM@Z 000000018005a6b0 f i GuSDF.obj
 0001:00059920       ??$traverseBVH@VClosestDistanceToTrimeshTraversalController@Gu@physx@@@Gu@physx@@YAXPEBUBVHNode@01@AEAVClosestDistanceToTrimeshTraversalController@01@H@Z 000000018005a920 f i GuSDF.obj
 0001:00059d30       ??$traverseBVH@VLineSegmentTrimeshIntersectionTraversalController@Gu@physx@@@Gu@physx@@YAXPEBUBVHNode@01@AEAVLineSegmentTrimeshIntersectionTraversalController@01@H@Z 000000018005ad30 f i GuSDF.obj
 0001:0005a260       ??0?$PxThreadT@V?$PxReflectionAllocator@VPxThreadImpl@physx@@@physx@@@physx@@QEAA@P6APEAXPEAX@Z0PEBDAEBV?$PxReflectionAllocator@VPxThreadImpl@physx@@@1@@Z 000000018005b260 f i GuSDF.obj
 0001:0005a320       ??0CellToPoint@Gu@physx@@QEAA@I@Z 000000018005b320 f i GuSDF.obj
 0001:0005a420       ??0IsosurfaceThreadData@Gu@physx@@QEAA@AEBU012@@Z 000000018005b420 f i GuSDF.obj
 0001:0005a4a0       ??1CellToPoint@Gu@physx@@QEAA@XZ 000000018005b4a0 f i GuSDF.obj
 0001:0005a580       ??1IsosurfaceThreadData@Gu@physx@@QEAA@XZ 000000018005b580 f i GuSDF.obj
 0001:0005a630       ??1SDF@Gu@physx@@QEAA@XZ   000000018005b630 f   GuSDF.obj
 0001:0005a6d0       ??_E?$PxThreadT@V?$PxReflectionAllocator@VPxThreadImpl@physx@@@physx@@@physx@@UEAAPEAXI@Z 000000018005b6d0 f i GuSDF.obj
 0001:0005a6d0       ??_G?$PxThreadT@V?$PxReflectionAllocator@VPxThreadImpl@physx@@@physx@@@physx@@UEAAPEAXI@Z 000000018005b6d0 f i GuSDF.obj
 0001:0005a780       ??_EPxRunnable@physx@@UEAAPEAXI@Z 000000018005b780 f i GuSDF.obj
 0001:0005a780       ??_GPxRunnable@physx@@UEAAPEAXI@Z 000000018005b780 f i GuSDF.obj
 0001:0005a7b0       ?PxCreatePointOntoTriangleMeshProjector@Gu@physx@@YAPEAVPxPointOntoTriangleMeshProjector@12@PEBV?$PxVec3T@M@2@PEBII@Z 000000018005b7b0 f   GuSDF.obj
 0001:0005a8b0       ?SDFUsingWindingNumbers@Gu@physx@@YAXAEAV?$PxArray@UBVHNode@Gu@physx@@V?$PxReflectionAllocator@UBVHNode@Gu@physx@@@3@@2@AEAV?$PxHashMap@IU?$ClusterApproximationT@MV?$PxVec3T@M@physx@@@Gu@physx@@U?$PxHash@I@3@VPxAllocator@3@@2@PEBV?$PxVec3T@M@2@PEBIIIIIPEAMAEAUGridQueryPointSampler@12@PEAV52@I_N7@Z 000000018005b8b0 f   GuSDF.obj
 0001:0005ada0       ?SDFUsingWindingNumbers@Gu@physx@@YAXPEBV?$PxVec3T@M@2@PEBIIIIIPEAMV32@3PEAV32@_NIPEAVPxSDFBuilder@2@@Z 000000018005bda0 f   GuSDF.obj
 0001:0005b230       ?SDFUsingWindingNumbersSparse@Gu@physx@@YAXPEBV?$PxVec3T@M@2@PEBIIIIIAEBV32@2MIAEAV?$PxArray@MV?$PxReflectionAllocator@M@physx@@@2@AEAV?$PxArray@IV?$PxReflectionAllocator@I@physx@@@2@33AEAM5IPEAVPxSDFBuilder@2@@Z 000000018005c230 f   GuSDF.obj
 0001:0005bc80       ?allocate@?$PxArray@HV?$PxInlineAllocator@$0EAA@V?$PxReflectionAllocator@H@physx@@@physx@@@physx@@IEAAPEAHIPEAI@Z 000000018005cc80 f i GuSDF.obj
 0001:0005bd40       ?allocate@?$PxArray@MV?$PxReflectionAllocator@M@physx@@@physx@@IEAAPEAMIPEAI@Z 000000018005cd40 f i GuSDF.obj
 0001:0005bdf0       ?allocate@?$PxArray@V?$PxVec3T@M@physx@@V?$PxReflectionAllocator@V?$PxVec3T@M@physx@@@2@@physx@@IEAAPEAV?$PxVec3T@M@2@IPEAI@Z 000000018005cdf0 f i GuSDF.obj
 0001:0005bea0       ?allocateSdfs@SDF@Gu@physx@@QEAAPEAMAEBV?$PxVec3T@M@3@AEBMIIIIIIIMMI@Z 000000018005cea0 f   GuSDF.obj
 0001:0005c0b0       ?analyzeAndFixMesh@Gu@physx@@YAXPEBV?$PxVec3T@M@2@PEBIIAEAV?$PxArray@IV?$PxReflectionAllocator@I@physx@@@2@@Z 000000018005d0b0 f   GuSDF.obj
 0001:0005c970       ?buildTree@Gu@physx@@YAXPEBIIPEBV?$PxVec3T@M@2@AEAV?$PxArray@UBVHNode@Gu@physx@@V?$PxReflectionAllocator@UBVHNode@Gu@physx@@@3@@2@M@Z 000000018005d970 f   GuSDF.obj
 0001:0005cb90       ?computeIsosurfaceTrianglesThreadJob@Gu@physx@@YAPEAXPEAX@Z 000000018005db90 f   GuSDF.obj
 0001:0005cf80       ?computeIsosurfaceVerticesThreadJob@Gu@physx@@YAPEAXPEAX@Z 000000018005df80 f   GuSDF.obj
 0001:0005d470       ?computeSDFThreadJob@Gu@physx@@YAPEAXPEAX@Z 000000018005e470 f   GuSDF.obj
 0001:0005df40       ?convertSparseSDFTo3DTextureLayout@Gu@physx@@YAXIIIIPEAIPEBMIAEAV?$PxArray@MV?$PxReflectionAllocator@M@physx@@@2@AEAI33@Z 000000018005ef40 f   GuSDF.obj
 0001:0005e2c0       ?copy@?$PxArray@MV?$PxReflectionAllocator@M@physx@@@physx@@KAXPEAM0PEBM@Z 000000018005f2c0 f i GuSDF.obj
 0001:0005e320       ?copy@?$PxArray@V?$PxVec3T@M@physx@@V?$PxReflectionAllocator@V?$PxVec3T@M@physx@@@2@@physx@@KAXPEAV?$PxVec3T@M@2@0PEBV32@@Z 000000018005f320 f i GuSDF.obj
 0001:0005e3e0       ?create@?$PxHashBase@V?$PxPair@$$CBUSortedTriangle@Gu@physx@@H@physx@@USortedTriangle@Gu@2@UTriangleHash@42@UGetKey@?$PxHashMapBase@USortedTriangle@Gu@physx@@HUTriangleHash@23@VPxAllocator@3@@2@VPxAllocator@2@$00@physx@@QEAAPEAV?$PxPair@$$CBUSortedTriangle@Gu@physx@@H@2@AEBUSortedTriangle@Gu@2@AEA_N@Z 000000018005f3e0 f i GuSDF.obj
 0001:0005e4f0       ?create@?$PxHashBase@V?$PxPair@$$CB_KH@physx@@_KU?$PxHash@_K@2@UGetKey@?$PxHashMapBase@_KHU?$PxHash@_K@physx@@VPxAllocator@2@@2@VPxAllocator@2@$00@physx@@QEAAPEAV?$PxPair@$$CB_KH@2@AEB_KAEA_N@Z 000000018005f4f0 f i GuMeshAnalysis.obj
 0001:0005e4f0       ?create@?$PxHashBase@V?$PxPair@$$CB_KI@physx@@_KU?$PxHash@_K@2@UGetKey@?$PxHashMapBase@_KIU?$PxHash@_K@physx@@VPxAllocator@2@@2@VPxAllocator@2@$00@physx@@QEAAPEAV?$PxPair@$$CB_KI@2@AEB_KAEA_N@Z 000000018005f4f0 f i GuSDF.obj
 0001:0005e680       ?createTriangles@Gu@physx@@YAXHHHMQEAMAEBUCellToPoint@12@AEBV?$PxArray@V?$PxVec3T@M@physx@@V?$PxReflectionAllocator@V?$PxVec3T@M@physx@@@2@@2@AEAV?$PxArray@IV?$PxReflectionAllocator@I@physx@@@2@@Z 000000018005f680 f i GuSDF.obj
 0001:0005eef0       ?decodeDense@SDF@Gu@physx@@QEBAMHHH@Z 000000018005fef0 f   GuSDF.obj
 0001:0005f1f0       ?decodeSparse@SDF@Gu@physx@@QEBAMHHH@Z 00000001800601f0 f   GuSDF.obj
 0001:0005f200       ?destroy@?$PxArray@V?$PxArray@IV?$PxReflectionAllocator@I@physx@@@physx@@V?$PxReflectionAllocator@V?$PxArray@IV?$PxReflectionAllocator@I@physx@@@physx@@@2@@physx@@KAXPEAV?$PxArray@IV?$PxReflectionAllocator@I@physx@@@2@0@Z 0000000180060200 f i GuSDF.obj
 0001:0005f270       ?exportExtraData@SDF@Gu@physx@@QEAAXAEAVPxSerializationContext@3@@Z 0000000180060270 f   GuSDF.obj
 0001:0005f310       ?extractIsosurfaceFromSDF@Gu@physx@@YAXAEBVSDF@12@AEAV?$PxArray@V?$PxVec3T@M@physx@@V?$PxReflectionAllocator@V?$PxVec3T@M@physx@@@2@@2@AEAV?$PxArray@IV?$PxReflectionAllocator@I@physx@@@2@I@Z 0000000180060310 f   GuSDF.obj
 0001:0005fc00       ?extractIsosurfaceFromSDFSerial@Gu@physx@@YAXAEBVSDF@12@AEAV?$PxArray@V?$PxVec3T@M@physx@@V?$PxReflectionAllocator@V?$PxVec3T@M@physx@@@2@@2@AEAV?$PxArray@IV?$PxReflectionAllocator@I@physx@@@2@@Z 0000000180060c00 f   GuSDF.obj
 0001:000609c0       ?find@CellToPoint@Gu@physx@@QEBAPEBV?$PxPair@$$CB_KI@3@HHH@Z 00000001800619c0 f i GuSDF.obj
 0001:00060ad0       ?fixSdfForNonClosedGeometry@Gu@physx@@YAXIIIPEAMAEBV?$PxVec3T@M@2@@Z 0000000180061ad0 f   GuSDF.obj
 0001:00061b20       ?generatePointInCell@Gu@physx@@YA_NAEBVSDF@12@HHHAEAV?$PxVec3T@M@2@QEAY111M@Z 0000000180062b20 f   GuSDF.obj
 0001:00061f70       ?growAndPushBack@?$PxArray@HV?$PxInlineAllocator@$0EAA@V?$PxReflectionAllocator@H@physx@@@physx@@@physx@@IEAAAEAHAEBH@Z 0000000180062f70 f i GuSDF.obj
 0001:00062060       ?growAndPushBack@?$PxArray@MV?$PxReflectionAllocator@M@physx@@@physx@@IEAAAEAMAEBM@Z 0000000180063060 f i GuSDF.obj
 0001:000621d0       ?growAndPushBack@?$PxArray@PEAV?$PxThreadT@V?$PxReflectionAllocator@VPxThreadImpl@physx@@@physx@@@physx@@V?$PxReflectionAllocator@PEAV?$PxThreadT@V?$PxReflectionAllocator@VPxThreadImpl@physx@@@physx@@@physx@@@2@@physx@@IEAAAEAPEAV?$PxThreadT@V?$PxReflectionAllocator@VPxThreadImpl@physx@@@physx@@@2@AEBQEAV32@@Z 00000001800631d0 f i GuSDF.obj
 0001:00062310       ?growAndPushBack@?$PxArray@UIsosurfaceThreadData@Gu@physx@@V?$PxReflectionAllocator@UIsosurfaceThreadData@Gu@physx@@@3@@physx@@IEAAAEAUIsosurfaceThreadData@Gu@2@AEBU342@@Z 0000000180063310 f i GuSDF.obj
 0001:00062500       ?growAndPushBack@?$PxArray@UMutation@Gu@physx@@V?$PxReflectionAllocator@UMutation@Gu@physx@@@3@@physx@@IEAAAEAUMutation@Gu@2@AEBU342@@Z 0000000180063500 f i GuSDF.obj
 0001:00062640       ?growAndPushBack@?$PxArray@URange@Gu@physx@@V?$PxReflectionAllocator@URange@Gu@physx@@@3@@physx@@IEAAAEAURange@Gu@2@AEBU342@@Z 0000000180063640 f i GuSDF.obj
 0001:00062790       ?growAndPushBack@?$PxArray@URange@MeshAnalyzer@Gu@physx@@V?$PxReflectionAllocator@URange@MeshAnalyzer@Gu@physx@@@4@@physx@@IEAAAEAURange@MeshAnalyzer@Gu@2@AEBU3452@@Z 0000000180063790 f i GuSDF.obj
 0001:000628d0       ?growAndPushBack@?$PxArray@USDFCalculationData@Gu@physx@@V?$PxReflectionAllocator@USDFCalculationData@Gu@physx@@@3@@physx@@IEAAAEAUSDFCalculationData@Gu@2@AEBU342@@Z 00000001800638d0 f i GuSDF.obj
 0001:00062a70       ?growAndPushBack@?$PxArray@V?$PxVec3T@M@physx@@V?$PxReflectionAllocator@V?$PxVec3T@M@physx@@@2@@physx@@IEAAAEAV?$PxVec3T@M@2@AEBV32@@Z 0000000180063a70 f i GuSDF.obj
 0001:00062bb0       ?importExtraData@SDF@Gu@physx@@QEAAXAEAVPxDeserializationContext@3@@Z 0000000180063bb0 f   GuSDF.obj
 0001:00062c20       ?populateSubgridCache@Gu@physx@@YAXAEBVSDF@12@AEAV?$PxArray@MV?$PxReflectionAllocator@M@physx@@@2@HHH@Z 0000000180063c20 f i GuSDF.obj
 0001:00062fd0       ?projectPoint@PointOntoTriangleMeshProjector@Gu@physx@@UEAA?AV?$PxVec3T@M@3@AEBV43@@Z 0000000180063fd0 f i GuSDF.obj
 0001:00063040       ?projectPoint@PointOntoTriangleMeshProjector@Gu@physx@@UEAA?AV?$PxVec3T@M@3@AEBV43@AEAI@Z 0000000180064040 f i GuSDF.obj
 0001:000630c0       ?recreate@?$PxArray@HV?$PxReflectionAllocator@H@physx@@@physx@@IEAAXI@Z 00000001800640c0 f i GuSDF.obj
 0001:000631d0       ?recreate@?$PxArray@MV?$PxReflectionAllocator@M@physx@@@physx@@IEAAXI@Z 00000001800641d0 f i GuSDF.obj
 0001:00063320       ?recreate@?$PxArray@PEAUMap@Gu@physx@@V?$PxReflectionAllocator@PEAUMap@Gu@physx@@@3@@physx@@IEAAXI@Z 0000000180064320 f i GuSDF.obj
 0001:00063430       ?recreate@?$PxArray@UBVHNode@Gu@physx@@V?$PxReflectionAllocator@UBVHNode@Gu@physx@@@3@@physx@@IEAAXI@Z 0000000180064430 f i GuSDF.obj
 0001:00063670       ?recreate@?$PxArray@V?$PxVec3T@M@physx@@V?$PxReflectionAllocator@V?$PxVec3T@M@physx@@@2@@physx@@IEAAXI@Z 0000000180064670 f i GuSDF.obj
 0001:00063760       ?release@PointOntoTriangleMeshProjector@Gu@physx@@UEAAXXZ 0000000180064760 f i GuSDF.obj
 0001:000637c0       ?reserveInternal@?$PxHashBase@V?$PxPair@$$CBIU?$ClusterApproximationT@MV?$PxVec3T@M@physx@@@Gu@physx@@@physx@@IU?$PxHash@I@2@UGetKey@?$PxHashMapBase@IU?$ClusterApproximationT@MV?$PxVec3T@M@physx@@@Gu@physx@@U?$PxHash@I@3@VPxAllocator@3@@2@VPxAllocator@2@$00@physx@@AEAAXI@Z 00000001800647c0 f i GuSDF.obj
 0001:000639d0       ?reserveInternal@?$PxHashBase@V?$PxPair@$$CBUSortedTriangle@Gu@physx@@H@physx@@USortedTriangle@Gu@2@UTriangleHash@42@UGetKey@?$PxHashMapBase@USortedTriangle@Gu@physx@@HUTriangleHash@23@VPxAllocator@3@@2@VPxAllocator@2@$00@physx@@AEAAXI@Z 00000001800649d0 f i GuSDF.obj
 0001:00063b70       ?reserveInternal@?$PxHashBase@V?$PxPair@$$CB_KH@physx@@_KU?$PxHash@_K@2@UGetKey@?$PxHashMapBase@_KHU?$PxHash@_K@physx@@VPxAllocator@2@@2@VPxAllocator@2@$00@physx@@AEAAXI@Z 0000000180064b70 f i GuSDF.obj
 0001:00063b70       ?reserveInternal@?$PxHashBase@V?$PxPair@$$CB_KI@physx@@_KU?$PxHash@_K@2@UGetKey@?$PxHashMapBase@_KIU?$PxHash@_K@physx@@VPxAllocator@2@@2@VPxAllocator@2@$00@physx@@AEAAXI@Z 0000000180064b70 f i GuSDF.obj
 0001:00063d60       ?resize@?$PxArray@IV?$PxReflectionAllocator@I@physx@@@physx@@QEAAXIAEBI@Z 0000000180064d60 f i GuSDF.obj
 0001:00063e20       ?resize@?$PxArray@MV?$PxReflectionAllocator@M@physx@@@physx@@QEAAXIAEBM@Z 0000000180064e20 f i GuSDF.obj
 0001:00063f20       ?resize@?$PxArray@PEAUMap@Gu@physx@@V?$PxReflectionAllocator@PEAUMap@Gu@physx@@@3@@physx@@QEAAXIAEBQEAUMap@Gu@2@@Z 0000000180064f20 f i GuSDF.obj
 0001:00063fe0       ?resize@?$PxArray@UBVHNode@Gu@physx@@V?$PxReflectionAllocator@UBVHNode@Gu@physx@@@3@@physx@@QEAAXIAEBUBVHNode@Gu@2@@Z 0000000180064fe0 f i GuSDF.obj
 0001:00064150       ?sampleSDFDirect@DenseSDF@Gu@physx@@QEAAMAEBV?$PxVec3T@M@3@@Z 0000000180065150 f i GuSDF.obj
 0001:00064300       ?signedVolume@Gu@physx@@YAMPEBV?$PxVec3T@M@2@PEBII1I@Z 0000000180065300 f   GuSDF.obj
 0001:00064760       ?windingNumbers@Gu@physx@@YAXPEBV?$PxVec3T@M@2@PEBIIIIIPEAMV32@3PEAV32@@Z 0000000180065760 f   GuSDF.obj
 0001:00064bc0       ?windingNumbersInsideCheck@Gu@physx@@YAXPEBV?$PxVec3T@M@2@PEBIIIIIPEA_NV32@3PEAV32@@Z 0000000180065bc0 f   GuSDF.obj
 0001:000655a0       ??$gjk@U?$RelativeConvex@UCustomConvexV@@@Gu@physx@@U?$LocalConvex@UCustomConvexV@@@23@@Gu@physx@@YA?AW4GjkStatus@01@AEBU?$RelativeConvex@UCustomConvexV@@@01@AEBU?$LocalConvex@UCustomConvexV@@@01@AEBT__m128@@2AEAT5@333@Z 00000001800665a0 f i GuGjkQuery.obj
 0001:00066240       ??$gjkPenetration@U?$RelativeConvex@UCustomConvexV@@@Gu@physx@@U?$LocalConvex@UCustomConvexV@@@23@@Gu@physx@@YA?AW4GjkStatus@01@AEBU?$RelativeConvex@UCustomConvexV@@@01@AEBU?$LocalConvex@UCustomConvexV@@@01@AEBT__m128@@2_NPEIAE4PEIAT5@5AEAEAEAUGjkOutput@01@@Z 0000000180067240 f i GuGjkQuery.obj
 0001:00067d60       ??$gjkPenetration@U?$RelativeConvex@UCustomConvexV@@@Gu@physx@@U?$LocalConvex@UCustomConvexV@@@23@@Gu@physx@@YA?AW4GjkStatus@01@AEBU?$RelativeConvex@UCustomConvexV@@@01@AEBU?$LocalConvex@UCustomConvexV@@@01@AEBT__m128@@2_NPEIAT5@4AEAEAEAUGjkOutput@01@@Z 0000000180068d60 f i GuGjkQuery.obj
 0001:00067dc0       ??$gjkRaycast@U?$RelativeConvex@UCustomConvexV@@@Gu@physx@@U?$LocalConvex@UCustomConvexV@@@23@@Gu@physx@@YA_NAEBU?$RelativeConvex@UCustomConvexV@@@01@AEBU?$LocalConvex@UCustomConvexV@@@01@AEBT__m128@@222AEAT4@33M@Z 0000000180068dc0 f i GuGjkQuery.obj
 0001:00068b40       ??$gjkRaycast@U?$RelativeConvex@UCustomConvexV@@@Gu@physx@@U?$LocalConvex@UPointConvexV@@@23@@Gu@physx@@YA_NAEBU?$RelativeConvex@UCustomConvexV@@@01@AEBU?$LocalConvex@UPointConvexV@@@01@AEBT__m128@@222AEAT4@33M@Z 0000000180069b40 f i GuGjkQuery.obj
 0001:000697b0       ?overlap@PxGjkQuery@physx@@SA_NAEBUSupport@12@0AEBV?$PxTransformT@M@2@1@Z 000000018006a7b0 f   GuGjkQuery.obj
 0001:00069b50       ?proximityInfo@PxGjkQuery@physx@@SA_NAEBUSupport@12@0AEBV?$PxTransformT@M@2@1MMAEAV?$PxVec3T@M@2@22AEAM@Z 000000018006ab50 f   GuGjkQuery.obj
 0001:0006a8c0       ?raycast@PxGjkQuery@physx@@SA_NAEBUSupport@12@AEBV?$PxTransformT@M@2@AEBV?$PxVec3T@M@2@2MAEAMAEAV52@4@Z 000000018006b8c0 f   GuGjkQuery.obj
 0001:0006adb0       ?support@?$LocalConvex@UCustomConvexV@@@Gu@physx@@UEBA?AT__m128@@AEBT4@@Z 000000018006bdb0 f i GuGjkQuery.obj
 0001:0006ae20       ?support@?$LocalConvex@UCustomConvexV@@@Gu@physx@@UEBA?AT__m128@@AEBT4@AEAH@Z 000000018006be20 f i GuGjkQuery.obj
 0001:0006aea0       ?support@?$LocalConvex@UPointConvexV@@@Gu@physx@@UEBA?AT__m128@@AEBT4@@Z 000000018006bea0 f i GuGjkQuery.obj
 0001:0006aea0       ?supportPoint@?$LocalConvex@UPointConvexV@@@Gu@physx@@UEBA?AT__m128@@H@Z 000000018006bea0 f i GuGjkQuery.obj
 0001:0006aeb0       ?support@?$LocalConvex@UPointConvexV@@@Gu@physx@@UEBA?AT__m128@@AEBT4@AEAH@Z 000000018006beb0 f i GuGjkQuery.obj
 0001:0006aed0       ?support@?$RelativeConvex@UCustomConvexV@@@Gu@physx@@UEBA?AT__m128@@AEBT4@@Z 000000018006bed0 f i GuGjkQuery.obj
 0001:0006afa0       ?support@?$RelativeConvex@UCustomConvexV@@@Gu@physx@@UEBA?AT__m128@@AEBT4@AEAH@Z 000000018006bfa0 f i GuGjkQuery.obj
 0001:0006b070       ?supportPoint@?$LocalConvex@UCustomConvexV@@@Gu@physx@@UEBA?AT__m128@@H@Z 000000018006c070 f i GuGjkQuery.obj
 0001:0006b0d0       ?supportPoint@?$RelativeConvex@UCustomConvexV@@@Gu@physx@@UEBA?AT__m128@@H@Z 000000018006c0d0 f i GuGjkQuery.obj
 0001:0006b170       ?sweep@PxGjkQuery@physx@@SA_NAEBUSupport@12@0AEBV?$PxTransformT@M@2@1AEBV?$PxVec3T@M@2@MAEAMAEAV52@4@Z 000000018006c170 f   GuGjkQuery.obj
 0001:0006b930       ??$approximateCluster@MV?$PxVec3T@M@physx@@@Gu@physx@@YAXAEBV?$PxArray@HV?$PxReflectionAllocator@H@physx@@@1@IIPEBIPEBV?$PxVec3T@M@1@AEBV?$PxArray@MV?$PxReflectionAllocator@M@physx@@@1@AEBV?$PxArray@V?$PxVec3T@M@physx@@V?$PxReflectionAllocator@V?$PxVec3T@M@physx@@@2@@1@4AEAU?$ClusterApproximationT@MV?$PxVec3T@M@physx@@@01@@Z 000000018006c930 f i GuWindingNumber.obj
 0001:0006bfd0       ??$precomputeClusterInformation@MV?$PxVec3T@M@physx@@@Gu@physx@@YAXHPEBUBVHNode@01@PEBIIPEBV?$PxVec3T@M@1@AEAV?$PxHashMap@IU?$ClusterApproximationT@MV?$PxVec3T@M@physx@@@Gu@physx@@U?$PxHash@I@3@VPxAllocator@3@@1@V?$PxArray@MV?$PxReflectionAllocator@M@physx@@@1@AEBV?$PxArray@V?$PxVec3T@M@physx@@V?$PxReflectionAllocator@V?$PxVec3T@M@physx@@@2@@1@5@Z 000000018006cfd0 f i GuWindingNumber.obj
 0001:0006c3b0       ??$precomputeClusterInformation@MV?$PxVec3T@M@physx@@@Gu@physx@@YAXPEBUBVHNode@01@PEBIIPEBV?$PxVec3T@M@1@AEAV?$PxHashMap@IU?$ClusterApproximationT@MV?$PxVec3T@M@physx@@@Gu@physx@@U?$PxHash@I@3@VPxAllocator@3@@1@H@Z 000000018006d3b0 f i GuWindingNumber.obj
 0001:0006c7c0       ??$traverseBVH@V?$WindingNumberTraversalController@MV?$PxVec3T@M@physx@@@Gu@physx@@@Gu@physx@@YAXPEBUBVHNode@01@AEAV?$WindingNumberTraversalController@MV?$PxVec3T@M@physx@@@01@H@Z 000000018006d7c0 f i GuWindingNumber.obj
 0001:0006cd50       ?computeWindingNumber@Gu@physx@@YAMAEBV?$PxVec3T@M@2@PEBIIPEBV32@@Z 000000018006dd50 f   GuWindingNumber.obj
 0001:0006d080       ?computeWindingNumber@Gu@physx@@YAMPEBUBVHNode@12@AEBV?$PxVec3T@M@2@AEBV?$PxHashMap@IU?$ClusterApproximationT@MV?$PxVec3T@M@physx@@@Gu@physx@@U?$PxHash@I@3@VPxAllocator@3@@2@PEBIPEBV42@@Z 000000018006e080 f   GuWindingNumber.obj
 0001:0006d0f0       ?computeWindingNumber@Gu@physx@@YAMPEBUBVHNode@12@AEBV?$PxVec3T@M@2@MAEBV?$PxHashMap@IU?$ClusterApproximationT@MV?$PxVec3T@M@physx@@@Gu@physx@@U?$PxHash@I@3@VPxAllocator@3@@2@PEBIPEBV42@@Z 000000018006e0f0 f   GuWindingNumber.obj
 0001:0006d160       ?create@?$PxHashBase@V?$PxPair@$$CBIU?$ClusterApproximationT@MV?$PxVec3T@M@physx@@@Gu@physx@@@physx@@IU?$PxHash@I@2@UGetKey@?$PxHashMapBase@IU?$ClusterApproximationT@MV?$PxVec3T@M@physx@@@Gu@physx@@U?$PxHash@I@3@VPxAllocator@3@@2@VPxAllocator@2@$00@physx@@QEAAPEAV?$PxPair@$$CBIU?$ClusterApproximationT@MV?$PxVec3T@M@physx@@@Gu@physx@@@2@AEBIAEA_N@Z 000000018006e160 f i GuWindingNumber.obj
 0001:0006d2c0       ?growAndPushBack@?$PxArray@HV?$PxReflectionAllocator@H@physx@@@physx@@IEAAAEAHAEBH@Z 000000018006e2c0 f i GuWindingNumber.obj
 0001:0006d400       ?growAndPushBack@?$PxArray@USection@Gu@physx@@V?$PxReflectionAllocator@USection@Gu@physx@@@3@@physx@@IEAAAEAUSection@Gu@2@AEBU342@@Z 000000018006e400 f i GuWindingNumber.obj
 0001:0006d540       ?precomputeClusterInformation@Gu@physx@@YAXPEBUBVHNode@12@PEBIIPEBV?$PxVec3T@M@2@AEAV?$PxHashMap@IU?$ClusterApproximationT@MV?$PxVec3T@M@physx@@@Gu@physx@@U?$PxHash@I@3@VPxAllocator@3@@2@H@Z 000000018006e540 f   GuWindingNumber.obj
 0001:0006d550       ?resize@?$PxArray@V?$PxVec3T@M@physx@@V?$PxReflectionAllocator@V?$PxVec3T@M@physx@@@2@@physx@@QEAAXIAEBV?$PxVec3T@M@2@@Z 000000018006e550 f i GuWindingNumber.obj
 0001:0006d640       ?computeMassInfo@Gu@physx@@YAXAEBVPxConvexCoreGeometry@2@AEAMAEAV?$PxMat33T@M@2@AEAV?$PxVec3T@M@2@@Z 000000018006e640 f   GuConvexGeometry.obj
 0001:0006df80       ?coneRadiusAtHeight@aux@@YAMMMMM@Z 000000018006ef80 f   GuConvexGeometry.obj
 0001:000704f0       ?isGPUCompatible@Gu@physx@@YA_NAEBVPxConvexCoreGeometry@2@@Z 00000001800714f0 f   GuConvexGeometry.obj
 0001:00070530       ?isValid@PxConvexCoreGeometry@physx@@QEBA_NXZ 0000000180071530 f   GuConvexGeometry.obj
 0001:00070630       ?makeConvexShape@Gu@physx@@YA_NAEBVPxGeometry@2@AEBV?$PxTransformT@M@2@AEAUConvexShape@12@@Z 0000000180071630 f   GuConvexGeometry.obj
 0001:000707c0       ?visualize@Gu@physx@@YAXAEBVPxConvexCoreGeometry@2@AEBV?$PxTransformT@M@2@_NAEBVPxBounds3@2@AEAVPxRenderOutput@2@@Z 00000001800717c0 f   GuConvexGeometry.obj
 0001:00070d00       ?generateContacts@Gu@physx@@YAIAEBVPxPlane@2@AEBUConvexShape@12@MAEAV?$PxVec3T@M@2@QEAV52@QEAM@Z 0000000180071d00 f   GuConvexSupport.obj
 0001:00071210       ?SweepAnyShapeHeightfield@Gu@physx@@YAMAEBUCCDShape@12@0AEBUPxTransformPadded@2@111MAEAV?$PxVec3T@M@2@2MAEAIM@Z 0000000180072210 f   GuCCDSweepConvexMesh.obj
 0001:00072770       ?SweepAnyShapeMesh@Gu@physx@@YAMAEBUCCDShape@12@0AEBUPxTransformPadded@2@111MAEAV?$PxVec3T@M@2@2MAEAIM@Z 0000000180073770 f   GuCCDSweepConvexMesh.obj
 0001:00073dc0       ?SweepEstimateAnyShapeHeightfield@Gu@physx@@YAMAEBUCCDShape@12@0MM@Z 0000000180074dc0 f   GuCCDSweepConvexMesh.obj
 0001:00074a20       ?SweepEstimateAnyShapeMesh@Gu@physx@@YAMAEBUCCDShape@12@0MM@Z 0000000180075a20 f   GuCCDSweepConvexMesh.obj
 0001:00074cc0       ?allocate@?$PxArray@IV?$PxInlineAllocator@$0BAA@V?$PxReflectionAllocator@I@physx@@@physx@@@physx@@IEAAPEAIIPEAI@Z 0000000180075cc0 f i GuCCDSweepConvexMesh.obj
 0001:000757f0       ?growAndPushBack@?$PxArray@IV?$PxInlineAllocator@$0BAA@V?$PxReflectionAllocator@I@physx@@@physx@@@physx@@IEAAAEAIAEBI@Z 00000001800767f0 f i GuCCDSweepConvexMesh.obj
 0001:00075e40       ?recreate@?$PxArray@IV?$PxInlineAllocator@$0BAA@V?$PxReflectionAllocator@I@physx@@@physx@@@physx@@IEAAXI@Z 0000000180076e40 f i GuCCDSweepConvexMesh.obj
 0001:00075f90       ?resize@?$PxArray@IV?$PxInlineAllocator@$0BAA@V?$PxReflectionAllocator@I@physx@@@physx@@@physx@@QEAAXIAEBI@Z 0000000180076f90 f i GuCCDSweepConvexMesh.obj
 0001:00076060       ?transformBoxOrthonormal@physx@@YA?AVBox@Gu@1@AEBV231@AEBV?$PxTransformT@M@1@@Z 0000000180077060 f i GuCCDSweepConvexMesh.obj
 0001:000764f0       ?UnimplementedSweep@Gu@physx@@YAMAEBUCCDShape@12@0AEBUPxTransformPadded@2@111MAEAV?$PxVec3T@M@2@2MAEAIM@Z 00000001800774f0 f   GuCCDSweepPrimitives.obj
 0001:00079cb0       ?UnimplementedTriangleSweep@Gu@physx@@YAMAEBVPxGeometry@2@0AEBUPxTransformPadded@2@111MAEAV?$PxVec3T@M@2@2AEBVFastVertex2ShapeScaling@Cm@2@AEAVTriangleV@12@M@Z 000000018007acb0 f   GuCCDSweepPrimitives.obj
 0001:00079cc0       ??$SweepGeomTriangles@VCapsuleV@Gu@physx@@@Gu@physx@@YAMAEBVPxGeometry@1@0AEBUPxTransformPadded@1@111MAEAV?$PxVec3T@M@1@2AEBVFastVertex2ShapeScaling@Cm@1@AEAVTriangleV@01@M@Z 000000018007acc0 f i GuCCDSweepPrimitives.obj
 0001:0007a3e0       ??$SweepGeomTriangles@VBoxV@Gu@physx@@@Gu@physx@@YAMAEBVPxGeometry@1@0AEBUPxTransformPadded@1@111MAEAV?$PxVec3T@M@1@2AEBVFastVertex2ShapeScaling@Cm@1@AEAVTriangleV@01@M@Z 000000018007b3e0 f i GuCCDSweepPrimitives.obj
 0001:0007ab10       ??$SweepGeomTriangles@VConvexHullV@Gu@physx@@@Gu@physx@@YAMAEBVPxGeometry@1@0AEBUPxTransformPadded@1@111MAEAV?$PxVec3T@M@1@2AEBVFastVertex2ShapeScaling@Cm@1@AEAVTriangleV@01@M@Z 000000018007bb10 f i GuCCDSweepPrimitives.obj
 0001:0007b3d0       ??$gjkPenetration@U?$RelativeConvex@VCapsuleV@Gu@physx@@@Gu@physx@@U?$LocalConvex@VBoxV@Gu@physx@@@23@@Gu@physx@@YA?AW4GjkStatus@01@AEBU?$RelativeConvex@VCapsuleV@Gu@physx@@@01@AEBU?$LocalConvex@VBoxV@Gu@physx@@@01@AEBT__m128@@2_NPEIAE4AEAEAEAUGjkOutput@01@@Z 000000018007c3d0 f i GuCCDSweepPrimitives.obj
 0001:0007b440       ??$gjkPenetration@U?$RelativeConvex@VCapsuleV@Gu@physx@@@Gu@physx@@U?$LocalConvex@VBoxV@Gu@physx@@@23@@Gu@physx@@YA?AW4GjkStatus@01@AEBU?$RelativeConvex@VCapsuleV@Gu@physx@@@01@AEBU?$LocalConvex@VBoxV@Gu@physx@@@01@AEBT__m128@@2_NPEIAE4PEIAT5@5AEAEAEAUGjkOutput@01@@Z 000000018007c440 f i GuCCDSweepPrimitives.obj
 0001:0007cf00       ??$gjkPenetration@U?$RelativeConvex@VCapsuleV@Gu@physx@@@Gu@physx@@U?$LocalConvex@VCapsuleV@Gu@physx@@@23@@Gu@physx@@YA?AW4GjkStatus@01@AEBU?$RelativeConvex@VCapsuleV@Gu@physx@@@01@AEBU?$LocalConvex@VCapsuleV@Gu@physx@@@01@AEBT__m128@@2_NPEIAE4AEAEAEAUGjkOutput@01@@Z 000000018007df00 f i GuCCDSweepPrimitives.obj
 0001:0007cf70       ??$gjkPenetration@U?$RelativeConvex@VCapsuleV@Gu@physx@@@Gu@physx@@U?$LocalConvex@VCapsuleV@Gu@physx@@@23@@Gu@physx@@YA?AW4GjkStatus@01@AEBU?$RelativeConvex@VCapsuleV@Gu@physx@@@01@AEBU?$LocalConvex@VCapsuleV@Gu@physx@@@01@AEBT__m128@@2_NPEIAE4PEIAT5@5AEAEAEAUGjkOutput@01@@Z 000000018007df70 f i GuCCDSweepPrimitives.obj
 0001:0007ea20       ??$gjkPenetration@U?$RelativeConvex@VCapsuleV@Gu@physx@@@Gu@physx@@U?$LocalConvex@VConvexHullV@Gu@physx@@@23@@Gu@physx@@YA?AW4GjkStatus@01@AEBU?$RelativeConvex@VCapsuleV@Gu@physx@@@01@AEBU?$LocalConvex@VConvexHullV@Gu@physx@@@01@AEBT__m128@@2_NPEIAE4AEAEAEAUGjkOutput@01@@Z 000000018007fa20 f i GuCCDSweepPrimitives.obj
 0001:0007ea90       ??$gjkPenetration@U?$RelativeConvex@VCapsuleV@Gu@physx@@@Gu@physx@@U?$LocalConvex@VConvexHullV@Gu@physx@@@23@@Gu@physx@@YA?AW4GjkStatus@01@AEBU?$RelativeConvex@VCapsuleV@Gu@physx@@@01@AEBU?$LocalConvex@VConvexHullV@Gu@physx@@@01@AEBT__m128@@2_NPEIAE4PEIAT5@5AEAEAEAUGjkOutput@01@@Z 000000018007fa90 f i GuCCDSweepPrimitives.obj
 0001:000805d0       ??$gjkPenetration@U?$RelativeConvex@VTriangleV@Gu@physx@@@Gu@physx@@U?$LocalConvex@VBoxV@Gu@physx@@@23@@Gu@physx@@YA?AW4GjkStatus@01@AEBU?$RelativeConvex@VTriangleV@Gu@physx@@@01@AEBU?$LocalConvex@VBoxV@Gu@physx@@@01@AEBT__m128@@2_NPEIAE4AEAEAEAUGjkOutput@01@@Z 00000001800815d0 f i GuCCDSweepPrimitives.obj
 0001:00080640       ??$gjkPenetration@U?$RelativeConvex@VTriangleV@Gu@physx@@@Gu@physx@@U?$LocalConvex@VBoxV@Gu@physx@@@23@@Gu@physx@@YA?AW4GjkStatus@01@AEBU?$RelativeConvex@VTriangleV@Gu@physx@@@01@AEBU?$LocalConvex@VBoxV@Gu@physx@@@01@AEBT__m128@@2_NPEIAE4PEIAT5@5AEAEAEAUGjkOutput@01@@Z 0000000180081640 f i GuCCDSweepPrimitives.obj
 0001:00082140       ??$gjkPenetration@U?$RelativeConvex@VTriangleV@Gu@physx@@@Gu@physx@@U?$LocalConvex@VCapsuleV@Gu@physx@@@23@@Gu@physx@@YA?AW4GjkStatus@01@AEBU?$RelativeConvex@VTriangleV@Gu@physx@@@01@AEBU?$LocalConvex@VCapsuleV@Gu@physx@@@01@AEBT__m128@@2_NPEIAE4AEAEAEAUGjkOutput@01@@Z 0000000180083140 f i GuCCDSweepPrimitives.obj
 0001:000821b0       ??$gjkPenetration@U?$RelativeConvex@VTriangleV@Gu@physx@@@Gu@physx@@U?$LocalConvex@VCapsuleV@Gu@physx@@@23@@Gu@physx@@YA?AW4GjkStatus@01@AEBU?$RelativeConvex@VTriangleV@Gu@physx@@@01@AEBU?$LocalConvex@VCapsuleV@Gu@physx@@@01@AEBT__m128@@2_NPEIAE4PEIAT5@5AEAEAEAUGjkOutput@01@@Z 00000001800831b0 f i GuCCDSweepPrimitives.obj
 0001:00083cc0       ??$gjkPenetration@U?$RelativeConvex@VTriangleV@Gu@physx@@@Gu@physx@@U?$LocalConvex@VConvexHullV@Gu@physx@@@23@@Gu@physx@@YA?AW4GjkStatus@01@AEBU?$RelativeConvex@VTriangleV@Gu@physx@@@01@AEBU?$LocalConvex@VConvexHullV@Gu@physx@@@01@AEBT__m128@@2_NPEIAE4AEAEAEAUGjkOutput@01@@Z 0000000180084cc0 f i GuCCDSweepPrimitives.obj
 0001:00083d30       ??$gjkPenetration@U?$RelativeConvex@VTriangleV@Gu@physx@@@Gu@physx@@U?$LocalConvex@VConvexHullV@Gu@physx@@@23@@Gu@physx@@YA?AW4GjkStatus@01@AEBU?$RelativeConvex@VTriangleV@Gu@physx@@@01@AEBU?$LocalConvex@VConvexHullV@Gu@physx@@@01@AEBT__m128@@2_NPEIAE4PEIAT5@5AEAEAEAUGjkOutput@01@@Z 0000000180084d30 f i GuCCDSweepPrimitives.obj
 0001:000858d0       ??$gjkRaycast@U?$RelativeConvex@VCapsuleV@Gu@physx@@@Gu@physx@@U?$LocalConvex@VBoxV@Gu@physx@@@23@@Gu@physx@@YA_NAEBU?$RelativeConvex@VCapsuleV@Gu@physx@@@01@AEBU?$LocalConvex@VBoxV@Gu@physx@@@01@AEBT__m128@@222AEAT4@33M@Z 00000001800868d0 f i GuCCDSweepPrimitives.obj
 0001:00086560       ??$gjkRaycast@U?$RelativeConvex@VCapsuleV@Gu@physx@@@Gu@physx@@U?$LocalConvex@VCapsuleV@Gu@physx@@@23@@Gu@physx@@YA_NAEBU?$RelativeConvex@VCapsuleV@Gu@physx@@@01@AEBU?$LocalConvex@VCapsuleV@Gu@physx@@@01@AEBT__m128@@222AEAT4@33M@Z 0000000180087560 f i GuCCDSweepPrimitives.obj
 0001:00087260       ??$gjkRaycast@U?$RelativeConvex@VCapsuleV@Gu@physx@@@Gu@physx@@U?$LocalConvex@VConvexHullV@Gu@physx@@@23@@Gu@physx@@YA_NAEBU?$RelativeConvex@VCapsuleV@Gu@physx@@@01@AEBU?$LocalConvex@VConvexHullV@Gu@physx@@@01@AEBT__m128@@222AEAT4@33M@Z 0000000180088260 f i GuCCDSweepPrimitives.obj
 0001:00088090       ??$gjkRaycast@U?$RelativeConvex@VTriangleV@Gu@physx@@@Gu@physx@@U?$LocalConvex@VBoxV@Gu@physx@@@23@@Gu@physx@@YA_NAEBU?$RelativeConvex@VTriangleV@Gu@physx@@@01@AEBU?$LocalConvex@VBoxV@Gu@physx@@@01@AEBT__m128@@222AEAT4@33M@Z 0000000180089090 f i GuCCDSweepPrimitives.obj
 0001:00088dc0       ??$gjkRaycast@U?$RelativeConvex@VTriangleV@Gu@physx@@@Gu@physx@@U?$LocalConvex@VCapsuleV@Gu@physx@@@23@@Gu@physx@@YA_NAEBU?$RelativeConvex@VTriangleV@Gu@physx@@@01@AEBU?$LocalConvex@VCapsuleV@Gu@physx@@@01@AEBT__m128@@222AEAT4@33M@Z 0000000180089dc0 f i GuCCDSweepPrimitives.obj
 0001:00089b80       ??$gjkRaycast@U?$RelativeConvex@VTriangleV@Gu@physx@@@Gu@physx@@U?$LocalConvex@VConvexHullV@Gu@physx@@@23@@Gu@physx@@YA_NAEBU?$RelativeConvex@VTriangleV@Gu@physx@@@01@AEBU?$LocalConvex@VConvexHullV@Gu@physx@@@01@AEBT__m128@@222AEAT4@33M@Z 000000018008ab80 f i GuCCDSweepPrimitives.obj
 0001:0008aa30       ??$gjkRaycastPenetration@U?$RelativeConvex@VCapsuleV@Gu@physx@@@Gu@physx@@U?$LocalConvex@VConvexHullV@Gu@physx@@@23@@Gu@physx@@YA_NAEBU?$RelativeConvex@VCapsuleV@Gu@physx@@@01@AEBU?$LocalConvex@VConvexHullV@Gu@physx@@@01@AEBT__m128@@222AEAT4@33M_N@Z 000000018008ba30 f i GuCCDSweepPrimitives.obj
 0001:0008acc0       ??$gjkRaycastPenetration@U?$RelativeConvex@VTriangleV@Gu@physx@@@Gu@physx@@U?$LocalConvex@VConvexHullV@Gu@physx@@@23@@Gu@physx@@YA_NAEBU?$RelativeConvex@VTriangleV@Gu@physx@@@01@AEBU?$LocalConvex@VConvexHullV@Gu@physx@@@01@AEBT__m128@@222AEAT4@33M_N@Z 000000018008bcc0 f i GuCCDSweepPrimitives.obj
 0001:0008af50       ?SweepShapeShape@Gu@physx@@YAMAEBUCCDShape@12@0AEBUPxTransformPadded@2@111MAEAV?$PxVec3T@M@2@2MAEAIM@Z 000000018008bf50 f   GuCCDSweepPrimitives.obj
 0001:0008af80       ?SweepShapeTriangle@Gu@physx@@YAMAEBVPxGeometry@2@0AEBUPxTransformPadded@2@111MAEAV?$PxVec3T@M@2@2AEBVFastVertex2ShapeScaling@Cm@2@AEAVTriangleV@12@M@Z 000000018008bf80 f   GuCCDSweepPrimitives.obj
 0001:0008afa0       ?support@?$RelativeConvex@VCapsuleV@Gu@physx@@@Gu@physx@@UEBA?AT__m128@@AEBT4@@Z 000000018008bfa0 f i GuCCDSweepPrimitives.obj
 0001:0008b050       ?support@?$RelativeConvex@VCapsuleV@Gu@physx@@@Gu@physx@@UEBA?AT__m128@@AEBT4@AEAH@Z 000000018008c050 f i GuCCDSweepPrimitives.obj
 0001:0008b110       ?support@?$RelativeConvex@VTriangleV@Gu@physx@@@Gu@physx@@UEBA?AT__m128@@AEBT4@@Z 000000018008c110 f i GuCCDSweepPrimitives.obj
 0001:0008b1f0       ?support@?$RelativeConvex@VTriangleV@Gu@physx@@@Gu@physx@@UEBA?AT__m128@@AEBT4@AEAH@Z 000000018008c1f0 f i GuCCDSweepPrimitives.obj
 0001:0008b330       ?supportPoint@?$RelativeConvex@VCapsuleV@Gu@physx@@@Gu@physx@@UEBA?AT__m128@@H@Z 000000018008c330 f i GuCCDSweepPrimitives.obj
 0001:0008b390       ?supportPoint@?$RelativeConvex@VTriangleV@Gu@physx@@@Gu@physx@@UEBA?AT__m128@@H@Z 000000018008c390 f i GuCCDSweepPrimitives.obj
 0001:0008b3e0       ?barycentricCoordinates@Gu@physx@@YAXAEBT__m128@@000AEAT3@1@Z 000000018008c3e0 f   GuBarycentricCoordinates.obj
 0001:0008b530       ?barycentricCoordinates@Gu@physx@@YAXAEBT__m128@@00AEAT3@@Z 000000018008c530 f   GuBarycentricCoordinates.obj
 0001:0008b5a0       ??$?_UV?$PxReflectionAllocator@VAdjTriangle@Gu@physx@@@physx@@@PxUserAllocated@physx@@SAPEAX_KV?$PxReflectionAllocator@VAdjTriangle@Gu@physx@@@1@PEBDH@Z 000000018008c5a0 f i GuAdjacencies.obj
 0001:0008b690       ??0AdjacenciesBuilder@Gu@physx@@QEAA@XZ 000000018008c690 f   GuAdjacencies.obj
 0001:0008b6a0       ??1AdjacenciesBuilder@Gu@physx@@QEAA@XZ 000000018008c6a0 f   GuAdjacencies.obj
 0001:0008b6f0       ?ComputeNbBoundaryEdges@Adjacencies@Gu@physx@@QEBAIXZ 000000018008c6f0 f   GuAdjacencies.obj
 0001:0008b990       ?Init@AdjacenciesBuilder@Gu@physx@@QEAA_NAEBUADJACENCIESCREATE@23@@Z 000000018008c990 f   GuAdjacencies.obj
 0001:0008bfd0       ??0EdgeList@Gu@physx@@QEAA@XZ 000000018008cfd0 f   GuEdgeList.obj
 0001:0008bff0       ??1EdgeList@Gu@physx@@QEAA@XZ 000000018008cff0 f   GuEdgeList.obj
 0001:0008c0b0       ?computeActiveEdges@EdgeList@Gu@physx@@AEAA_NIPEBIPEBGPEBV?$PxVec3T@M@3@M@Z 000000018008d0b0 f   GuEdgeList.obj
 0001:0008d430       ?createEdgesToFaces@EdgeList@Gu@physx@@AEAA_NIPEBIPEBG@Z 000000018008e430 f   GuEdgeList.obj
 0001:0008d690       ?createFacesToEdges@EdgeList@Gu@physx@@AEAA_NIPEBIPEBG@Z 000000018008e690 f   GuEdgeList.obj
 0001:0008db20       ?init@EdgeList@Gu@physx@@QEAA_NAEBUEDGELISTCREATE@23@@Z 000000018008eb20 f   GuEdgeList.obj
 0001:0008dc60       ?addAxis@SeparatingAxes@Gu@physx@@QEAA_NAEBV?$PxVec3T@M@3@@Z 000000018008ec60 f   GuSeparatingAxes.obj
 0001:0008dd20       ??$kmeans_cluster@V?$PxVec3T@M@physx@@M@@YAIPEBV?$PxVec3T@M@physx@@IIPEAV01@PEAIMM@Z 000000018008ed20 f i GuQuantizer.obj
 0001:0008e700       ??_EQuantizer@Gu@physx@@MEAAPEAXI@Z 000000018008f700 f i GuQuantizer.obj
 0001:0008e700       ??_GQuantizer@Gu@physx@@MEAAPEAXI@Z 000000018008f700 f i GuQuantizer.obj
 0001:0008e730       ??_EQuantizerImpl@@EEAAPEAXI@Z 000000018008f730 f i GuQuantizer.obj
 0001:0008e730       ??_GQuantizerImpl@@EEAAPEAXI@Z 000000018008f730 f i GuQuantizer.obj
 0001:0008e810       ?createQuantizer@Gu@physx@@YAPEAVQuantizer@12@XZ 000000018008f810 f   GuQuantizer.obj
 0001:0008e8c0       ?getDenormalizeCenter@QuantizerImpl@@UEBAAEBV?$PxVec3T@M@physx@@XZ 000000018008f8c0 f i GuQuantizer.obj
 0001:0008e8d0       ?getCurrentAABBTreeBounds@PruningPool@Gu@physx@@QEBAAEBVAABBTreeBounds@23@XZ 000000018008f8d0 f i GuIncrementalAABBPrunerCore.obj
 0001:0008e8d0       ?getDenormalizeScale@QuantizerImpl@@UEBAAEBV?$PxVec3T@M@physx@@XZ 000000018008f8d0 f i GuQuantizer.obj
 0001:0008e8e0       ?kmeansQuantize3D@QuantizerImpl@@UEAAPEBV?$PxVec3T@M@physx@@IPEBV23@I_NIAEAI@Z 000000018008f8e0 f i GuQuantizer.obj
 0001:0008eb50       ?normalizeInput@QuantizerImpl@@AEAAXIPEBV?$PxVec3T@M@physx@@I@Z 000000018008fb50 f i GuQuantizer.obj
 0001:0008ef50       ?release@QuantizerImpl@@UEAAXXZ 000000018008ff50 f i GuQuantizer.obj
 0001:0008ef70       ??0MeshCleaner@Gu@physx@@QEAA@IPEBV?$PxVec3T@M@2@IPEBIMM@Z 000000018008ff70 f   GuMeshCleaner.obj
 0001:0008f9b0       ??1MeshCleaner@Gu@physx@@QEAA@XZ 00000001800909b0 f   GuMeshCleaner.obj
 0001:0008fa40       ??0ReducedVertexCloud@Gu@physx@@QEAA@PEBV?$PxVec3T@M@2@I@Z 0000000180090a40 f   GuVertexReducer.obj
 0001:0008fa60       ??1ReducedVertexCloud@Gu@physx@@QEAA@XZ 0000000180090a60 f   GuVertexReducer.obj
 0001:0008fa70       ?clean@ReducedVertexCloud@Gu@physx@@QEAAAEAV123@XZ 0000000180090a70 f   GuVertexReducer.obj
 0001:0008fae0       ?reduce@ReducedVertexCloud@Gu@physx@@QEAA_NPEAUREDUCEDCLOUD@23@@Z 0000000180090ae0 f   GuVertexReducer.obj
 0001:0008fd90       ?buildConsistentTriangleOrientationMap@MeshAnalyzer@Gu@physx@@SA_NPEBU?$IndexedTriangleT@H@23@IAEAV?$PxArray@_NV?$PxReflectionAllocator@_N@physx@@@3@AEAV?$PxHashMap@_KHU?$PxHash@_K@physx@@VPxAllocator@2@@3@AEAV?$PxArray@V?$PxArray@IV?$PxReflectionAllocator@I@physx@@@physx@@V?$PxReflectionAllocator@V?$PxArray@IV?$PxReflectionAllocator@I@physx@@@physx@@@2@@3@@Z 0000000180090d90 f   GuMeshAnalysis.obj
 0001:00090300       ?buildTriangleAdjacency@MeshAnalyzer@Gu@physx@@SA_NPEBU?$IndexedTriangleT@H@23@IAEAV?$PxArray@HV?$PxReflectionAllocator@H@physx@@@3@AEAV?$PxHashMap@_KHU?$PxHash@_K@physx@@VPxAllocator@2@@3@@Z 0000000180091300 f   GuMeshAnalysis.obj
 0001:00090610       ?checkConsistentTriangleOrientation@MeshAnalyzer@Gu@physx@@SA_NPEBU?$IndexedTriangleT@H@23@I@Z 0000000180091610 f   GuMeshAnalysis.obj
 0001:00090760       ?checkMeshWatertightness@MeshAnalyzer@Gu@physx@@SA_NPEBU?$IndexedTriangleT@H@23@I_N@Z 0000000180091760 f   GuMeshAnalysis.obj
 0001:00090930       ?erase@?$PxHashBase@V?$PxPair@$$CB_KH@physx@@_KU?$PxHash@_K@2@UGetKey@?$PxHashMapBase@_KHU?$PxHash@_K@physx@@VPxAllocator@2@@2@VPxAllocator@2@$00@physx@@QEAA_NAEB_K@Z 0000000180091930 f i GuMeshAnalysis.obj
 0001:00090ae0       ?growAndPushBack@?$PxArray@V?$PxArray@IV?$PxReflectionAllocator@I@physx@@@physx@@V?$PxReflectionAllocator@V?$PxArray@IV?$PxReflectionAllocator@I@physx@@@physx@@@2@@physx@@IEAAAEAV?$PxArray@IV?$PxReflectionAllocator@I@physx@@@2@AEBV32@@Z 0000000180091ae0 f i GuMeshAnalysis.obj
 0001:00090c50       ?makeTriOrientationConsistent@MeshAnalyzer@Gu@physx@@SA_NPEAU?$IndexedTriangleT@H@23@I_N@Z 0000000180091c50 f   GuMeshAnalysis.obj
 0001:00090dc0       ?recreate@?$PxArray@_NV?$PxReflectionAllocator@_N@physx@@@physx@@IEAAXI@Z 0000000180091dc0 f i GuMeshAnalysis.obj
 0001:00090ec0       ?resize@?$PxArray@HV?$PxReflectionAllocator@H@physx@@@physx@@QEAAXIAEBH@Z 0000000180091ec0 f i GuMeshAnalysis.obj
 0001:00090f80       ?resize@?$PxArray@_NV?$PxReflectionAllocator@_N@physx@@@physx@@QEAAXIAEB_N@Z 0000000180091f80 f i GuMeshAnalysis.obj
 0001:00091040       ?contactBoxBox@Gu@physx@@YA_NAEBVPxGeometry@2@0AEBUPxTransformPadded@2@1AEBUNarrowPhaseParams@12@AEAUCache@12@AEAVPxContactBuffer@2@PEAVPxRenderOutput@2@@Z 0000000180092040 f   GuContactBoxBox.obj
 0001:00094ce0       ?contactCapsuleBox@Gu@physx@@YA_NAEBVPxGeometry@2@0AEBUPxTransformPadded@2@1AEBUNarrowPhaseParams@12@AEAUCache@12@AEAVPxContactBuffer@2@PEAVPxRenderOutput@2@@Z 0000000180095ce0 f   GuContactCapsuleBox.obj
 0001:000954e0       ?contactCapsuleCapsule@Gu@physx@@YA_NAEBVPxGeometry@2@0AEBUPxTransformPadded@2@1AEBUNarrowPhaseParams@12@AEAUCache@12@AEAVPxContactBuffer@2@PEAVPxRenderOutput@2@@Z 00000001800964e0 f   GuContactCapsuleCapsule.obj
 0001:00097fa0       ?contactCapsuleConvex@Gu@physx@@YA_NAEBVPxGeometry@2@0AEBUPxTransformPadded@2@1AEBUNarrowPhaseParams@12@AEAUCache@12@AEAVPxContactBuffer@2@PEAVPxRenderOutput@2@@Z 0000000180098fa0 f   GuContactCapsuleConvex.obj
 0001:0009a500       ?contactCapsuleHeightfield@Gu@physx@@YA_NAEBVPxGeometry@2@0AEBUPxTransformPadded@2@1AEBUNarrowPhaseParams@12@AEAUCache@12@AEAVPxContactBuffer@2@PEAVPxRenderOutput@2@@Z 000000018009b500 f   GuContactCapsuleMesh.obj
 0001:0009acc0       ?contactCapsuleMesh@Gu@physx@@YA_NAEBVPxGeometry@2@0AEBUPxTransformPadded@2@1AEBUNarrowPhaseParams@12@AEAUCache@12@AEAVPxContactBuffer@2@PEAVPxRenderOutput@2@@Z 000000018009bcc0 f   GuContactCapsuleMesh.obj
 0001:0009be30       ?transformQueryBounds@FastVertex2ShapeScaling@Cm@physx@@QEBAXAEAV?$PxVec3T@M@3@0AEAV?$PxMat33T@M@3@@Z 000000018009ce30 f i GuContactCapsuleMesh.obj
 0001:000a01b0       ?contactBoxConvex@Gu@physx@@YA_NAEBVPxGeometry@2@0AEBUPxTransformPadded@2@1AEBUNarrowPhaseParams@12@AEAUCache@12@AEAVPxContactBuffer@2@PEAVPxRenderOutput@2@@Z 00000001800a11b0 f   GuContactConvexConvex.obj
 0001:000a0380       ?contactConvexConvex@Gu@physx@@YA_NAEBVPxGeometry@2@0AEBUPxTransformPadded@2@1AEBUNarrowPhaseParams@12@AEAUCache@12@AEAVPxContactBuffer@2@PEAVPxRenderOutput@2@@Z 00000001800a1380 f   GuContactConvexConvex.obj
 0001:000a0bb0       ??_EConvexMeshContactGenerationCallback@@UEAAPEAXI@Z 00000001800a1bb0 f i GuContactConvexMesh.obj
 0001:000a0bb0       ??_GConvexMeshContactGenerationCallback@@UEAAPEAXI@Z 00000001800a1bb0 f i GuContactConvexMesh.obj
 0001:000a0c10       ?addData@?$CacheMap@UCachedEdge@Gu@physx@@$0IA@@Gu@physx@@QEAA_NAEBUCachedEdge@23@@Z 00000001800a1c10 f i GuContactConvexMesh.obj
 0001:000a0cf0       ?addData@?$CacheMap@UCachedVertex@Gu@physx@@$0IA@@Gu@physx@@QEAA_NAEBUCachedVertex@23@@Z 00000001800a1cf0 f i GuContactConvexMesh.obj
 0001:000a0d90       ?allocate@?$PxArray@IV?$PxInlineAllocator@$0BBAA@V?$PxReflectionAllocator@I@physx@@@physx@@@physx@@IEAAPEAIIPEAI@Z 00000001800a1d90 f i GuContactConvexMesh.obj
 0001:000a1190       ?contactBoxHeightfield@Gu@physx@@YA_NAEBVPxGeometry@2@0AEBUPxTransformPadded@2@1AEBUNarrowPhaseParams@12@AEAUCache@12@AEAVPxContactBuffer@2@PEAVPxRenderOutput@2@@Z 00000001800a2190 f   GuContactConvexMesh.obj
 0001:000a1310       ?contactBoxMesh@Gu@physx@@YA_NAEBVPxGeometry@2@0AEBUPxTransformPadded@2@1AEBUNarrowPhaseParams@12@AEAUCache@12@AEAVPxContactBuffer@2@PEAVPxRenderOutput@2@@Z 00000001800a2310 f   GuContactConvexMesh.obj
 0001:000a14e0       ?contactConvexHeightfield@Gu@physx@@YA_NAEBVPxGeometry@2@0AEBUPxTransformPadded@2@1AEBUNarrowPhaseParams@12@AEAUCache@12@AEAVPxContactBuffer@2@PEAVPxRenderOutput@2@@Z 00000001800a24e0 f   GuContactConvexMesh.obj
 0001:000a1630       ?contactConvexMesh@Gu@physx@@YA_NAEBVPxGeometry@2@0AEBUPxTransformPadded@2@1AEBUNarrowPhaseParams@12@AEAUCache@12@AEAVPxContactBuffer@2@PEAVPxRenderOutput@2@@Z 00000001800a2630 f   GuContactConvexMesh.obj
 0001:000a2a20       ?contains@?$CacheMap@UCachedEdge@Gu@physx@@$0IA@@Gu@physx@@QEBA_NAEBUCachedEdge@23@@Z 00000001800a3a20 f i GuContactConvexMesh.obj
 0001:000a4db0       ?processHit@ConvexMeshContactGenerationCallback@@UEAA_NAEBUPxGeomRaycastHit@physx@@AEBV?$PxVec3T@M@3@11AEAMPEBI@Z 00000001800a5db0 f i GuContactConvexMesh.obj
 0001:000a56d0       ?recreate@?$PxArray@IV?$PxInlineAllocator@$0BBAA@V?$PxReflectionAllocator@I@physx@@@physx@@@physx@@IEAAXI@Z 00000001800a66d0 f i GuContactConvexMesh.obj
 0001:000a73f0       ?addPatch@Contact@Gu@physx@@IEAAXAEBV?$PxVec3T@M@3@AEBUPoint@123@@Z 00000001800a83f0 f i GuContactConvexCoreMesh.obj
 0001:000a77d0       ?addPatchPoint@Contact@Gu@physx@@IEAAXIAEBUPoint@123@@Z 00000001800a87d0 f i GuContactConvexCoreMesh.obj
 0001:000a7af0       ?contactConvexCoreHeightfield@Gu@physx@@YA_NAEBVPxGeometry@2@0AEBUPxTransformPadded@2@1AEBUNarrowPhaseParams@12@AEAUCache@12@AEAVPxContactBuffer@2@PEAVPxRenderOutput@2@@Z 00000001800a8af0 f   GuContactConvexCoreMesh.obj
 0001:000a82d0       ?contactConvexCoreTrimesh@Gu@physx@@YA_NAEBVPxGeometry@2@0AEBUPxTransformPadded@2@1AEBUNarrowPhaseParams@12@AEAUCache@12@AEAVPxContactBuffer@2@PEAVPxRenderOutput@2@@Z 00000001800a92d0 f   GuContactConvexCoreMesh.obj
 0001:000a8a30       ?getTriangleVertexIndices@HeightField@Gu@physx@@QEBAXIAEAI00@Z 00000001800a9a30 f i GuContactConvexCoreMesh.obj
 0001:000a9a30       ?transform@PxMeshScale@physx@@QEBA?AV?$PxVec3T@M@2@AEBV32@@Z 00000001800aaa30 f i GuContactConvexCoreMesh.obj
 0001:000a9c90       ?contactConvexCoreConvex@Gu@physx@@YA_NAEBVPxGeometry@2@0AEBUPxTransformPadded@2@1AEBUNarrowPhaseParams@12@AEAUCache@12@AEAVPxContactBuffer@2@PEAVPxRenderOutput@2@@Z 00000001800aac90 f   GuContactConvexCoreConvex.obj
 0001:000aa0f0       ?contactPlaneConvexCore@Gu@physx@@YA_NAEBVPxGeometry@2@0AEBUPxTransformPadded@2@1AEBUNarrowPhaseParams@12@AEAUCache@12@AEAVPxContactBuffer@2@PEAVPxRenderOutput@2@@Z 00000001800ab0f0 f   GuContactPlaneConvexCore.obj
 0001:000aa4a0       ?contactPlaneBox@Gu@physx@@YA_NAEBVPxGeometry@2@0AEBUPxTransformPadded@2@1AEBUNarrowPhaseParams@12@AEAUCache@12@AEAVPxContactBuffer@2@PEAVPxRenderOutput@2@@Z 00000001800ab4a0 f   GuContactPlaneBox.obj
 0001:000ab1a0       ?contactPlaneCapsule@Gu@physx@@YA_NAEBVPxGeometry@2@0AEBUPxTransformPadded@2@1AEBUNarrowPhaseParams@12@AEAUCache@12@AEAVPxContactBuffer@2@PEAVPxRenderOutput@2@@Z 00000001800ac1a0 f   GuContactPlaneCapsule.obj
 0001:000ab880       ?contactPlaneConvex@Gu@physx@@YA_NAEBVPxGeometry@2@0AEBUPxTransformPadded@2@1AEBUNarrowPhaseParams@12@AEAUCache@12@AEAVPxContactBuffer@2@PEAVPxRenderOutput@2@@Z 00000001800ac880 f   GuContactPlaneConvex.obj
 0001:000ac0f0       ?contactPlaneMesh@Gu@physx@@YA_NAEBVPxGeometry@2@0AEBUPxTransformPadded@2@1AEBUNarrowPhaseParams@12@AEAUCache@12@AEAVPxContactBuffer@2@PEAVPxRenderOutput@2@@Z 00000001800ad0f0 f   GuContactPlaneMesh.obj
 0001:000ad220       ?reduce@?$BufferedPatch@$05$0EA@$00@Gu@physx@@QEAAXXZ 00000001800ae220 f i GuContactPlaneMesh.obj
 0001:000af4e0       ?contactPolygonPolygonExt@Gu@physx@@YA_NIPEBV?$PxVec3T@M@2@PEBEAEBV?$PxMat34T@M@2@AEBVPxPlane@2@AEBV?$PxMat33T@M@2@I01234AEBV32@22IIAEAVPxContactBuffer@2@_N5M@Z 00000001800b04e0 f   GuContactPolygonPolygon.obj
 0001:000b0c90       ?findRotationMatrixFromZ@Gu@physx@@YA?AV?$PxMat33T@M@2@AEBV?$PxVec3T@M@2@@Z 00000001800b1c90 f   GuContactPolygonPolygon.obj
 0001:000b16d0       ??$PxSort@PEAV?$BufferedPatch@$04$0CA@$00@Gu@physx@@UPatchPenetrationPredicate@?$SDFContactReduction@$04$0CHBA@$0CA@@23@V?$PxReflectionAllocator@PEAV?$BufferedPatch@$04$0CA@$00@Gu@physx@@@3@@physx@@YAXPEAPEAV?$BufferedPatch@$04$0CA@$00@Gu@0@IAEBUPatchPenetrationPredicate@?$SDFContactReduction@$04$0CHBA@$0CA@@20@AEBV?$PxReflectionAllocator@PEAV?$BufferedPatch@$04$0CA@$00@Gu@physx@@@0@I@Z 00000001800b26d0 f i GuContactMeshMesh.obj
 0001:000b1c70       ??$copy@V?$PxReflectionAllocator@V?$BufferedPatch@$04$0CA@$00@Gu@physx@@@physx@@@?$PxArray@V?$BufferedPatch@$04$0CA@$00@Gu@physx@@V?$PxReflectionAllocator@V?$BufferedPatch@$04$0CA@$00@Gu@physx@@@3@@physx@@IEAAXAEBV01@@Z 00000001800b2c70 f i GuContactMeshMesh.obj
 0001:000b1cd0       ??$sdfTriangleCollision@$0A@$0CA@$00@Gu@physx@@YAMAEIBUCollisionSDF@01@AEIBV?$PxVec3T@M@1@11AEAV31@2M@Z 00000001800b2cd0 f i GuContactMeshMesh.obj
 0001:000b2430       ??0?$BufferedPatch@$04$0CA@$00@Gu@physx@@QEAA@AEBV012@@Z 00000001800b3430 f i GuContactMeshMesh.obj
 0001:000b2500       ??0CollisionSDF@Gu@physx@@QEAA@AEBVSDF@12@@Z 00000001800b3500 f i GuContactMeshMesh.obj
 0001:000b26d0       ?TriLerpWithGradient@CollisionSDF@Gu@physx@@SAMMMMMMMMMMMMPEAV?$PxVec3T@M@3@@Z 00000001800b36d0 f i GuContactMeshMesh.obj
 0001:000b2880       ?addContact@?$BufferedPatch@$04$0CA@$00@Gu@physx@@QEAAXAEBUTinyContact@23@@Z 00000001800b3880 f i GuContactMeshMesh.obj
 0001:000b2930       ?allocate@?$PxArray@V?$BufferedPatch@$04$0CA@$00@Gu@physx@@V?$PxReflectionAllocator@V?$BufferedPatch@$04$0CA@$00@Gu@physx@@@3@@physx@@IEAAPEAV?$BufferedPatch@$04$0CA@$00@Gu@2@IPEAI@Z 00000001800b3930 f i GuContactMeshMesh.obj
 0001:000b29e0       ?clampToBox@CollisionSDF@Gu@physx@@QEBA?AV?$PxVec3T@M@3@AEBV43@@Z 00000001800b39e0 f i GuContactMeshMesh.obj
 0001:000b2aa0       ?clampToFine@CollisionSDF@Gu@physx@@QEBA?AV?$PxVec3T@M@3@AEBV43@@Z 00000001800b3aa0 f i GuContactMeshMesh.obj
 0001:000b2b60       ?contactMeshMesh@Gu@physx@@YA_NAEBVPxGeometry@2@0AEBUPxTransformPadded@2@1AEBUNarrowPhaseParams@12@AEAUCache@12@AEAVPxContactBuffer@2@PEAVPxRenderOutput@2@@Z 00000001800b3b60 f   GuContactMeshMesh.obj
 0001:000b2e20       ?copy@?$PxArray@V?$BufferedPatch@$04$0CA@$00@Gu@physx@@V?$PxReflectionAllocator@V?$BufferedPatch@$04$0CA@$00@Gu@physx@@@3@@physx@@KAXPEAV?$BufferedPatch@$04$0CA@$00@Gu@2@0PEBV342@@Z 00000001800b3e20 f i GuContactMeshMesh.obj
 0001:000b2f10       ?cullPatches@?$SDFContactReduction@$04$0CHBA@$0CA@@Gu@physx@@QEAAXM@Z 00000001800b3f10 f i GuContactMeshMesh.obj
 0001:000b32d0       ?dist@CollisionSDF@Gu@physx@@QEBAMAEBV?$PxVec3T@M@3@PEAV43@@Z 00000001800b42d0 f i GuContactMeshMesh.obj
 0001:000b3400       ?distUsingGradient@CollisionSDF@Gu@physx@@QEBAMAEBV?$PxVec3T@M@3@AEAV43@AEBM@Z 00000001800b4400 f i GuContactMeshMesh.obj
 0001:000b3650       ?evaluateCoarse@CollisionSDF@Gu@physx@@QEBAMAEBV?$PxVec3T@M@3@PEAV43@@Z 00000001800b4650 f i GuContactMeshMesh.obj
 0001:000b37a0       ?evaluateSubgrid@CollisionSDF@Gu@physx@@QEBAMIAEBV?$PxVec3T@M@3@PEAV43@@Z 00000001800b47a0 f i GuContactMeshMesh.obj
 0001:000b3b60       ?flushToContactBuffer@?$SDFContactReduction@$04$0CHBA@$0CA@@Gu@physx@@QEAAIAEAVPxContactBuffer@3@@Z 00000001800b4b60 f i GuContactMeshMesh.obj
 0001:000b3ea0       ?grad@CollisionSDF@Gu@physx@@QEBA?AV?$PxVec3T@M@3@AEBV43@@Z 00000001800b4ea0 f i GuContactMeshMesh.obj
 0001:000b4230       ?growAndPushBack@?$PxArray@PEAV?$BufferedPatch@$04$0CA@$00@Gu@physx@@V?$PxReflectionAllocator@PEAV?$BufferedPatch@$04$0CA@$00@Gu@physx@@@3@@physx@@IEAAAEAPEAV?$BufferedPatch@$04$0CA@$00@Gu@2@AEBQEAV342@@Z 00000001800b5230 f i GuContactMeshMesh.obj
 0001:000b4370       ?growAndPushBack@?$PxArray@V?$BufferedPatch@$04$0CA@$00@Gu@physx@@V?$PxReflectionAllocator@V?$BufferedPatch@$04$0CA@$00@Gu@physx@@@3@@physx@@IEAAAEAV?$BufferedPatch@$04$0CA@$00@Gu@2@AEBV342@@Z 00000001800b5370 f i GuContactMeshMesh.obj
 0001:000b44a0       ?recreate@?$PxArray@PEAV?$BufferedPatch@$04$0CA@$00@Gu@physx@@V?$PxReflectionAllocator@PEAV?$BufferedPatch@$04$0CA@$00@Gu@physx@@@3@@physx@@IEAAXI@Z 00000001800b54a0 f i GuContactMeshMesh.obj
 0001:000b45b0       ?recreate@?$PxArray@V?$BufferedPatch@$04$0CA@$00@Gu@physx@@V?$PxReflectionAllocator@V?$BufferedPatch@$04$0CA@$00@Gu@physx@@@3@@physx@@IEAAXI@Z 00000001800b55b0 f i GuContactMeshMesh.obj
 0001:000b46a0       ?reduce@?$BufferedPatch@$04$0CA@$00@Gu@physx@@QEAAXXZ 00000001800b56a0 f i GuContactMeshMesh.obj
 0001:000b5070       ?sample@CollisionSDF@Gu@physx@@QEBAMV?$PxVec3T@M@3@PEAV43@@Z 00000001800b6070 f i GuContactMeshMesh.obj
 0001:000b5230       ?sdfMeshCollision@@YAIAEIBUPxTransformPadded@physx@@AEIBVPxTriangleMeshGeometry@2@01AEAV?$SDFContactReduction@$04$0CHBA@$0CA@@Gu@2@M_N@Z 00000001800b6230 f   GuContactMeshMesh.obj
 0001:000b7df0       ?contactSphereBox@Gu@physx@@YA_NAEBVPxGeometry@2@0AEBUPxTransformPadded@2@1AEBUNarrowPhaseParams@12@AEAUCache@12@AEAVPxContactBuffer@2@PEAVPxRenderOutput@2@@Z 00000001800b8df0 f   GuContactSphereBox.obj
 0001:000b8380       ?contactSphereCapsule@Gu@physx@@YA_NAEBVPxGeometry@2@0AEBUPxTransformPadded@2@1AEBUNarrowPhaseParams@12@AEAUCache@12@AEAVPxContactBuffer@2@PEAVPxRenderOutput@2@@Z 00000001800b9380 f   GuContactSphereCapsule.obj
 0001:000b9180       ?contactSphereHeightfield@Gu@physx@@YA_NAEBVPxGeometry@2@0AEBUPxTransformPadded@2@1AEBUNarrowPhaseParams@12@AEAUCache@12@AEAVPxContactBuffer@2@PEAVPxRenderOutput@2@@Z 00000001800ba180 f   GuContactSphereMesh.obj
 0001:000b9460       ?contactSphereMesh@Gu@physx@@YA_NAEBVPxGeometry@2@0AEBUPxTransformPadded@2@1AEBUNarrowPhaseParams@12@AEAUCache@12@AEAVPxContactBuffer@2@PEAVPxRenderOutput@2@@Z 00000001800ba460 f   GuContactSphereMesh.obj
 0001:000bab00       ?contactSpherePlane@Gu@physx@@YA_NAEBVPxGeometry@2@0AEBUPxTransformPadded@2@1AEBUNarrowPhaseParams@12@AEAUCache@12@AEAVPxContactBuffer@2@PEAVPxRenderOutput@2@@Z 00000001800bbb00 f   GuContactSpherePlane.obj
 0001:000bad00       ?contactSphereSphere@Gu@physx@@YA_NAEBVPxGeometry@2@0AEBUPxTransformPadded@2@1AEBUNarrowPhaseParams@12@AEAUCache@12@AEAVPxContactBuffer@2@PEAVPxRenderOutput@2@@Z 00000001800bbd00 f   GuContactSphereSphere.obj
 0001:000baec0       ?contactCustomGeometryGeometry@Gu@physx@@YA_NAEBVPxGeometry@2@0AEBUPxTransformPadded@2@1AEBUNarrowPhaseParams@12@AEAUCache@12@AEAVPxContactBuffer@2@PEAVPxRenderOutput@2@@Z 00000001800bbec0 f   GuContactCustomGeometry.obj
 0001:000baf20       ?contactGeometryCustomGeometry@Gu@physx@@YA_NAEBVPxGeometry@2@0AEBUPxTransformPadded@2@1AEBUNarrowPhaseParams@12@AEAUCache@12@AEAVPxContactBuffer@2@PEAVPxRenderOutput@2@@Z 00000001800bbf20 f   GuContactCustomGeometry.obj
 0001:000bafe0       ?selectNormal@Gu@physx@@YA_NEMM@Z 00000001800bbfe0 f   GuFeatureCode.obj
 0001:000bb060       ??0BigConvexData@physx@@QEAA@XZ 00000001800bc060 f   GuBigConvexData.obj
 0001:000bb080       ??1BigConvexData@physx@@QEAA@XZ 00000001800bc080 f   GuBigConvexData.obj
 0001:000bb150       ??4BigConvexData@physx@@QEAAAEAV01@AEBV01@@Z 00000001800bc150 f i GuBigConvexData.obj
 0001:000bb170       ?ComputeNearestOffset@BigConvexData@physx@@QEBAIAEBV?$PxVec3T@M@2@@Z 00000001800bc170 f   GuBigConvexData.obj
 0001:000bb280       ?ComputeOffset@BigConvexData@physx@@QEBAIAEBV?$PxVec3T@M@2@@Z 00000001800bc280 f   GuBigConvexData.obj
 0001:000bb380       ?CreateOffsets@BigConvexData@physx@@IEAAXXZ 00000001800bc380 f   GuBigConvexData.obj
 0001:000bb3d0       ?GetAdjacentVerts@BigConvexData@physx@@QEBAPEBEXZ 00000001800bc3d0 f i GuBigConvexData.obj
 0001:000bb3d0       ?getDeformableVolumeAuxData@DeformableVolumeMesh@Gu@physx@@UEAAPEAVPxDeformableVolumeAuxData@3@XZ 00000001800bc3d0 f i GuTetrahedronMesh.obj
 0001:000bb3d0       ?getDeformableVolumeAuxData@DeformableVolumeMesh@Gu@physx@@UEBAPEBVPxDeformableVolumeAuxData@3@XZ 00000001800bc3d0 f i GuTetrahedronMesh.obj
 0001:000bb3d0       ?getTransforms@PruningPool@Gu@physx@@QEAAPEAV?$PxTransformT@M@3@XZ 00000001800bc3d0 f i GuIncrementalAABBPrunerCore.obj
 0001:000bb3d0       ?getTransforms@PruningPool@Gu@physx@@QEBAPEBV?$PxTransformT@M@3@XZ 00000001800bc3d0 f i GuIncrementalAABBPrunerCore.obj
 0001:000bb3d0       ?getTriangles@TriangleMesh@Gu@physx@@UEBAPEBXXZ 00000001800bc3d0 f i GuTriangleMesh.obj
 0001:000bb3e0       ?GetNbNeighbors@BigConvexData@physx@@QEBAGI@Z 00000001800bc3e0 f i GuBigConvexData.obj
 0001:000bb3e0       ?GetValency@BigConvexData@physx@@QEBAGI@Z 00000001800bc3e0 f i GuBigConvexData.obj
 0001:000bb3f0       ?GetNbSamples@BigConvexData@physx@@QEBAIXZ 00000001800bc3f0 f i GuBigConvexData.obj
 0001:000bb400       ?GetNbVerts@BigConvexData@physx@@QEBAIXZ 00000001800bc400 f i GuBigConvexData.obj
 0001:000bb400       ?getNbVertices@TetrahedronMesh@Gu@physx@@UEBAIXZ 00000001800bc400 f i GuTetrahedronMesh.obj
 0001:000bb400       ?getNbVertices@TriangleMesh@Gu@physx@@UEBAIXZ 00000001800bc400 f i GuTriangleMesh.obj
 0001:000bb400       ?length@pcharNode@@UEBAHXZ 00000001800bc400 f i libvcruntime:undname.obj
 0001:000bb400       ?raw_length@pcharNode@@UEBAHXZ 00000001800bc400 f i libvcruntime:undname.obj
 0001:000bb410       ?GetNeighbors@BigConvexData@physx@@QEBAPEBEI@Z 00000001800bc410 f i GuBigConvexData.obj
 0001:000bb420       ?GetOffset@BigConvexData@physx@@QEBAGI@Z 00000001800bc420 f i GuBigConvexData.obj
 0001:000bb430       ?GetSubdiv@BigConvexData@physx@@QEBAIXZ 00000001800bc430 f i GuBigConvexData.obj
 0001:000bb440       ?Load@BigConvexData@physx@@QEAA_NAEAVPxInputStream@2@@Z 00000001800bc440 f   GuBigConvexData.obj
 0001:000bb550       ?VLoad@BigConvexData@physx@@IEAA_NAEAVPxInputStream@2@@Z 00000001800bc550 f   GuBigConvexData.obj
 0001:000bb700       ?exportExtraData@BigConvexData@physx@@QEAAXAEAVPxSerializationContext@2@@Z 00000001800bc700 f   GuBigConvexData.obj
 0001:000bb780       ?importExtraData@BigConvexData@physx@@QEAAXAEAVPxDeserializationContext@2@@Z 00000001800bc780 f   GuBigConvexData.obj
 0001:000bb7f0       ?findUniqueConvexEdges@Gu@physx@@YAIIPEIAUConvexEdge@12@IPEIBUHullPolygonData@12@PEIBE@Z 00000001800bc7f0 f   GuConvexHelper.obj
 0001:000bb930       ?getConvexData@Gu@physx@@YA_NAEBVPxConvexMeshGeometry@2@AEAVFastVertex2ShapeScaling@Cm@2@AEAVPxBounds3@2@AEAUPolygonalData@12@@Z 00000001800bc930 f   GuConvexHelper.obj
 0001:000bbb50       ?getScaledConvex@Gu@physx@@YAXAEAPEAV?$PxVec3T@M@2@AEAPEAEPEAV32@PEAE_NPEBV32@PEBEIAEBVFastVertex2ShapeScaling@Cm@2@@Z 00000001800bcb50 f   GuConvexHelper.obj
 0001:000bbc80       ??0ConvexMesh@Gu@physx@@QEAA@PEAVMeshFactory@12@@Z 00000001800bcc80 f   GuConvexMesh.obj
 0001:000bbd10       ??0ConvexMesh@Gu@physx@@QEAA@PEAVMeshFactory@12@AEAUConvexHullInitData@12@@Z 00000001800bcd10 f   GuConvexMesh.obj
 0001:000bbe50       ??_EConvexMesh@Gu@physx@@UEAAPEAXI@Z 00000001800bce50 f i GuConvexMesh.obj
 0001:000bbe50       ??_GConvexMesh@Gu@physx@@UEAAPEAXI@Z 00000001800bce50 f i GuConvexMesh.obj
 0001:000bbf60       ??_EPxBVH@physx@@MEAAPEAXI@Z 00000001800bcf60 f i GuBVH.obj
 0001:000bbf60       ??_EPxBase@physx@@MEAAPEAXI@Z 00000001800bcf60 f i GuConvexMesh.obj
 0001:000bbf60       ??_GPxBVH@physx@@MEAAPEAXI@Z 00000001800bcf60 f i GuBVH.obj
 0001:000bbf60       ??_GPxBase@physx@@MEAAPEAXI@Z 00000001800bcf60 f i GuConvexMesh.obj
 0001:000bbf90       ?acquireReference@ConvexMesh@Gu@physx@@UEAAXXZ 00000001800bcf90 f   GuConvexMesh.obj
 0001:000bbf90       ?acquireReference@DeformableVolumeAuxData@Gu@physx@@UEAAXXZ 00000001800bcf90 f   GuTetrahedronMesh.obj
 0001:000bbf90       ?acquireReference@DeformableVolumeMesh@Gu@physx@@UEAAXXZ 00000001800bcf90 f   GuTetrahedronMesh.obj
 0001:000bbf90       ?acquireReference@HeightField@Gu@physx@@UEAAXXZ 00000001800bcf90 f   GuHeightField.obj
 0001:000bbf90       ?acquireReference@TetrahedronMesh@Gu@physx@@UEAAXXZ 00000001800bcf90 f   GuTetrahedronMesh.obj
 0001:000bbf90       ?acquireReference@TriangleMesh@Gu@physx@@UEAAXXZ 00000001800bcf90 f   GuTriangleMesh.obj
 0001:000bc450       ?createObject@ConvexMesh@Gu@physx@@SAPEAV123@AEAPEAEAEAVPxDeserializationContext@3@@Z 00000001800bd450 f   GuConvexMesh.obj
 0001:000bc570       ?exportExtraData@ConvexMesh@Gu@physx@@UEAAXAEAVPxSerializationContext@3@@Z 00000001800bd570 f   GuConvexMesh.obj
 0001:000bc670       ?getConcreteTypeName@PxConvexMesh@physx@@UEBAPEBDXZ 00000001800bd670 f i GuConvexMesh.obj
 0001:000bc680       ?getIndexBuffer@ConvexMesh@Gu@physx@@UEBAPEBEXZ 00000001800bd680 f i GuConvexMesh.obj
 0001:000bc6c0       ?getLocalBounds@ConvexMesh@Gu@physx@@UEBA?AVPxBounds3@3@XZ 00000001800bd6c0 f   GuConvexMesh.obj
 0001:000bc740       ?getMassInformation@ConvexMesh@Gu@physx@@UEBAXAEAMAEAV?$PxMat33T@M@3@AEAV?$PxVec3T@M@3@@Z 00000001800bd740 f   GuConvexMesh.obj
 0001:000bc7b0       ?getNbPolygons@ConvexMesh@Gu@physx@@UEBAIXZ 00000001800bd7b0 f i GuConvexMesh.obj
 0001:000bc7c0       ?getNbVertices@ConvexMesh@Gu@physx@@UEBAIXZ 00000001800bd7c0 f i GuConvexMesh.obj
 0001:000bc7d0       ?getPolygonData@ConvexMesh@Gu@physx@@UEBA_NIAEAUPxHullPolygon@3@@Z 00000001800bd7d0 f   GuConvexMesh.obj
 0001:000bc820       ?getReferenceCount@ConvexMesh@Gu@physx@@UEBAIXZ 00000001800bd820 f   GuConvexMesh.obj
 0001:000bc820       ?getReferenceCount@DeformableVolumeAuxData@Gu@physx@@UEBAIXZ 00000001800bd820 f   GuTetrahedronMesh.obj
 0001:000bc820       ?getReferenceCount@DeformableVolumeMesh@Gu@physx@@UEBAIXZ 00000001800bd820 f   GuTetrahedronMesh.obj
 0001:000bc820       ?getReferenceCount@HeightField@Gu@physx@@UEBAIXZ 00000001800bd820 f   GuHeightField.obj
 0001:000bc820       ?getReferenceCount@TetrahedronMesh@Gu@physx@@UEBAIXZ 00000001800bd820 f   GuTetrahedronMesh.obj
 0001:000bc820       ?getReferenceCount@TriangleMesh@Gu@physx@@UEBAIXZ 00000001800bd820 f   GuTriangleMesh.obj
 0001:000bc820       ?length@DNameStatusNode@@UEBAHXZ 00000001800bd820 f   libvcruntime:undname.obj
 0001:000bc820       ?raw_length@DNameStatusNode@@UEBAHXZ 00000001800bd820 f   libvcruntime:undname.obj
 0001:000bc830       ?getSDF@ConvexMesh@Gu@physx@@UEBAPEBMXZ 00000001800bd830 f   GuConvexMesh.obj
 0001:000bc840       ?getVertices@ConvexMesh@Gu@physx@@UEBAPEBV?$PxVec3T@M@3@XZ 00000001800bd840 f i GuConvexMesh.obj
 0001:000bc860       ?isGpuCompatible@ConvexMesh@Gu@physx@@UEBA_NXZ 00000001800bd860 f   GuConvexMesh.obj
 0001:000bc8a0       ?isKindOf@PxBase@physx@@MEBA_NPEBD@Z 00000001800bd8a0 f i GuConvexMesh.obj
 0001:000bc8c0       ?isKindOf@PxConvexMesh@physx@@MEBA_NPEBD@Z 00000001800bd8c0 f i GuConvexMesh.obj
 0001:000bc950       ?isReleasable@PxBase@physx@@UEBA_NXZ 00000001800bd950 f i GuConvexMesh.obj
 0001:000bc960       ?load@ConvexMesh@Gu@physx@@QEAA_NAEAVPxInputStream@3@@Z 00000001800bd960 f   GuConvexMesh.obj
 0001:000bcf30       ?onRefCountZero@ConvexMesh@Gu@physx@@UEAAXXZ 00000001800bdf30 f   GuConvexMesh.obj
 0001:000bd060       ?release@ConvexMesh@Gu@physx@@UEAAXXZ 00000001800be060 f   GuConvexMesh.obj
 0001:000bd060       ?release@DeformableVolumeAuxData@Gu@physx@@UEAAXXZ 00000001800be060 f   GuTetrahedronMesh.obj
 0001:000bd060       ?release@DeformableVolumeMesh@Gu@physx@@UEAAXXZ 00000001800be060 f   GuTetrahedronMesh.obj
 0001:000bd060       ?release@HeightField@Gu@physx@@UEAAXXZ 00000001800be060 f   GuHeightField.obj
 0001:000bd060       ?release@TetrahedronMesh@Gu@physx@@UEAAXXZ 00000001800be060 f   GuTetrahedronMesh.obj
 0001:000bd060       ?release@TriangleMesh@Gu@physx@@UEAAXXZ 00000001800be060 f   GuTriangleMesh.obj
 0001:000bd090       ??Dphysx@@YA?AV?$PxMat34T@M@0@AEBVPxMeshScale@0@AEBV10@@Z 00000001800be090 f i GuConvexUtilsInternal.obj
 0001:000bd630       ?computeHullOBB@Gu@physx@@YAXAEAVBox@12@AEBVPxBounds3@2@MAEBV?$PxMat34T@M@2@2AEBVFastVertex2ShapeScaling@Cm@2@_N@Z 00000001800be630 f   GuConvexUtilsInternal.obj
 0001:000bdac0       ?computeOBBAroundConvex@Gu@physx@@YAXAEAVBox@12@AEBVPxConvexMeshGeometry@2@PEBVPxConvexMesh@2@AEBV?$PxTransformT@M@2@@Z 00000001800beac0 f   GuConvexUtilsInternal.obj
 0001:000be2f0       ?computeVertexSpaceOBB@Gu@physx@@YAXAEAVBox@12@AEBV312@AEBV?$PxTransformT@M@2@AEBVPxMeshScale@2@@Z 00000001800bf2f0 f   GuConvexUtilsInternal.obj
 0001:000be620       ?transform@physx@@YA?AVBox@Gu@1@AEBV?$PxMat34T@M@1@AEBV231@@Z 00000001800bf620 f i GuConvexUtilsInternal.obj
 0001:000be870       ?localSearch@physx@@YAXAEAIAEBV?$PxVec3T@M@1@PEBV21@PEBUBigConvexRawData@Gu@1@@Z 00000001800bf870 f   GuHillClimbing.obj
 0001:000be990       ??0PCMPolygonalBox@Gu@physx@@QEAA@AEBV?$PxVec3T@M@2@@Z 00000001800bf990 f   GuPCMShapeConvex.obj
 0001:000be990       ??0PolygonalBox@Gu@physx@@QEAA@AEBV?$PxVec3T@M@2@@Z 00000001800bf990 f   GuShapeConvex.obj
 0001:000bfcf0       ?getPolygonalData@PolygonalBox@Gu@physx@@QEBAXPEIAUPolygonalData@23@@Z 00000001800c0cf0 f   GuShapeConvex.obj
 0001:000bfd60       ?getPolygonalData_Convex@Gu@physx@@YAXPEIAUPolygonalData@12@PEIBUConvexHullData@12@AEBVFastVertex2ShapeScaling@Cm@2@@Z 00000001800c0d60 f   GuShapeConvex.obj
 0001:000bfed0       ?distancePointBoxSquared@Gu@physx@@YAMAEBV?$PxVec3T@M@2@00AEBV?$PxMat33T@M@2@PEAV32@@Z 00000001800c0ed0 f   GuDistancePointBox.obj
 0001:000c0020       ?closestPtPointTriangle@Gu@physx@@YA?AV?$PxVec3T@M@2@AEBV32@000AEAM1@Z 00000001800c1020 f   GuDistancePointTriangle.obj
 0001:000c0550       ?distancePointTriangleSquared2UnitBox@Gu@physx@@YA?AT__m128@@AEBT3@000AEAT3@11@Z 00000001800c1550 f   GuDistancePointTriangle.obj
 0001:000c0670       ?distancePointTriangleSquared@Gu@physx@@YA?AT__m128@@AEBT3@000AEAT3@11@Z 00000001800c1670 f   GuDistancePointTriangle.obj
 0001:000c13e0       ?distanceSegmentBoxSquared@Gu@physx@@YAMAEBV?$PxVec3T@M@2@000AEBV?$PxMat33T@M@2@PEAMPEAV32@@Z 00000001800c23e0 f   GuDistanceSegmentBox.obj
 0001:000c1c60       ?distanceSegmentSegmentSquared4@Gu@physx@@YA?AT__m128@@AEBT3@000000000AEAT3@1@Z 00000001800c2c60 f   GuDistanceSegmentSegment.obj
 0001:000c1f70       ?distanceSegmentSegmentSquared@Gu@physx@@YA?AT__m128@@AEBT3@000AEAT3@1@Z 00000001800c2f70 f   GuDistanceSegmentSegment.obj
 0001:000c2140       ?distanceSegmentSegmentSquared@Gu@physx@@YAMAEBV?$PxVec3T@M@2@000PEAM1@Z 00000001800c3140 f   GuDistanceSegmentSegment.obj
 0001:000c23e0       ?distanceSegmentSegmentSquared@Gu@physx@@YAMAEBV?$PxVec3T@M@2@0M00MPEAM1@Z 00000001800c33e0 f   GuDistanceSegmentSegment.obj
 0001:000c2cc0       ?distanceSegmentTriangleSquared@Gu@physx@@YA?AT__m128@@AEBT3@0000AEAT3@1@Z 00000001800c3cc0 f   GuDistanceSegmentTriangle.obj
 0001:000c3400       ?distanceSegmentTriangleSquared@Gu@physx@@YAMAEBV?$PxVec3T@M@2@0000PEAM11@Z 00000001800c4400 f   GuDistanceSegmentTriangle.obj
 0001:000c4be0       ?distanceTriangleTriangleSquared@Gu@physx@@YAMAEAV?$PxVec3T@M@2@0QEBVPxVec3Padded@2@1@Z 00000001800c5be0 f   GuDistanceTriangleTriangle.obj
 0001:000c5730       ?closestPtPointTetrahedron@Gu@physx@@YA?AV?$PxVec3T@M@2@AEBV32@0000AEBV?$PxVec4T@M@2@@Z 00000001800c6730 f   GuDistancePointTetrahedron.obj
 0001:000c6800       ?PenetrationDepth@EPA@Gu@physx@@QEAA?AW4GjkStatus@23@AEBUGjkConvex@23@0PEIBT__m128@@1E_NT6@AEAUGjkOutput@23@@Z 00000001800c7800 f   GuEPA.obj
 0001:000c7280       ?addFacet@EPA@Gu@physx@@QEAAPEAVFacet@23@IIIAEBT__m128@@@Z 00000001800c8280 f   GuEPA.obj
 0001:000c7690       ?epaPenetration@Gu@physx@@YA?AW4GjkStatus@12@AEBUGjkConvex@12@0PEIBE1E_NT__m128@@AEAUGjkOutput@12@@Z 00000001800c8690 f   GuEPA.obj
 0001:000c77f0       ?epaPenetration@Gu@physx@@YA?AW4GjkStatus@12@AEBUGjkConvex@12@0PEIBT__m128@@1E_NT5@AEAUGjkOutput@12@@Z 00000001800c87f0 f   GuEPA.obj
 0001:000c78a0       ?silhouette@Facet@Gu@physx@@QEAAXAEBT__m128@@PEIBT4@1AEAVEdgeBuffer@23@AEAV?$InlineDeferredIDPool@$0EA@@Cm@3@@Z 00000001800c88a0 f   GuEPA.obj
 0001:000c7a60       ?closestPtPointTetrahedron@Gu@physx@@YA?AT__m128@@PEIAT3@00AEAI@Z 00000001800c8a60 f   GuGJKSimplex.obj
 0001:000c81e0       ?closestPtPointTetrahedron@Gu@physx@@YA?AT__m128@@PEIAT3@00PEIAH1AEAI@Z 00000001800c91e0 f   GuGJKSimplex.obj
 0001:000c9c70       ??$gjk@UGjkConvex@Gu@physx@@U123@@Gu@physx@@YA?AW4GjkStatus@01@AEBUGjkConvex@01@0AEBT__m128@@1AEAT4@222@Z 00000001800cac70 f i GuGJKTest.obj
 0001:000ca830       ??$gjkPenetration@UGjkConvex@Gu@physx@@U123@@Gu@physx@@YA?AW4GjkStatus@01@AEBUGjkConvex@01@0AEBT__m128@@1_NPEIAE3AEAEAEAUGjkOutput@01@@Z 00000001800cb830 f i GuGJKTest.obj
 0001:000ca8a0       ??$gjkPenetration@UGjkConvex@Gu@physx@@U123@@Gu@physx@@YA?AW4GjkStatus@01@AEBUGjkConvex@01@0AEBT__m128@@1_NPEIAE3PEIAT4@4AEAEAEAUGjkOutput@01@@Z 00000001800cb8a0 f i GuGJKTest.obj
 0001:000cc2c0       ??$gjkRaycast@UGjkConvex@Gu@physx@@U123@@Gu@physx@@YA_NAEBUGjkConvex@01@0AEBT__m128@@111AEAT3@22M@Z 00000001800cd2c0 f i GuGJKTest.obj
 0001:000cce60       ?testEpaPenetration@Gu@physx@@YA?AW4GjkStatus@12@AEBUGjkConvex@12@0PEBE1EAEAUGjkOutput@12@@Z 00000001800cde60 f   GuGJKTest.obj
 0001:000cceb0       ?testGjk@Gu@physx@@YA?AW4GjkStatus@12@AEBUGjkConvex@12@0AEBT__m128@@1AEAT5@222@Z 00000001800cdeb0 f   GuGJKTest.obj
 0001:000ccec0       ?testGjkPenetration@Gu@physx@@YA?AW4GjkStatus@12@AEBUGjkConvex@12@0AEBT__m128@@1PEAE2AEAEAEAUGjkOutput@12@@Z 00000001800cdec0 f   GuGJKTest.obj
 0001:000ccf10       ?testGjkRaycast@Gu@physx@@YA_NAEBUGjkConvex@12@0AEBT__m128@@111AEAT4@22M@Z 00000001800cdf10 f   GuGJKTest.obj
 0001:000ccf20       ??0HeightField@Gu@physx@@QEAA@PEAVMeshFactory@12@@Z 00000001800cdf20 f   GuHeightField.obj
 0001:000ccf70       ??0HeightField@Gu@physx@@QEAA@PEAVMeshFactory@12@AEAUHeightFieldData@12@@Z 00000001800cdf70 f   GuHeightField.obj
 0001:000cd020       ??1HeightField@Gu@physx@@UEAA@XZ 00000001800ce020 f   GuHeightField.obj
 0001:000cd0b0       ??_EHeightField@Gu@physx@@UEAAPEAXI@Z 00000001800ce0b0 f i GuHeightField.obj
 0001:000cd0b0       ??_GHeightField@Gu@physx@@UEAAPEAXI@Z 00000001800ce0b0 f i GuHeightField.obj
 0001:000cd160       ?computeCellCoordinates@HeightField@Gu@physx@@QEBAIMMAEAM0@Z 00000001800ce160 f   GuHeightField.obj
 0001:000cd280       ?createObject@HeightField@Gu@physx@@SAPEAV123@AEAPEAEAEAVPxDeserializationContext@3@@Z 00000001800ce280 f   GuHeightField.obj
 0001:000cd2d0       ?exportExtraData@HeightField@Gu@physx@@UEAAXAEAVPxSerializationContext@3@@Z 00000001800ce2d0 f   GuHeightField.obj
 0001:000cd320       ?getConcreteTypeName@PxHeightField@physx@@UEBAPEBDXZ 00000001800ce320 f i GuHeightField.obj
 0001:000cd330       ?getConvexEdgeThreshold@HeightField@Gu@physx@@UEBAMXZ 00000001800ce330 f i GuHeightField.obj
 0001:000cd340       ?getFlags@HeightField@Gu@physx@@UEBA?AV?$PxFlags@W4Enum@PxHeightFieldFlag@physx@@G@3@XZ 00000001800ce340 f i GuHeightField.obj
 0001:000cd350       ?getFormat@HeightField@Gu@physx@@UEBA?AW4Enum@PxHeightFieldFormat@3@XZ 00000001800ce350 f i GuHeightField.obj
 0001:000cd360       ?getHeight@HeightField@Gu@physx@@UEBAMMM@Z 00000001800ce360 f i GuHeightField.obj
 0001:000cd480       ?getNbColumns@HeightField@Gu@physx@@UEBAIXZ 00000001800ce480 f i GuHeightField.obj
 0001:000cd490       ?getNbBounds@BVH@Gu@physx@@UEBAIXZ 00000001800ce490 f i GuBVH.obj
 0001:000cd490       ?getNbPrimitives@SourceMesh@Gu@physx@@UEBAIXZ 00000001800ce490 f i GuBV4.obj
 0001:000cd490       ?getNbPrimitives@TetrahedronSourceMesh@Gu@physx@@UEBAIXZ 00000001800ce490 f i GuBV4.obj
 0001:000cd490       ?getNbRows@HeightField@Gu@physx@@UEBAIXZ 00000001800ce490 f i GuHeightField.obj
 0001:000cd4a0       ?getSample@HeightField@Gu@physx@@UEBAAEBUPxHeightFieldSample@3@II@Z 00000001800ce4a0 f i GuHeightField.obj
 0001:000cd4b0       ?getSampleStride@HeightField@Gu@physx@@UEBAIXZ 00000001800ce4b0 f i GuHeightField.obj
 0001:000cd4c0       ?getTimestamp@HeightField@Gu@physx@@UEBAIXZ 00000001800ce4c0 f i GuHeightField.obj
 0001:000cd4d0       ?getTriangleMaterialIndex@HeightField@Gu@physx@@UEBAGI@Z 00000001800ce4d0 f i GuHeightField.obj
 0001:000cd4f0       ?getTriangleNormal@HeightField@Gu@physx@@UEBA?AV?$PxVec3T@M@3@I@Z 00000001800ce4f0 f i GuHeightField.obj
 0001:000cd600       ?isKindOf@PxHeightField@physx@@MEBA_NPEBD@Z 00000001800ce600 f i GuHeightField.obj
 0001:000cd690       ?load@HeightField@Gu@physx@@QEAA_NAEAVPxInputStream@3@@Z 00000001800ce690 f   GuHeightField.obj
 0001:000cda00       ?loadFromDesc@HeightField@Gu@physx@@QEAA_NAEBVPxHeightFieldDesc@3@@Z 00000001800cea00 f   GuHeightField.obj
 0001:000cdc90       ?modifySamples@HeightField@Gu@physx@@UEAA_NHHAEBVPxHeightFieldDesc@3@_N@Z 00000001800cec90 f   GuHeightField.obj
 0001:000ce080       ?onRefCountZero@HeightField@Gu@physx@@UEAAXXZ 00000001800cf080 f   GuHeightField.obj
 0001:000ce150       ?releaseMemory@HeightField@Gu@physx@@QEAAXXZ 00000001800cf150 f   GuHeightField.obj
 0001:000ce1a0       ?save@HeightField@Gu@physx@@QEAA_NAEAVPxOutputStream@3@_N@Z 00000001800cf1a0 f   GuHeightField.obj
 0001:000ce3e0       ?saveCells@HeightField@Gu@physx@@UEBAIPEAXI@Z 00000001800cf3e0 f   GuHeightField.obj
 0001:000ce420       ?computeLocalBounds@HeightFieldUtil@Gu@physx@@QEBAXAEAVPxBounds3@3@@Z 00000001800cf420 f   GuHeightFieldUtil.obj
 0001:000ce8c0       ?getTriangle@HeightFieldUtil@Gu@physx@@QEBAIAEBV?$PxTransformT@M@3@AEAVPxTriangle@3@PEAI2I_N3@Z 00000001800cf8c0 f   GuHeightFieldUtil.obj
 0001:000cf1c0       ?getTriangleAdjacencyIndices@HeightField@Gu@physx@@QEBAXIIIIAEAI00@Z 00000001800d01c0 f i GuHeightFieldUtil.obj
 0001:000cf380       ?overlapAABBTriangles@HeightFieldUtil@Gu@physx@@QEBAXAEBVPxBounds3@3@AEAVOverlapReport@23@I@Z 00000001800d0380 f   GuHeightFieldUtil.obj
 0001:000cf7e0       ??$gjk@U?$RelativeConvex@VTriangleV@Gu@physx@@@Gu@physx@@U?$LocalConvex@VConvexHullV@Gu@physx@@@23@@Gu@physx@@YA?AW4GjkStatus@01@AEBU?$RelativeConvex@VTriangleV@Gu@physx@@@01@AEBU?$LocalConvex@VConvexHullV@Gu@physx@@@01@AEBT__m128@@2AEAT5@333@Z 00000001800d07e0 f i GuOverlapTestsHF.obj
 0001:000d0580       ?GeomOverlapCallback_BoxHeightfield@@YA_NAEBVPxGeometry@physx@@AEBV?$PxTransformT@M@2@01PEAUTriggerCache@Gu@2@PEAUPxQueryThreadContext@2@@Z 00000001800d1580 f   GuOverlapTestsHF.obj
 0001:000d0af0       ?GeomOverlapCallback_CapsuleHeightfield@@YA_NAEBVPxGeometry@physx@@AEBV?$PxTransformT@M@2@01PEAUTriggerCache@Gu@2@PEAUPxQueryThreadContext@2@@Z 00000001800d1af0 f   GuOverlapTestsHF.obj
 0001:000d1100       ?GeomOverlapCallback_ConvexHeightfield@@YA_NAEBVPxGeometry@physx@@AEBV?$PxTransformT@M@2@01PEAUTriggerCache@Gu@2@PEAUPxQueryThreadContext@2@@Z 00000001800d2100 f   GuOverlapTestsHF.obj
 0001:000d1b50       ?GeomOverlapCallback_SphereHeightfield@@YA_NAEBVPxGeometry@physx@@AEBV?$PxTransformT@M@2@01PEAUTriggerCache@Gu@2@PEAUPxQueryThreadContext@2@@Z 00000001800d2b50 f   GuOverlapTestsHF.obj
 0001:000d2770       ??$gjkRaycast@U?$LocalConvex@VTriangleV@Gu@physx@@@Gu@physx@@U?$LocalConvex@VConvexHullV@Gu@physx@@@23@@Gu@physx@@YA_NAEBU?$LocalConvex@VTriangleV@Gu@physx@@@01@AEBU?$LocalConvex@VConvexHullV@Gu@physx@@@01@AEBT__m128@@222AEAT4@33M@Z 00000001800d3770 f i GuSweepsHF.obj
 0001:000d3580       ??$traceSegment@VBoxTraceSegmentReport@@$0A@$00@HeightFieldTraceUtil@Gu@physx@@QEBAXAEBV?$PxVec3T@M@2@0MPEAVBoxTraceSegmentReport@@AEBVPxBounds3@2@_NPEBV32@@Z 00000001800d4580 f i GuSweepsHF.obj
 0001:000d3580       ??$traceSegment@VCapsuleTraceSegmentReport@@$0A@$00@HeightFieldTraceUtil@Gu@physx@@QEBAXAEBV?$PxVec3T@M@2@0MPEAVCapsuleTraceSegmentReport@@AEBVPxBounds3@2@_NPEBV32@@Z 00000001800d4580 f i GuSweepsHF.obj
 0001:000d3580       ??$traceSegment@VConvexTraceSegmentReport@@$0A@$00@HeightFieldTraceUtil@Gu@physx@@QEBAXAEBV?$PxVec3T@M@2@0MPEAVConvexTraceSegmentReport@@AEBVPxBounds3@2@_NPEBV32@@Z 00000001800d4580 f i GuSweepsHF.obj
 0001:000d3d60       ??0ConvexTraceSegmentReport@@QEAA@AEBVHeightFieldUtil@Gu@physx@@AEBUConvexHullData@23@AEBVPxMeshScale@3@AEBV?$PxTransformT@M@3@3AEBV?$PxVec3T@M@3@MV?$PxFlags@W4Enum@PxHitFlag@physx@@G@3@M@Z 00000001800d4d60 f i GuSweepsHF.obj
 0001:000d46e0       ??_EBoxTraceSegmentReport@@UEAAPEAXI@Z 00000001800d56e0 f i GuSweepsHF.obj
 0001:000d46e0       ??_GBoxTraceSegmentReport@@UEAAPEAXI@Z 00000001800d56e0 f i GuSweepsHF.obj
 0001:000d4710       ??_ECapsuleTraceSegmentReport@@UEAAPEAXI@Z 00000001800d5710 f i GuSweepsHF.obj
 0001:000d4710       ??_GCapsuleTraceSegmentReport@@UEAAPEAXI@Z 00000001800d5710 f i GuSweepsHF.obj
 0001:000d4740       ??_EConvexTraceSegmentReport@@UEAAPEAXI@Z 00000001800d5740 f i GuSweepsHF.obj
 0001:000d4740       ??_GConvexTraceSegmentReport@@UEAAPEAXI@Z 00000001800d5740 f i GuSweepsHF.obj
 0001:000d4770       ??_EHeightFieldTraceSegmentReport@@UEAAPEAXI@Z 00000001800d5770 f i GuSweepsHF.obj
 0001:000d4770       ??_GHeightFieldTraceSegmentReport@@UEAAPEAXI@Z 00000001800d5770 f i GuSweepsHF.obj
 0001:000d47a0       ?onEvent@BoxTraceSegmentReport@@UEAA_NIPEBI@Z 00000001800d57a0 f i GuSweepsHF.obj
 0001:000d4c00       ?onEvent@CapsuleTraceSegmentReport@@UEAA_NIPEBI@Z 00000001800d5c00 f i GuSweepsHF.obj
 0001:000d4e20       ?onEvent@ConvexTraceSegmentReport@@UEAA_NIPEBI@Z 00000001800d5e20 f i GuSweepsHF.obj
 0001:000d53e0       ?prepare@?$OverlapTraceSegment@VBoxTraceSegmentReport@@@HeightFieldTraceUtil@Gu@physx@@QEAAXAEBV?$PxVec3T@M@4@00AEAM1@Z 00000001800d63e0 f i GuSweepsHF.obj
 0001:000d53e0       ?prepare@?$OverlapTraceSegment@VCapsuleTraceSegmentReport@@@HeightFieldTraceUtil@Gu@physx@@QEAAXAEBV?$PxVec3T@M@4@00AEAM1@Z 00000001800d63e0 f i GuSweepsHF.obj
 0001:000d53e0       ?prepare@?$OverlapTraceSegment@VConvexTraceSegmentReport@@@HeightFieldTraceUtil@Gu@physx@@QEAAXAEBV?$PxVec3T@M@4@00AEAM1@Z 00000001800d63e0 f i GuSweepsHF.obj
 0001:000d5680       ?sweepBox_HeightFieldGeom@@YA_NAEBVPxGeometry@physx@@AEBV?$PxTransformT@M@2@AEBVPxBoxGeometry@2@1AEBVBox@Gu@2@AEBV?$PxVec3T@M@2@MAEAUPxGeomSweepHit@2@V?$PxFlags@W4Enum@PxHitFlag@physx@@G@2@MPEAUPxQueryThreadContext@2@@Z 00000001800d6680 f   GuSweepsHF.obj
 0001:000d64b0       ?sweepCapsule_HeightFieldGeom@@YA_NAEBVPxGeometry@physx@@AEBV?$PxTransformT@M@2@AEBVPxCapsuleGeometry@2@1AEBVCapsule@Gu@2@AEBV?$PxVec3T@M@2@MAEAUPxGeomSweepHit@2@V?$PxFlags@W4Enum@PxHitFlag@physx@@G@2@MPEAUPxQueryThreadContext@2@@Z 00000001800d74b0 f   GuSweepsHF.obj
 0001:000d6e00       ?sweepConvex_HeightFieldGeom@@YA_NAEBVPxGeometry@physx@@AEBV?$PxTransformT@M@2@AEBVPxConvexMeshGeometry@2@1AEBV?$PxVec3T@M@2@MAEAUPxGeomSweepHit@2@V?$PxFlags@W4Enum@PxHitFlag@physx@@G@2@MPEAUPxQueryThreadContext@2@@Z 00000001800d7e00 f   GuSweepsHF.obj
 0001:000d79a0       ?testVertexIndex@?$OverlapTraceSegment@VBoxTraceSegmentReport@@@HeightFieldTraceUtil@Gu@physx@@QEAA_NI@Z 00000001800d89a0 f i GuSweepsHF.obj
 0001:000d79a0       ?testVertexIndex@?$OverlapTraceSegment@VCapsuleTraceSegmentReport@@@HeightFieldTraceUtil@Gu@physx@@QEAA_NI@Z 00000001800d89a0 f i GuSweepsHF.obj
 0001:000d79a0       ?testVertexIndex@?$OverlapTraceSegment@VConvexTraceSegmentReport@@@HeightFieldTraceUtil@Gu@physx@@QEAA_NI@Z 00000001800d89a0 f i GuSweepsHF.obj
 0001:000d7b00       ?transformFast@PxBounds3@physx@@SA?AV12@AEBV?$PxTransformT@M@2@AEBV12@@Z 00000001800d8b00 f i GuSweepsHF.obj
 0001:000d7ee0       ?visitCells@?$OverlapTraceSegment@VBoxTraceSegmentReport@@@HeightFieldTraceUtil@Gu@physx@@QEAA_NAEBUOverlapRectangle@1234@@Z 00000001800d8ee0 f i GuSweepsHF.obj
 0001:000d7ee0       ?visitCells@?$OverlapTraceSegment@VCapsuleTraceSegmentReport@@@HeightFieldTraceUtil@Gu@physx@@QEAA_NAEBUOverlapRectangle@1234@@Z 00000001800d8ee0 f i GuSweepsHF.obj
 0001:000d7ee0       ?visitCells@?$OverlapTraceSegment@VConvexTraceSegmentReport@@@HeightFieldTraceUtil@Gu@physx@@QEAA_NAEBUOverlapRectangle@1234@@Z 00000001800d8ee0 f i GuSweepsHF.obj
 0001:000d80c0       ?intersectOBBOBB@Gu@physx@@YA_NAEBV?$PxVec3T@M@2@0AEBV?$PxMat33T@M@2@001_N@Z 00000001800d90c0 f   GuIntersectionBoxBox.obj
 0001:000d8760       ?intersectCapsuleTriangle@Gu@physx@@YA_NAEBV?$PxVec3T@M@2@000AEBVCapsule@12@AEBUCapsuleTriangleOverlapData@12@@Z 00000001800d9760 f   GuIntersectionCapsuleTriangle.obj
 0001:000d92a0       ?intersectEdgeEdge@Gu@physx@@YA_NAEBV?$PxVec3T@M@2@0000AEAMAEAV32@@Z 00000001800da2a0 f   GuIntersectionEdgeEdge.obj
 0001:000d95d0       ?intersectRayAABB2@Gu@physx@@YA_NAEBT__m128@@0000AEAT3@1@Z 00000001800da5d0 f   GuIntersectionRayBox.obj
 0001:000d9690       ?intersectRayAABB2@Gu@physx@@YA_NAEBV?$PxVec3T@M@2@000MAEAM1@Z 00000001800da690 f   GuIntersectionRayBox.obj
 0001:000d9840       ?intersectRayAABB@Gu@physx@@YAHAEBV?$PxVec3T@M@2@000AEAM1@Z 00000001800da840 f   GuIntersectionRayBox.obj
 0001:000d9960       ?rayAABBIntersect2@Gu@physx@@YAIAEBV?$PxVec3T@M@2@000AEAV32@AEAM@Z 00000001800da960 f   GuIntersectionRayBox.obj
 0001:000d9ba0       ?intersectRayCapsuleInternal@Gu@physx@@YAIAEBV?$PxVec3T@M@2@000MQEAM@Z 00000001800daba0 f   GuIntersectionRayCapsule.obj
 0001:000da080       ?intersectRaySphere@Gu@physx@@YA_NAEBV?$PxVec3T@M@2@0M0MAEAMPEAV32@@Z 00000001800db080 f   GuIntersectionRaySphere.obj
 0001:000da180       ?intersectRaySphereBasic@Gu@physx@@YA_NAEBV?$PxVec3T@M@2@0M0MAEAMPEAV32@@Z 00000001800db180 f   GuIntersectionRaySphere.obj
 0001:000da2e0       ?intersectSphereBox@Gu@physx@@YA_NAEBVSphere@12@AEBVBox@12@@Z 00000001800db2e0 f   GuIntersectionSphereBox.obj
 0001:000da510       ?intersectTetrahedronBox@Gu@physx@@YA_NAEBV?$PxVec3T@M@2@000AEBVPxBounds3@2@@Z 00000001800db510 f   GuIntersectionTetrahedronBox.obj
 0001:000da8e0       ?intersectTriangleBox@Gu@physx@@YAHAEBVBoxPadded@12@AEBV?$PxVec3T@M@2@11@Z 00000001800db8e0 f   GuIntersectionTriangleBox.obj
 0001:000daec0       ?intersectTriangleBoxBV4@@YAHAEBV?$PxVec3T@M@physx@@00AEBV?$PxMat33T@M@2@00@Z 00000001800dbec0 f   GuIntersectionTriangleBox.obj
 0001:000db300       ?intersectTriangleBox_ReferenceCode@Gu@physx@@YAHAEBV?$PxVec3T@M@2@0000@Z 00000001800dc300 f   GuIntersectionTriangleBox.obj
 0001:000dbb40       ?intersectTriangleBox_Unsafe@Gu@physx@@YAHAEBV?$PxVec3T@M@2@0000@Z 00000001800dcb40 f   GuIntersectionTriangleBox.obj
 0001:000dbf00       ?intersectTriangleTriangle@Gu@physx@@YA_NAEBV?$PxVec3T@M@2@00000_N@Z 00000001800dcf00 f   GuIntersectionTriangleTriangle.obj
 0001:000dd340       ??0BV4Tree@Gu@physx@@QEAA@W4PxEMPTY@2@@Z 00000001800de340 f   GuBV4.obj
 0001:000dd350       ??0BV4Tree@Gu@physx@@QEAA@XZ 00000001800de350 f   GuBV4.obj
 0001:000dd380       ??0SourceMesh@Gu@physx@@QEAA@XZ 00000001800de380 f   GuBV4.obj
 0001:000dd3b0       ??0TetrahedronSourceMesh@Gu@physx@@QEAA@XZ 00000001800de3b0 f   GuBV4.obj
 0001:000dd3e0       ??1BV4Tree@Gu@physx@@QEAA@XZ 00000001800de3e0 f   GuBV4.obj
 0001:000dd3f0       ??1SourceMesh@Gu@physx@@UEAA@XZ 00000001800de3f0 f   GuBV4.obj
 0001:000dd3f0       ??1TetrahedronSourceMesh@Gu@physx@@UEAA@XZ 00000001800de3f0 f   GuBV4.obj
 0001:000dd440       ??4BV4Tree@Gu@physx@@QEAAXAEAV012@@Z 00000001800de440 f   GuBV4.obj
 0001:000dd4d0       ??4SourceMesh@Gu@physx@@QEAAXAEAV012@@Z 00000001800de4d0 f   GuBV4.obj
 0001:000dd520       ??_ESourceMesh@Gu@physx@@UEAAPEAXI@Z 00000001800de520 f i GuBV4.obj
 0001:000dd520       ??_ETetrahedronSourceMesh@Gu@physx@@UEAAPEAXI@Z 00000001800de520 f i GuBV4.obj
 0001:000dd520       ??_GSourceMesh@Gu@physx@@UEAAPEAXI@Z 00000001800de520 f i GuBV4.obj
 0001:000dd520       ??_GTetrahedronSourceMesh@Gu@physx@@UEAAPEAXI@Z 00000001800de520 f i GuBV4.obj
 0001:000dd5c0       ??_ESourceMeshBase@Gu@physx@@UEAAPEAXI@Z 00000001800de5c0 f i GuBV4.obj
 0001:000dd5c0       ??_GSourceMeshBase@Gu@physx@@UEAAPEAXI@Z 00000001800de5c0 f i GuBV4.obj
 0001:000dd660       ?exportExtraData@BV4Tree@Gu@physx@@QEAAXAEAVPxSerializationContext@3@@Z 00000001800de660 f   GuBV4.obj
 0001:000dd6c0       ?getPrimitiveBox@SourceMesh@Gu@physx@@UEAAXIAEAT__m128@@0@Z 00000001800de6c0 f   GuBV4.obj
 0001:000dd750       ?getPrimitiveBox@TetrahedronSourceMesh@Gu@physx@@UEAAXIAEAT__m128@@0@Z 00000001800de750 f   GuBV4.obj
 0001:000dd800       ?importExtraData@BV4Tree@Gu@physx@@QEAAXAEAVPxDeserializationContext@3@@Z 00000001800de800 f   GuBV4.obj
 0001:000dd840       ?init@BV32Tree@Gu@physx@@QEAA_NPEAVSourceMeshBase@23@AEBVPxBounds3@3@@Z 00000001800de840 f   GuBV32.obj
 0001:000dd840       ?init@BV4Tree@Gu@physx@@QEAA_NPEAVSourceMeshBase@23@AEBVPxBounds3@3@@Z 00000001800de840 f   GuBV4.obj
 0001:000dd8e0       ?load@BV4Tree@Gu@physx@@QEAA_NAEAVPxInputStream@3@_N@Z 00000001800de8e0 f   GuBV4.obj
 0001:000ddac0       ?refit@BV4Tree@Gu@physx@@QEAA_NAEAVPxBounds3@3@M@Z 00000001800deac0 f   GuBV4.obj
 0001:000de220       ?refit@SourceMesh@Gu@physx@@UEAAXIAEAVPxBounds3@3@@Z 00000001800df220 f   GuBV4.obj
 0001:000de3d0       ?refit@TetrahedronSourceMesh@Gu@physx@@UEAAXIAEAVPxBounds3@3@@Z 00000001800df3d0 f   GuBV4.obj
 0001:000de600       ?release@BV4Tree@Gu@physx@@QEAAXXZ 00000001800df600 f   GuBV4.obj
 0001:000de670       ?remapTopology@SourceMesh@Gu@physx@@UEAAXPEBI@Z 00000001800df670 f   GuBV4.obj
 0001:000de950       ?remapTopology@TetrahedronSourceMesh@Gu@physx@@UEAAXPEBI@Z 00000001800df950 f   GuBV4.obj
 0001:000dec40       ??0BV4_AABBTree@Gu@physx@@QEAA@XZ 00000001800dfc40 f   GuBV4Build.obj
 0001:000dec50       ??0BVData@@QEAA@XZ         00000001800dfc50 f   GuBV4Build.obj
 0001:000dec80       ??0BuildStats@Gu@physx@@QEAA@XZ 00000001800dfc80 f i GuBV4Build.obj
 0001:000dec90       ??1BV4_AABBTree@Gu@physx@@QEAA@XZ 00000001800dfc90 f   GuBV4Build.obj
 0001:000deca0       ??4BuildStats@Gu@physx@@QEAAAEAU012@$$QEAU012@@Z 00000001800dfca0 f i GuBV4Build.obj
 0001:000decb0       ??4BuildStats@Gu@physx@@QEAAAEAU012@AEBU012@@Z 00000001800dfcb0 f i GuBV4Build.obj
 0001:000decc0       ?BuildBV4Ex@Gu@physx@@YA_NAEAVBV4Tree@12@AEAVSourceMeshBase@12@MI_NW4BV4_BuildStrategy@12@@Z 00000001800dfcc0 f   GuBV4Build.obj
 0001:000dfba0       ?allocateNode@BV4BuildParams@@QEAAPEAUBV4Node@@XZ 00000001800e0ba0 f   GuBV4Build.obj
 0001:000e0010       ?buildFromMesh@BV4_AABBTree@Gu@physx@@QEAA_NAEAVSourceMeshBase@23@IW4BV4_BuildStrategy@23@@Z 00000001800e1010 f   GuBV4Build.obj
 0001:000e0f70       ?getCount@BuildStats@Gu@physx@@QEBAIXZ 00000001800e1f70 f i GuBV4Build.obj
 0001:000e0f70       ?getNbActiveObjects@PruningPool@Gu@physx@@QEBAIXZ 00000001800e1f70 f i GuIncrementalAABBPrunerCore.obj
 0001:000e1050       ?increaseCount@BuildStats@Gu@physx@@QEAAXI@Z 00000001800e2050 f i GuBV4Build.obj
 0001:000e1aa0       ?release@BV4_AABBTree@Gu@physx@@QEAAXXZ 00000001800e2aa0 f   GuBV4Build.obj
 0001:000e1b50       ?releaseNodes@BV4BuildParams@@QEAAXXZ 00000001800e2b50 f   GuBV4Build.obj
 0001:000e1bc0       ?reset@BuildStats@Gu@physx@@QEAAXXZ 00000001800e2bc0 f i GuBV4Build.obj
 0001:000e1bd0       ?setCount@BuildStats@Gu@physx@@QEAAXI@Z 00000001800e2bd0 f i GuBV4Build.obj
 0001:000e2240       ?walk@BV4_AABBTree@Gu@physx@@QEBAIP6A_NPEBVAABBTreeNode@23@IPEAX@Z1@Z 00000001800e3240 f   GuBV4Build.obj
 0001:000e2300       ?walkDistance@BV4_AABBTree@Gu@physx@@QEBAIP6A_NPEBVAABBTreeNode@23@IPEAX@ZP6A_N01@Z1@Z 00000001800e3300 f   GuBV4Build.obj
 0001:000e6220       ?GenericSweep_AABB_CB@@YAXAEBVBox@Gu@physx@@AEBV?$PxVec3T@M@3@MAEBVBV4Tree@23@P6A_NPEAX111IAEAM@Z3I@Z 00000001800e7220 f   GuBV4_AABBSweep.obj
 0001:000e6340       ?Sweep_AABB_BV4@@YAHAEBVBox@Gu@physx@@AEBV?$PxVec3T@M@3@MAEBVBV4Tree@23@PEIAVSweepHit@23@I@Z 00000001800e7340 f   GuBV4_AABBSweep.obj
 0001:000ef340       ?BV4_OverlapBoxAll@@YAIAEBVBox@Gu@physx@@AEBVBV4Tree@23@PEIBV?$PxMat44T@M@3@PEAIIAEA_N@Z 00000001800f0340 f   GuBV4_BoxOverlap.obj
 0001:000efb60       ?BV4_OverlapBoxAny@@YAHAEBVBox@Gu@physx@@AEBVBV4Tree@23@PEIBV?$PxMat44T@M@3@@Z 00000001800f0b60 f   GuBV4_BoxOverlap.obj
 0001:000f0320       ?BV4_OverlapBoxCB@@YAXAEBVBox@Gu@physx@@AEBVBV4Tree@23@P6A_NPEAXAEBV?$PxVec3T@M@3@333IPEBI@Z2@Z 00000001800f1320 f   GuBV4_BoxOverlap.obj
 0001:000f09b0       ?BV4_OverlapBoxCB@@YAXAEBVBox@Gu@physx@@AEBVBV4Tree@23@P6A_NPEAXAEBV?$PxVec3T@M@3@33IPEBI@Z2@Z 00000001800f19b0 f   GuBV4_BoxOverlap.obj
 0001:000f0e70       ?BV4_OverlapCapsuleAll@@YAIAEBVCapsule@Gu@physx@@AEBVBV4Tree@23@PEIBV?$PxMat44T@M@3@PEAIIAEA_N@Z 00000001800f1e70 f   GuBV4_BoxOverlap.obj
 0001:000f1570       ?BV4_OverlapCapsuleAny@@YAHAEBVCapsule@Gu@physx@@AEBVBV4Tree@23@PEIBV?$PxMat44T@M@3@@Z 00000001800f2570 f   GuBV4_BoxOverlap.obj
 0001:000f42a0       ?BV4_CapsuleSweepSingle@@YAHAEBVCapsule@Gu@physx@@AEBV?$PxVec3T@M@3@MAEBVBV4Tree@23@PEIAVSweepHit@23@I@Z 00000001800f52a0 f   GuBV4_CapsuleSweep.obj
 0001:000f8350       ?BV4_CapsuleSweepSingleAA@@YAHAEBVCapsule@Gu@physx@@AEBV?$PxVec3T@M@3@MAEBVBV4Tree@23@PEIAVSweepHit@23@I@Z 00000001800f9350 f   GuBV4_CapsuleSweepAA.obj
 0001:00109380       ?BV4_OverlapMeshVsMesh@@YA_NAEAV?$PxReportCallback@UPxGeomIndexPair@physx@@@physx@@AEBVBV4Tree@Gu@2@1PEBV?$PxMat44T@M@2@2AEBV?$PxTransformT@M@2@3AEBVPxMeshScale@2@4V?$PxFlags@W4Enum@PxMeshMeshQueryFlag@physx@@I@2@M@Z 000000018010a380 f   GuBV4_MeshMeshOverlap.obj
 0001:00109400       ?BV4_OverlapMeshVsMeshDistance@@YA_NAEAV?$PxReportCallback@UPxGeomIndexClosePair@physx@@@physx@@AEBVBV4Tree@Gu@2@1PEBV?$PxMat44T@M@2@2AEBV?$PxTransformT@M@2@3AEBVPxMeshScale@2@4V?$PxFlags@W4Enum@PxMeshMeshQueryFlag@physx@@I@2@M@Z 000000018010a400 f   GuBV4_MeshMeshOverlap.obj
 0001:00112320       ?BV4_BoxSweepSingle@@YAHAEBVBox@Gu@physx@@AEBV?$PxVec3T@M@3@MAEBVBV4Tree@23@PEIBV?$PxMat44T@M@3@PEIAVSweepHit@23@I@Z 0000000180113320 f   GuBV4_OBBSweep.obj
 0001:00112a50       ?BV4_GenericSweepCB@@YAXAEBVBox@Gu@physx@@AEBV?$PxVec3T@M@3@MAEBVBV4Tree@23@P6A_NPEAX111IAEAM@Z3_N@Z 0000000180113a50 f   GuBV4_OBBSweep.obj
 0001:00112c70       ?Sweep_OBB_BV4@@YAHAEBVBox@Gu@physx@@AEBV?$PxVec3T@M@3@MAEBVBV4Tree@23@PEIAVSweepHit@23@I@Z 0000000180113c70 f   GuBV4_OBBSweep.obj
 0001:001157c0       ?BV4_RaycastCB@@YAXAEBV?$PxVec3T@M@physx@@0AEBVBV4Tree@Gu@2@PEIBV?$PxMat44T@M@2@MMIP6A?AW4HitCode@42@PEAX000IMMM@Z3@Z 00000001801167c0 f   GuBV4_Raycast.obj
 0001:00115bf0       ?BV4_RaycastSingle@@YAHAEBV?$PxVec3T@M@physx@@0AEBVBV4Tree@Gu@2@PEIBV?$PxMat44T@M@2@PEIAUPxGeomRaycastHit@2@MMIV?$PxFlags@W4Enum@PxHitFlag@physx@@G@2@@Z 0000000180116bf0 f   GuBV4_Raycast.obj
 0001:00118180       ?BV4_OverlapSphereAll@@YAIAEBVSphere@Gu@physx@@AEBVBV4Tree@23@PEIBV?$PxMat44T@M@3@PEAIIAEA_N@Z 0000000180119180 f   GuBV4_SphereOverlap.obj
 0001:001184a0       ?BV4_OverlapSphereAny@@YAHAEBVSphere@Gu@physx@@AEBVBV4Tree@23@PEIBV?$PxMat44T@M@3@@Z 00000001801194a0 f   GuBV4_SphereOverlap.obj
 0001:00118780       ?BV4_PointDistance@@YAXAEBV?$PxVec3T@M@physx@@AEBVBV4Tree@Gu@2@MAEAIAEAMAEAV12@@Z 0000000180119780 f   GuBV4_SphereOverlap.obj
 0001:0011efd0       ?BV4_GenericSweepCB_Old@@YAXAEBV?$PxVec3T@M@physx@@00MAEBVBV4Tree@Gu@2@PEIBV?$PxMat44T@M@2@P6A_NPEAX000IAEAM@Z3@Z 000000018011ffd0 f   GuBV4_SphereSweep.obj
 0001:0011f3f0       ?BV4_SphereSweepSingle@@YAHAEBVSphere@Gu@physx@@AEBV?$PxVec3T@M@3@MAEBVBV4Tree@23@PEIBV?$PxMat44T@M@3@PEIAVSweepHit@23@I@Z 00000001801203f0 f   GuBV4_SphereSweep.obj
 0001:0011ff20       ?raycast_triangleMesh_BV4@Gu@physx@@YAIPEBVTriangleMesh@12@AEBVPxTriangleMeshGeometry@2@AEBV?$PxTransformT@M@2@AEBV?$PxVec3T@M@2@3MV?$PxFlags@W4Enum@PxHitFlag@physx@@G@2@IPEIAUPxGeomRaycastHit@2@I@Z 0000000180120f20 f   GuMidphaseBV4.obj
 0001:00120d40       ?intersectSphereVsMesh_BV4@Gu@physx@@YA_NAEBVSphere@12@AEBVTriangleMesh@12@AEBV?$PxTransformT@M@2@AEBVPxMeshScale@2@PEAULimitedResults@12@@Z 0000000180121d40 f   GuMidphaseBV4.obj
 0001:00121480       ?intersectBoxVsMesh_BV4@Gu@physx@@YA_NAEBVBox@12@AEBVTriangleMesh@12@AEBV?$PxTransformT@M@2@AEBVPxMeshScale@2@PEAULimitedResults@12@@Z 0000000180122480 f   GuMidphaseBV4.obj
 0001:00121ef0       ?intersectCapsuleVsMesh_BV4@Gu@physx@@YA_NAEBVCapsule@12@AEBVTriangleMesh@12@AEBV?$PxTransformT@M@2@AEBVPxMeshScale@2@PEAULimitedResults@12@@Z 0000000180122ef0 f   GuMidphaseBV4.obj
 0001:00122740       ?intersectOBB_BV4@Gu@physx@@YAXPEBVTriangleMesh@12@AEBVBox@12@AEAU?$MeshHitCallback@UPxGeomRaycastHit@physx@@@12@_N3@Z 0000000180123740 f   GuMidphaseBV4.obj
 0001:00122760       ?sweepCapsule_MeshGeom_BV4@Gu@physx@@YA_NPEBVTriangleMesh@12@AEBVPxTriangleMeshGeometry@2@AEBV?$PxTransformT@M@2@AEBVCapsule@12@AEBV?$PxVec3T@M@2@MAEAUPxGeomSweepHit@2@V?$PxFlags@W4Enum@PxHitFlag@physx@@G@2@M@Z 0000000180123760 f   GuMidphaseBV4.obj
 0001:00123230       ?sweepBox_MeshGeom_BV4@Gu@physx@@YA_NPEBVTriangleMesh@12@AEBVPxTriangleMeshGeometry@2@AEBV?$PxTransformT@M@2@AEBVBox@12@AEBV?$PxVec3T@M@2@MAEAUPxGeomSweepHit@2@V?$PxFlags@W4Enum@PxHitFlag@physx@@G@2@M@Z 0000000180124230 f   GuMidphaseBV4.obj
 0001:00124840       ?sweepConvex_MeshGeom_BV4@Gu@physx@@YAXPEBVTriangleMesh@12@AEBVBox@12@AEBV?$PxVec3T@M@2@MAEAUSweepConvexMeshHitCallback@12@_N@Z 0000000180125840 f   GuMidphaseBV4.obj
 0001:00124880       ?pointMeshDistance_BV4@Gu@physx@@YAXPEBVTriangleMesh@12@AEBVPxTriangleMeshGeometry@2@AEBV?$PxTransformT@M@2@AEBV?$PxVec3T@M@2@MAEAIAEAMAEAV62@@Z 0000000180125880 f   GuMidphaseBV4.obj
 0001:00125750       ?computeSweepData@physx@@YAMAEBVPxTriangleMeshGeometry@1@AEAV?$PxVec3T@M@1@11M@Z 0000000180126750 f i GuMidphaseBV4.obj
 0001:00125a70       ?distanceMeshVsMesh_BV4@Gu@physx@@YA_NAEAV?$PxReportCallback@UPxGeomIndexClosePair@physx@@@2@AEBVTriangleMesh@12@AEBV?$PxTransformT@M@2@AEBVPxMeshScale@2@123V?$PxFlags@W4Enum@PxMeshMeshQueryFlag@physx@@I@2@M@Z 0000000180126a70 f   GuMidphaseBV4.obj
 0001:00127380       ?intersectMeshVsMesh_BV4@Gu@physx@@YA_NAEAV?$PxReportCallback@UPxGeomIndexPair@physx@@@2@AEBVTriangleMesh@12@AEBV?$PxTransformT@M@2@AEBVPxMeshScale@2@123V?$PxFlags@W4Enum@PxMeshMeshQueryFlag@physx@@I@2@M@Z 0000000180128380 f   GuMidphaseBV4.obj
 0001:00127c10       ?intersectOBB_BV4@Gu@physx@@YAXPEBVTetrahedronMesh@12@AEBVBox@12@AEAU?$TetMeshHitCallback@UPxGeomRaycastHit@physx@@@12@@Z 0000000180128c10 f   GuMidphaseBV4.obj
 0001:00127c30       ?findOverlapHeightField@PxMeshQuery@physx@@SAIAEBVPxGeometry@2@AEBV?$PxTransformT@M@2@AEBVPxHeightFieldGeometry@2@1PEAIIIAEA_NV?$PxFlags@W4Enum@PxGeometryQueryFlag@physx@@I@2@@Z 0000000180128c30 f   GuMeshQuery.obj
 0001:00128390       ?findOverlapTriangleMesh@PxMeshQuery@physx@@SAIAEBVPxGeometry@2@AEBV?$PxTransformT@M@2@AEBVPxTriangleMeshGeometry@2@1PEAIIIAEA_NV?$PxFlags@W4Enum@PxGeometryQueryFlag@physx@@I@2@@Z 0000000180129390 f   GuMeshQuery.obj
 0001:001286b0       ?findOverlapTriangleMesh@PxMeshQuery@physx@@SA_NAEAV?$PxReportCallback@UPxGeomIndexClosePair@physx@@@2@AEBVPxTriangleMeshGeometry@2@AEBV?$PxTransformT@M@2@12V?$PxFlags@W4Enum@PxGeometryQueryFlag@physx@@I@2@V?$PxFlags@W4Enum@PxMeshMeshQueryFlag@physx@@I@2@M@Z 00000001801296b0 f   GuMeshQuery.obj
 0001:001287e0       ?findOverlapTriangleMesh@PxMeshQuery@physx@@SA_NAEAV?$PxReportCallback@UPxGeomIndexPair@physx@@@2@AEBVPxTriangleMeshGeometry@2@AEBV?$PxTransformT@M@2@12V?$PxFlags@W4Enum@PxGeometryQueryFlag@physx@@I@2@V?$PxFlags@W4Enum@PxMeshMeshQueryFlag@physx@@I@2@M@Z 00000001801297e0 f   GuMeshQuery.obj
 0001:00128910       ?getTriangle@PxMeshQuery@physx@@SAXAEBVPxHeightFieldGeometry@2@AEBV?$PxTransformT@M@2@IAEAVPxTriangle@2@PEAI3@Z 0000000180129910 f   GuMeshQuery.obj
 0001:00128990       ?getTriangle@PxMeshQuery@physx@@SAXAEBVPxTriangleMeshGeometry@2@AEBV?$PxTransformT@M@2@IAEAVPxTriangle@2@PEAI3@Z 0000000180129990 f   GuMeshQuery.obj
 0001:00128e80       ?sweep@PxMeshQuery@physx@@SA_NAEBV?$PxVec3T@M@2@MAEBVPxGeometry@2@AEBV?$PxTransformT@M@2@IPEBVPxTriangle@2@AEAUPxGeomSweepHit@2@V?$PxFlags@W4Enum@PxHitFlag@physx@@G@2@PEBIM_NV?$PxFlags@W4Enum@PxGeometryQueryFlag@physx@@I@2@@Z 0000000180129e80 f   GuMeshQuery.obj
 0001:001292a0       ?raycast_triangleMesh_RTREE@Gu@physx@@YAIPEBVTriangleMesh@12@AEBVPxTriangleMeshGeometry@2@AEBV?$PxTransformT@M@2@AEBV?$PxVec3T@M@2@3MV?$PxFlags@W4Enum@PxHitFlag@physx@@G@2@IPEIAUPxGeomRaycastHit@2@I@Z 000000018012a2a0 f   GuMidphaseRTree.obj
 0001:00129a10       ?intersectSphereVsMesh_RTREE@Gu@physx@@YA_NAEBVSphere@12@AEBVTriangleMesh@12@AEBV?$PxTransformT@M@2@AEBVPxMeshScale@2@PEAULimitedResults@12@@Z 000000018012aa10 f   GuMidphaseRTree.obj
 0001:00129cd0       ?intersectBoxVsMesh_RTREE@Gu@physx@@YA_NAEBVBox@12@AEBVTriangleMesh@12@AEBV?$PxTransformT@M@2@AEBVPxMeshScale@2@PEAULimitedResults@12@@Z 000000018012acd0 f   GuMidphaseRTree.obj
 0001:00129d40       ?intersectCapsuleVsMesh_RTREE@Gu@physx@@YA_NAEBVCapsule@12@AEBVTriangleMesh@12@AEBV?$PxTransformT@M@2@AEBVPxMeshScale@2@PEAULimitedResults@12@@Z 000000018012ad40 f   GuMidphaseRTree.obj
 0001:00129dc0       ?intersectOBB_RTREE@Gu@physx@@YAXPEBVTriangleMesh@12@AEBVBox@12@AEAU?$MeshHitCallback@UPxGeomRaycastHit@physx@@@12@_N3@Z 000000018012adc0 f   GuMidphaseRTree.obj
 0001:00129df0       ?sweepCapsule_MeshGeom_RTREE@Gu@physx@@YA_NPEBVTriangleMesh@12@AEBVPxTriangleMeshGeometry@2@AEBV?$PxTransformT@M@2@AEBVCapsule@12@AEBV?$PxVec3T@M@2@MAEAUPxGeomSweepHit@2@V?$PxFlags@W4Enum@PxHitFlag@physx@@G@2@M@Z 000000018012adf0 f   GuMidphaseRTree.obj
 0001:0012a550       ?sweepBox_MeshGeom_RTREE@Gu@physx@@YA_NPEBVTriangleMesh@12@AEBVPxTriangleMeshGeometry@2@AEBV?$PxTransformT@M@2@AEBVBox@12@AEBV?$PxVec3T@M@2@MAEAUPxGeomSweepHit@2@V?$PxFlags@W4Enum@PxHitFlag@physx@@G@2@M@Z 000000018012b550 f   GuMidphaseRTree.obj
 0001:0012b8d0       ?sweepConvex_MeshGeom_RTREE@Gu@physx@@YAXPEBVTriangleMesh@12@AEBVBox@12@AEBV?$PxVec3T@M@2@MAEAUSweepConvexMeshHitCallback@12@_N@Z 000000018012c8d0 f   GuMidphaseRTree.obj
 0001:0012b920       ?pointMeshDistance_RTREE@Gu@physx@@YAXPEBVTriangleMesh@12@AEBVPxTriangleMeshGeometry@2@AEBV?$PxTransformT@M@2@AEBV?$PxVec3T@M@2@MAEAIAEAMAEAV62@@Z 000000018012c920 f   GuMidphaseRTree.obj
 0001:0012b960       ??$collide@$00$00@MeshRayCollider@@SAXAEBV?$PxVec3T@M@physx@@0M_NPEBVRTreeTriangleMesh@Gu@2@AEAU?$MeshHitCallback@UPxGeomRaycastHit@physx@@@42@PEBV12@@Z 000000018012c960 f i GuMidphaseRTree.obj
 0001:0012bcd0       ??$collide@$00$0A@@MeshRayCollider@@SAXAEBV?$PxVec3T@M@physx@@0M_NPEBVRTreeTriangleMesh@Gu@2@AEAU?$MeshHitCallback@UPxGeomRaycastHit@physx@@@42@PEBV12@@Z 000000018012ccd0 f i GuMidphaseRTree.obj
 0001:0012bf10       ??$collide@$0A@$00@MeshRayCollider@@SAXAEBV?$PxVec3T@M@physx@@0M_NPEBVRTreeTriangleMesh@Gu@2@AEAU?$MeshHitCallback@UPxGeomRaycastHit@physx@@@42@PEBV12@@Z 000000018012cf10 f i GuMidphaseRTree.obj
 0001:0012df40       ??0?$RayRTreeCallback@$00$0A@@@QEAA@MAEAU?$MeshHitCallback@UPxGeomRaycastHit@physx@@@Gu@physx@@HPEBXPEBV?$PxVec3T@M@3@AEBV43@3M_N2@Z 000000018012ef40 f i GuMidphaseRTree.obj
 0001:0012e060       ??1?$RayRTreeCallback@$00$00@@UEAA@XZ 000000018012f060 f i GuMidphaseRTree.obj
 0001:0012e0f0       ??1?$RayRTreeCallback@$00$0A@@@UEAA@XZ 000000018012f0f0 f i GuMidphaseRTree.obj
 0001:0012e0f0       ??1?$RayRTreeCallback@$0A@$0A@@@UEAA@XZ 000000018012f0f0 f i GuMidphaseRTree.obj
 0001:0012e180       ??1?$RayRTreeCallback@$0A@$00@@UEAA@XZ 000000018012f180 f i GuMidphaseRTree.obj
 0001:0012e208       ??_E?$RayRTreeCallback@$00$00@@W7EAAPEAXI@Z 000000018012f208 f i GuMidphaseRTree.obj
 0001:0012e214       ??_E?$RayRTreeCallback@$00$0A@@@W7EAAPEAXI@Z 000000018012f214 f i GuMidphaseRTree.obj
 0001:0012e214       ??_E?$RayRTreeCallback@$0A@$0A@@@W7EAAPEAXI@Z 000000018012f214 f i GuMidphaseRTree.obj
 0001:0012e220       ??_E?$RayRTreeCallback@$0A@$00@@W7EAAPEAXI@Z 000000018012f220 f i GuMidphaseRTree.obj
 0001:0012e290       ??_E?$RayRTreeCallback@$00$00@@UEAAPEAXI@Z 000000018012f290 f i GuMidphaseRTree.obj
 0001:0012e290       ??_G?$RayRTreeCallback@$00$00@@UEAAPEAXI@Z 000000018012f290 f i GuMidphaseRTree.obj
 0001:0012e2d0       ??_E?$RayRTreeCallback@$00$0A@@@UEAAPEAXI@Z 000000018012f2d0 f i GuMidphaseRTree.obj
 0001:0012e2d0       ??_E?$RayRTreeCallback@$0A@$0A@@@UEAAPEAXI@Z 000000018012f2d0 f i GuMidphaseRTree.obj
 0001:0012e2d0       ??_G?$RayRTreeCallback@$00$0A@@@UEAAPEAXI@Z 000000018012f2d0 f i GuMidphaseRTree.obj
 0001:0012e2d0       ??_G?$RayRTreeCallback@$0A@$0A@@@UEAAPEAXI@Z 000000018012f2d0 f i GuMidphaseRTree.obj
 0001:0012e310       ??_E?$RayRTreeCallback@$0A@$00@@UEAAPEAXI@Z 000000018012f310 f i GuMidphaseRTree.obj
 0001:0012e310       ??_G?$RayRTreeCallback@$0A@$00@@UEAAPEAXI@Z 000000018012f310 f i GuMidphaseRTree.obj
 0001:0012e350       ??_ECallback@RTree@Gu@physx@@UEAAPEAXI@Z 000000018012f350 f i GuMidphaseRTree.obj
 0001:0012e350       ??_GCallback@RTree@Gu@physx@@UEAAPEAXI@Z 000000018012f350 f i GuMidphaseRTree.obj
 0001:0012e380       ??_ERayMeshColliderCallback@@UEAAPEAXI@Z 000000018012f380 f i GuMidphaseRTree.obj
 0001:0012e380       ??_ESweepCapsuleMeshHitCallback@Gu@physx@@UEAAPEAXI@Z 000000018012f380 f i GuSweepsMesh.obj
 0001:0012e380       ??_GRayMeshColliderCallback@@UEAAPEAXI@Z 000000018012f380 f i GuMidphaseRTree.obj
 0001:0012e380       ??_GSweepCapsuleMeshHitCallback@Gu@physx@@UEAAPEAXI@Z 000000018012f380 f i GuSweepsMesh.obj
 0001:0012e3b0       ?collideOBB@MeshRayCollider@@SAXAEBVBox@Gu@physx@@_NPEBVRTreeTriangleMesh@34@AEAU?$MeshHitCallback@UPxGeomRaycastHit@physx@@@34@1@Z 000000018012f3b0 f   GuMidphaseRTree.obj
 0001:0012f4d0       ?processHit@RayMeshColliderCallback@@UEAA_NAEBUPxGeomRaycastHit@physx@@AEBV?$PxVec3T@M@3@11AEAMPEBI@Z 00000001801304d0 f i GuMidphaseRTree.obj
 0001:0012fc80       ?processResults@?$RayRTreeCallback@$00$00@@UEAA_NIPEAI@Z 0000000180130c80 f i GuMidphaseRTree.obj
 0001:0012fff0       ?processResults@?$RayRTreeCallback@$00$00@@UEAA_NIPEAIAEAM@Z 0000000180130ff0 f i GuMidphaseRTree.obj
 0001:00130350       ?processResults@?$RayRTreeCallback@$00$0A@@@UEAA_NIPEAI@Z 0000000180131350 f i GuMidphaseRTree.obj
 0001:00130350       ?processResults@?$RayRTreeCallback@$0A@$0A@@@UEAA_NIPEAI@Z 0000000180131350 f i GuMidphaseRTree.obj
 0001:001305c0       ?processResults@?$RayRTreeCallback@$00$0A@@@UEAA_NIPEAIAEAM@Z 00000001801315c0 f i GuMidphaseRTree.obj
 0001:001305c0       ?processResults@?$RayRTreeCallback@$0A@$0A@@@UEAA_NIPEAIAEAM@Z 00000001801315c0 f i GuMidphaseRTree.obj
 0001:00130830       ?processResults@?$RayRTreeCallback@$0A@$00@@UEAA_NIPEAI@Z 0000000180131830 f i GuMidphaseRTree.obj
 0001:00130e90       ?processResults@?$RayRTreeCallback@$0A@$00@@UEAA_NIPEAIAEAM@Z 0000000180131e90 f i GuMidphaseRTree.obj
 0001:00131ee0       ??_EPxReportCallbackBase@physx@@UEAAPEAXI@Z 0000000180132ee0 f i GuOverlapTestsMesh.obj
 0001:00131ee0       ??_GPxReportCallbackBase@physx@@UEAAPEAXI@Z 0000000180132ee0 f i GuOverlapTestsMesh.obj
 0001:00131f10       ?GeomOverlapCallback_BoxMesh@@YA_NAEBVPxGeometry@physx@@AEBV?$PxTransformT@M@2@01PEAUTriggerCache@Gu@2@PEAUPxQueryThreadContext@2@@Z 0000000180132f10 f   GuOverlapTestsMesh.obj
 0001:00132020       ?GeomOverlapCallback_CapsuleMesh@@YA_NAEBVPxGeometry@physx@@AEBV?$PxTransformT@M@2@01PEAUTriggerCache@Gu@2@PEAUPxQueryThreadContext@2@@Z 0000000180133020 f   GuOverlapTestsMesh.obj
 0001:00132150       ?GeomOverlapCallback_ConvexCoreMesh@@YA_NAEBVPxGeometry@physx@@AEBV?$PxTransformT@M@2@01PEAUTriggerCache@Gu@2@PEAUPxQueryThreadContext@2@@Z 0000000180133150 f   GuOverlapTestsMesh.obj
 0001:00132730       ?GeomOverlapCallback_ConvexMesh@@YA_NAEBVPxGeometry@physx@@AEBV?$PxTransformT@M@2@01PEAUTriggerCache@Gu@2@PEAUPxQueryThreadContext@2@@Z 0000000180133730 f   GuOverlapTestsMesh.obj
 0001:00132c30       ?GeomOverlapCallback_MeshMesh@@YA_NAEBVPxGeometry@physx@@AEBV?$PxTransformT@M@2@01PEAUTriggerCache@Gu@2@PEAUPxQueryThreadContext@2@@Z 0000000180133c30 f   GuOverlapTestsMesh.obj
 0001:00132d00       ?GeomOverlapCallback_SphereMesh@@YA_NAEBVPxGeometry@physx@@AEBV?$PxTransformT@M@2@01PEAUTriggerCache@Gu@2@PEAUPxQueryThreadContext@2@@Z 0000000180133d00 f   GuOverlapTestsMesh.obj
 0001:00133220       ??0RTree@Gu@physx@@QEAA@W4PxEMPTY@2@@Z 0000000180134220 f   GuRTree.obj
 0001:00133230       ?exportExtraData@RTree@Gu@physx@@QEAAXAEAVPxSerializationContext@3@@Z 0000000180134230 f   GuRTree.obj
 0001:00133270       ?importExtraData@RTree@Gu@physx@@QEAAXAEAVPxDeserializationContext@3@@Z 0000000180134270 f   GuRTree.obj
 0001:001332a0       ?load@RTree@Gu@physx@@QEAA_NAEAVPxInputStream@3@I_N@Z 00000001801342a0 f   GuRTree.obj
 0001:001335c0       ?refitAllStaticTree@RTree@Gu@physx@@QEAAXAEAUCallbackRefit@123@PEAVPxBounds3@3@@Z 00000001801345c0 f   GuRTree.obj
 0001:00133b80       ?validate@RTree@Gu@physx@@QEAAXPEAUCallbackRefit@123@@Z 0000000180134b80 f   GuRTree.obj
 0001:00133dc0       ?validateRecursive@RTree@Gu@physx@@IEAAXIURTreeNodeQ@23@PEAURTreePage@23@PEAUCallbackRefit@123@@Z 0000000180134dc0 f   GuRTree.obj
 0001:00133f80       ??$traverseRay@$00@RTree@Gu@physx@@QEBAXAEBV?$PxVec3T@M@2@0IPEAIPEAUCallbackRaycast@012@PEBV32@M@Z 0000000180134f80 f i GuRTreeQueries.obj
 0001:00134300       ??$traverseRay@$0A@@RTree@Gu@physx@@QEBAXAEBV?$PxVec3T@M@2@0IPEAIPEAUCallbackRaycast@012@PEBV32@M@Z 0000000180135300 f i GuRTreeQueries.obj
 0001:00134630       ?traverseAABB@RTree@Gu@physx@@QEBAXAEBV?$PxVec3T@M@3@0IPEAIPEAUCallback@123@@Z 0000000180135630 f   GuRTreeQueries.obj
 0001:00134810       ?traverseOBB@RTree@Gu@physx@@QEBAXAEBVBox@23@IPEAIPEAUCallback@123@@Z 0000000180135810 f   GuRTreeQueries.obj
 0001:001350e0       ??0SweepBoxMeshHitCallback@Gu@physx@@QEAA@W4Enum@CallbackMode@12@AEBVPxMat34Padded@2@M_NAEBVBox@12@AEBV?$PxVec3T@M@2@44AEBV?$PxFlags@W4Enum@PxHitFlag@physx@@G@2@M2M@Z 00000001801360e0 f   GuSweepsMesh.obj
 0001:001351f0       ??0SweepCapsuleMeshHitCallback@Gu@physx@@QEAA@AEAUPxGeomSweepHit@2@AEBV?$PxMat34T@M@2@M_NAEBVCapsule@12@AEBV?$PxVec3T@M@2@AEBV?$PxFlags@W4Enum@PxHitFlag@physx@@G@2@2M@Z 00000001801361f0 f   GuSweepsMesh.obj
 0001:001352c0       ??0SweepConvexMeshHitCallback@Gu@physx@@QEAA@AEBUConvexHullData@12@AEBVPxMeshScale@2@AEBVFastVertex2ShapeScaling@Cm@2@AEBV?$PxTransformT@M@2@3AEBV?$PxVec3T@M@2@MV?$PxFlags@W4Enum@PxHitFlag@physx@@G@2@_NM6M@Z 00000001801362c0 f   GuSweepsMesh.obj
 0001:00135c20       ??_ESweepBoxMeshHitCallback@Gu@physx@@UEAAPEAXI@Z 0000000180136c20 f i GuSweepsMesh.obj
 0001:00135c20       ??_GSweepBoxMeshHitCallback@Gu@physx@@UEAAPEAXI@Z 0000000180136c20 f i GuSweepsMesh.obj
 0001:00135c50       ??_ESweepConvexMeshHitCallback@Gu@physx@@UEAAPEAXI@Z 0000000180136c50 f i GuSweepsMesh.obj
 0001:00135c50       ??_GSweepConvexMeshHitCallback@Gu@physx@@UEAAPEAXI@Z 0000000180136c50 f i GuSweepsMesh.obj
 0001:00135c80       ??_ESweepShapeMeshHitCallback@Gu@physx@@UEAAPEAXI@Z 0000000180136c80 f i GuSweepsMesh.obj
 0001:00135c80       ??_GSweepShapeMeshHitCallback@Gu@physx@@UEAAPEAXI@Z 0000000180136c80 f i GuSweepsMesh.obj
 0001:00135cb0       ?finalizeHit@SweepBoxMeshHitCallback@Gu@physx@@QEBA_NAEAUPxGeomSweepHit@3@AEBVPxTriangleMeshGeometry@3@AEBV?$PxTransformT@M@3@2AEBV?$PxVec3T@M@3@_N4@Z 0000000180136cb0 f   GuSweepsMesh.obj
 0001:00136360       ?finalizeHit@SweepCapsuleMeshHitCallback@Gu@physx@@QEBA_NAEAUPxGeomSweepHit@3@AEBVCapsule@23@AEBVPxTriangleMeshGeometry@3@AEBV?$PxTransformT@M@3@_N@Z 0000000180137360 f   GuSweepsMesh.obj
 0001:00136510       ?finalizeHit@SweepConvexMeshHitCallback@Gu@physx@@QEAA_NAEAUPxGeomSweepHit@3@AEBVPxTriangleMeshGeometry@3@AEBV?$PxTransformT@M@3@AEBVPxConvexMeshGeometry@3@2AEBV?$PxVec3T@M@3@M_N555@Z 0000000180137510 f   GuSweepsMesh.obj
 0001:001369e0       ?processHit@SweepBoxMeshHitCallback@Gu@physx@@UEAA_NAEBUPxGeomRaycastHit@3@AEBV?$PxVec3T@M@3@11AEAMPEBI@Z 00000001801379e0 f   GuSweepsMesh.obj
 0001:001371a0       ?processHit@SweepCapsuleMeshHitCallback@Gu@physx@@UEAA_NAEBUPxGeomRaycastHit@3@AEBV?$PxVec3T@M@3@11AEAMPEBI@Z 00000001801381a0 f   GuSweepsMesh.obj
 0001:001376f0       ?processHit@SweepConvexMeshHitCallback@Gu@physx@@UEAA_NAEBUPxGeomRaycastHit@3@AEBV?$PxVec3T@M@3@11AEAMPEBI@Z 00000001801386f0 f   GuSweepsMesh.obj
 0001:00137e40       ?sweepBox_MeshGeom@@YA_NAEBVPxGeometry@physx@@AEBV?$PxTransformT@M@2@AEBVPxBoxGeometry@2@1AEBVBox@Gu@2@AEBV?$PxVec3T@M@2@MAEAUPxGeomSweepHit@2@V?$PxFlags@W4Enum@PxHitFlag@physx@@G@2@MPEAUPxQueryThreadContext@2@@Z 0000000180138e40 f   GuSweepsMesh.obj
 0001:00137ed0       ?sweepCapsule_MeshGeom@@YA_NAEBVPxGeometry@physx@@AEBV?$PxTransformT@M@2@AEBVPxCapsuleGeometry@2@1AEBVCapsule@Gu@2@AEBV?$PxVec3T@M@2@MAEAUPxGeomSweepHit@2@V?$PxFlags@W4Enum@PxHitFlag@physx@@G@2@MPEAUPxQueryThreadContext@2@@Z 0000000180138ed0 f   GuSweepsMesh.obj
 0001:00137f60       ?sweepConvex_MeshGeom@@YA_NAEBVPxGeometry@physx@@AEBV?$PxTransformT@M@2@AEBVPxConvexMeshGeometry@2@1AEBV?$PxVec3T@M@2@MAEAUPxGeomSweepHit@2@V?$PxFlags@W4Enum@PxHitFlag@physx@@G@2@MPEAUPxQueryThreadContext@2@@Z 0000000180138f60 f   GuSweepsMesh.obj
 0001:00138ac0       ??0TriangleMesh@Gu@physx@@QEAA@AEBUPxTriangleMeshInternalData@2@@Z 0000000180139ac0 f   GuTriangleMesh.obj
 0001:00138ba0       ??0TriangleMesh@Gu@physx@@QEAA@PEAVMeshFactory@12@AEAVTriangleMeshData@12@@Z 0000000180139ba0 f   GuTriangleMesh.obj
 0001:00138f20       ??1TriangleMesh@Gu@physx@@UEAA@XZ 0000000180139f20 f   GuTriangleMesh.obj
 0001:001391b0       ??_ETriangleMesh@Gu@physx@@UEAAPEAXI@Z 000000018013a1b0 f i GuTriangleMesh.obj
 0001:001391b0       ??_GTriangleMesh@Gu@physx@@UEAAPEAXI@Z 000000018013a1b0 f i GuTriangleMesh.obj
 0001:00139220       ?exportExtraData@TriangleMesh@Gu@physx@@UEAAXAEAVPxSerializationContext@3@@Z 000000018013a220 f   GuTriangleMesh.obj
 0001:001394a0       ?getLocalBounds@TriangleMesh@Gu@physx@@UEBA?AVPxBounds3@3@XZ 000000018013a4a0 f i GuTriangleMesh.obj
 0001:00139520       ?getMassInformation@TriangleMesh@Gu@physx@@UEBAXAEAMAEAV?$PxMat33T@M@3@AEAV?$PxVec3T@M@3@@Z 000000018013a520 f i GuTriangleMesh.obj
 0001:001395a0       ?getNbTriangles@TriangleMesh@Gu@physx@@UEBAIXZ 000000018013a5a0 f i GuTriangleMesh.obj
 0001:001395b0       ?getPreferSDFProjection@TriangleMesh@Gu@physx@@UEBA_NXZ 000000018013a5b0 f i GuTriangleMesh.obj
 0001:001395c0       ?getSDF@TriangleMesh@Gu@physx@@UEBAPEBMXZ 000000018013a5c0 f i GuTriangleMesh.obj
 0001:001395d0       ?getSDFDimensions@TriangleMesh@Gu@physx@@UEBAXAEAI00@Z 000000018013a5d0 f i GuTriangleMesh.obj
 0001:00139600       ?getTriangleMaterialIndex@TriangleMesh@Gu@physx@@UEBAGI@Z 000000018013a600 f i GuTriangleMesh.obj
 0001:00139620       ?getTriangleMeshFlags@TriangleMesh@Gu@physx@@UEBA?AV?$PxFlags@W4Enum@PxTriangleMeshFlag@physx@@E@3@XZ 000000018013a620 f i GuTriangleMesh.obj
 0001:00139630       ?getTrianglesRemap@TriangleMesh@Gu@physx@@UEBAPEBIXZ 000000018013a630 f i GuTriangleMesh.obj
 0001:00139640       ?getVerticesForModification@TriangleMesh@Gu@physx@@UEAAPEAV?$PxVec3T@M@3@XZ 000000018013a640 f   GuTriangleMesh.obj
 0001:00139680       ?importExtraData@TriangleMesh@Gu@physx@@QEAAXAEAVPxDeserializationContext@3@@Z 000000018013a680 f   GuTriangleMesh.obj
 0001:001398a0       ?isKindOf@PxTriangleMesh@physx@@MEBA_NPEBD@Z 000000018013a8a0 f i GuTriangleMesh.obj
 0001:00139930       ?onRefCountZero@TriangleMesh@Gu@physx@@UEAAXXZ 000000018013a930 f   GuTriangleMesh.obj
 0001:00139a00       ?refitBVH@TriangleMesh@Gu@physx@@UEAA?AVPxBounds3@3@XZ 000000018013aa00 f   GuTriangleMesh.obj
 0001:00139ac0       ?requestEdgeList@TriangleMesh@Gu@physx@@QEBAPEBVEdgeList@23@XZ 000000018013aac0 f   GuTriangleMesh.obj
 0001:00139bb0       ?setAllEdgesActive@TriangleMesh@Gu@physx@@QEAAXXZ 000000018013abb0 f   GuTriangleMesh.obj
 0001:00139ca0       ?setPreferSDFProjection@TriangleMesh@Gu@physx@@UEAAX_N@Z 000000018013aca0 f i GuTriangleMesh.obj
 0001:00139cd0       ??0BV4TriangleMesh@Gu@physx@@QEAA@AEBUPxTriangleMeshInternalData@2@@Z 000000018013acd0 f   GuTriangleMeshBV4.obj
 0001:00139e40       ??0BV4TriangleMesh@Gu@physx@@QEAA@PEAVMeshFactory@12@AEAVTriangleMeshData@12@@Z 000000018013ae40 f   GuTriangleMeshBV4.obj
 0001:00139ed0       ??_EBV4TriangleMesh@Gu@physx@@UEAAPEAXI@Z 000000018013aed0 f i GuTriangleMeshBV4.obj
 0001:00139ed0       ??_GBV4TriangleMesh@Gu@physx@@UEAAPEAXI@Z 000000018013aed0 f i GuTriangleMeshBV4.obj
 0001:00139f60       ?createObject@BV4TriangleMesh@Gu@physx@@SAPEAVTriangleMesh@23@AEAPEAEAEAVPxDeserializationContext@3@@Z 000000018013af60 f   GuTriangleMeshBV4.obj
 0001:0013a040       ?exportExtraData@BV4TriangleMesh@Gu@physx@@UEAAXAEAVPxSerializationContext@3@@Z 000000018013b040 f   GuTriangleMeshBV4.obj
 0001:0013a080       ?getConcreteTypeName@BV4TriangleMesh@Gu@physx@@UEBAPEBDXZ 000000018013b080 f i GuTriangleMeshBV4.obj
 0001:0013a090       ?getInternalData@BV4TriangleMesh@Gu@physx@@UEBA_NAEAUPxTriangleMeshInternalData@3@_N@Z 000000018013b090 f   GuTriangleMeshBV4.obj
 0001:0013a180       ?getMidphaseID@BV4TriangleMesh@Gu@physx@@UEBA?AW4Enum@PxMeshMidPhase@3@XZ 000000018013b180 f i GuTriangleMeshBV4.obj
 0001:0013a180       ?getMidphaseID@BV4TriangleMeshBuilder@physx@@UEBA?AW4Enum@PxMeshMidPhase@2@XZ 000000018013b180 f i GuCookingTriangleMesh.obj
 0001:0013a180       ?length@charNode@@UEBAHXZ  000000018013b180 f i libvcruntime:undname.obj
 0001:0013a180       ?raw_length@charNode@@UEBAHXZ 000000018013b180 f i libvcruntime:undname.obj
 0001:0013a180       DllMain                    000000018013b180 f i LIBCMT:dll_dllmain_stub.obj
 0001:0013a180       _get_startup_argv_mode     000000018013b180 f i LIBCMT:argv_mode.obj
 0001:0013a190       ?getVerticesForModification@BV4TriangleMesh@Gu@physx@@UEAAPEAV?$PxVec3T@M@3@XZ 000000018013b190 f   GuTriangleMeshBV4.obj
 0001:0013a190       ?getVerticesForModification@RTreeTriangleMesh@Gu@physx@@UEAAPEAV?$PxVec3T@M@3@XZ 000000018013b190 f   GuTriangleMeshRTree.obj
 0001:0013a1a0       ?refitBVH@BV4TriangleMesh@Gu@physx@@UEAA?AVPxBounds3@3@XZ 000000018013b1a0 f   GuTriangleMeshBV4.obj
 0001:0013a310       PxGetTriangleMeshInternalData 000000018013b310 f   GuTriangleMeshBV4.obj
 0001:0013a330       ??0RTreeTriangleMesh@Gu@physx@@QEAA@PEAVMeshFactory@12@AEAVTriangleMeshData@12@@Z 000000018013b330 f   GuTriangleMeshRTree.obj
 0001:0013a4a0       ??_E?$RefitCallback@G@physx@@UEAAPEAXI@Z 000000018013b4a0 f i GuTriangleMeshRTree.obj
 0001:0013a4a0       ??_E?$RefitCallback@I@physx@@UEAAPEAXI@Z 000000018013b4a0 f i GuTriangleMeshRTree.obj
 0001:0013a4a0       ??_G?$RefitCallback@G@physx@@UEAAPEAXI@Z 000000018013b4a0 f i GuTriangleMeshRTree.obj
 0001:0013a4a0       ??_G?$RefitCallback@I@physx@@UEAAPEAXI@Z 000000018013b4a0 f i GuTriangleMeshRTree.obj
 0001:0013a4d0       ??_ERTreeTriangleMesh@Gu@physx@@UEAAPEAXI@Z 000000018013b4d0 f i GuTriangleMeshRTree.obj
 0001:0013a4d0       ??_GRTreeTriangleMesh@Gu@physx@@UEAAPEAXI@Z 000000018013b4d0 f i GuTriangleMeshRTree.obj
 0001:0013a590       ?createObject@RTreeTriangleMesh@Gu@physx@@SAPEAVTriangleMesh@23@AEAPEAEAEAVPxDeserializationContext@3@@Z 000000018013b590 f   GuTriangleMeshRTree.obj
 0001:0013a610       ?exportExtraData@RTreeTriangleMesh@Gu@physx@@UEAAXAEAVPxSerializationContext@3@@Z 000000018013b610 f   GuTriangleMeshRTree.obj
 0001:0013a650       ?getConcreteTypeName@RTreeTriangleMesh@Gu@physx@@UEBAPEBDXZ 000000018013b650 f i GuTriangleMeshRTree.obj
 0001:0013a660       ?recomputeBounds@?$RefitCallback@G@physx@@UEAAXIAEAT__m128@@0@Z 000000018013b660 f i GuTriangleMeshRTree.obj
 0001:0013a980       ?recomputeBounds@?$RefitCallback@I@physx@@UEAAXIAEAT__m128@@0@Z 000000018013b980 f i GuTriangleMeshRTree.obj
 0001:0013aca0       ?refitBVH@RTreeTriangleMesh@Gu@physx@@UEAA?AVPxBounds3@3@XZ 000000018013bca0 f   GuTriangleMeshRTree.obj
 0001:0013adc0       ??0BV32Tree@Gu@physx@@QEAA@W4PxEMPTY@2@@Z 000000018013bdc0 f   GuBV32.obj
 0001:0013ade0       ??0BV32Tree@Gu@physx@@QEAA@XZ 000000018013bde0 f   GuBV32.obj
 0001:0013ae10       ??1BV32Tree@Gu@physx@@QEAA@XZ 000000018013be10 f   GuBV32.obj
 0001:0013ae20       ?createSOAformatNode@BV32Tree@Gu@physx@@QEAAXAEAUBV32DataPacked@23@AEBUBV32Data@23@IAEAI2@Z 000000018013be20 f   GuBV32.obj
 0001:0013b250       ?exportExtraData@BV32Tree@Gu@physx@@QEAAXAEAVPxSerializationContext@3@@Z 000000018013c250 f   GuBV32.obj
 0001:0013b290       ?importExtraData@BV32Tree@Gu@physx@@QEAAXAEAVPxDeserializationContext@3@@Z 000000018013c290 f   GuBV32.obj
 0001:0013b2c0       ?load@BV32Tree@Gu@physx@@QEAA_NAEAVPxInputStream@3@_N@Z 000000018013c2c0 f   GuBV32.obj
 0001:0013b630       ?release@BV32Tree@Gu@physx@@QEAAXXZ 000000018013c630 f   GuBV32.obj
 0001:0013b700       ??0BV32Node@@QEAA@XZ       000000018013c700 f i GuBV32Build.obj
 0001:0013bb80       ?BuildBV32Ex@Gu@physx@@YA_NAEAVBV32Tree@12@AEAVSourceMeshBase@12@MI@Z 000000018013cb80 f   GuBV32Build.obj
 0001:0013cb80       ??0BVTetrahedronMesh@Gu@physx@@QEAA@AEAVTetrahedronMeshData@12@AEAVDeformableVolumeCollisionData@12@PEAVMeshFactory@12@@Z 000000018013db80 f   GuTetrahedronMesh.obj
 0001:0013cde0       ??0DeformableVolumeMesh@Gu@physx@@QEAA@PEAVMeshFactory@12@AEAVDeformableVolumeMeshData@12@@Z 000000018013dde0 f   GuTetrahedronMesh.obj
 0001:0013d190       ??0TetrahedronMesh@Gu@physx@@QEAA@PEAVMeshFactory@12@AEAVTetrahedronMeshData@12@@Z 000000018013e190 f   GuTetrahedronMesh.obj
 0001:0013d280       ??1DeformableVolumeAuxData@Gu@physx@@UEAA@XZ 000000018013e280 f   GuTetrahedronMesh.obj
 0001:0013d530       ??1TetrahedronMesh@Gu@physx@@UEAA@XZ 000000018013e530 f   GuTetrahedronMesh.obj
 0001:0013d5e0       ??_EBVTetrahedronMesh@Gu@physx@@UEAAPEAXI@Z 000000018013e5e0 f i GuTetrahedronMesh.obj
 0001:0013d5e0       ??_GBVTetrahedronMesh@Gu@physx@@UEAAPEAXI@Z 000000018013e5e0 f i GuTetrahedronMesh.obj
 0001:0013d780       ??_EDeformableVolumeAuxData@Gu@physx@@UEAAPEAXI@Z 000000018013e780 f i GuTetrahedronMesh.obj
 0001:0013d780       ??_GDeformableVolumeAuxData@Gu@physx@@UEAAPEAXI@Z 000000018013e780 f i GuTetrahedronMesh.obj
 0001:0013d7f0       ??_EDeformableVolumeMesh@Gu@physx@@UEAAPEAXI@Z 000000018013e7f0 f i GuTetrahedronMesh.obj
 0001:0013d7f0       ??_GDeformableVolumeMesh@Gu@physx@@UEAAPEAXI@Z 000000018013e7f0 f i GuTetrahedronMesh.obj
 0001:0013d8c0       ??_ETetrahedronMesh@Gu@physx@@UEAAPEAXI@Z 000000018013e8c0 f i GuTetrahedronMesh.obj
 0001:0013d8c0       ??_GTetrahedronMesh@Gu@physx@@UEAAPEAXI@Z 000000018013e8c0 f i GuTetrahedronMesh.obj
 0001:0013d930       ?exportExtraData@DeformableVolumeMesh@Gu@physx@@UEAAXAEAVPxSerializationContext@3@@Z 000000018013e930 f   GuTetrahedronMesh.obj
 0001:0013da20       ?getConcreteTypeName@DeformableVolumeAuxData@Gu@physx@@UEBAPEBDXZ 000000018013ea20 f i GuTetrahedronMesh.obj
 0001:0013da30       ?getConcreteTypeName@DeformableVolumeMesh@Gu@physx@@UEBAPEBDXZ 000000018013ea30 f i GuTetrahedronMesh.obj
 0001:0013da40       ?getConcreteTypeName@TetrahedronMesh@Gu@physx@@UEBAPEBDXZ 000000018013ea40 f i GuTetrahedronMesh.obj
 0001:0013da50       ?getLocalBounds@TetrahedronMesh@Gu@physx@@UEBA?AVPxBounds3@3@XZ 000000018013ea50 f i GuTetrahedronMesh.obj
 0001:0013dad0       ?getNbTetrahedrons@TetrahedronMesh@Gu@physx@@UEBAIXZ 000000018013ead0 f i GuTetrahedronMesh.obj
 0001:0013dae0       ?getBounds@BVH@Gu@physx@@UEBAPEBVPxBounds3@3@XZ 000000018013eae0 f i GuBVH.obj
 0001:0013dae0       ?getTetrahedraRemap@BVTetrahedronMesh@Gu@physx@@UEBAPEBIXZ 000000018013eae0 f i GuTetrahedronMesh.obj
 0001:0013daf0       ?getTetrahedronMeshFlags@TetrahedronMesh@Gu@physx@@UEBA?AV?$PxFlags@W4Enum@PxTetrahedronMeshFlag@physx@@E@3@XZ 000000018013eaf0 f i GuTetrahedronMesh.obj
 0001:0013db00       ?getTetrahedrons@TetrahedronMesh@Gu@physx@@UEBAPEBXXZ 000000018013eb00 f i GuTetrahedronMesh.obj
 0001:0013db10       ?isKindOf@PxDeformableVolumeAuxData@physx@@MEBA_NPEBD@Z 000000018013eb10 f i GuTetrahedronMesh.obj
 0001:0013dba0       ?isKindOf@PxDeformableVolumeMesh@physx@@MEBA_NPEBD@Z 000000018013eba0 f i GuTetrahedronMesh.obj
 0001:0013dc30       ?isKindOf@PxTetrahedronMesh@physx@@MEBA_NPEBD@Z 000000018013ec30 f i GuTetrahedronMesh.obj
 0001:0013dcc0       ?onRefCountZero@DeformableVolumeAuxData@Gu@physx@@UEAAXXZ 000000018013ecc0 f i GuTetrahedronMesh.obj
 0001:0013dcc0       ?release@SimulationTetrahedronMeshData@Gu@physx@@UEAAXXZ 000000018013ecc0 f i GuCookingTetrahedronMesh.obj
 0001:0013dce0       ?onRefCountZero@DeformableVolumeMesh@Gu@physx@@UEAAXXZ 000000018013ece0 f   GuTetrahedronMesh.obj
 0001:0013dd90       ?onRefCountZero@TetrahedronMesh@Gu@physx@@UEAAXXZ 000000018013ed90 f   GuTetrahedronMesh.obj
 0001:0013de40       ?PxComputeBarycentric@physx@@YAXAEBV?$PxVec3T@M@1@0000AEAV?$PxVec4T@M@1@@Z 000000018013ee40 f i GuTetrahedronMeshUtils.obj
 0001:0013e100       ?addAxisToSimMeshBarycentric@Gu@physx@@YA?AV?$PxVec4T@M@2@AEBVPxTetrahedronMesh@2@IAEBV32@AEBV?$PxVec3T@M@2@@Z 000000018013f100 f   GuTetrahedronMeshUtils.obj
 0001:0013e3d0       ?closestPtPointTetrahedron@Gu@physx@@YA?AV?$PxVec3T@M@2@AEBV32@0000@Z 000000018013f3d0 f i GuTetrahedronMeshUtils.obj
 0001:0013f4b0       ?convertDeformableVolumeCollisionToSimMeshTets@Gu@physx@@YAXAEBVPxTetrahedronMesh@2@AEBVDeformableVolumeAuxData@12@AEBVBVTetrahedronMesh@12@IAEBV?$PxVec4T@M@2@AEAIAEAV62@_N@Z 00000001801404b0 f   GuTetrahedronMeshUtils.obj
 0001:00141e50       ?pcmContactBoxBox@Gu@physx@@YA_NAEBVPxGeometry@2@0AEBUPxTransformPadded@2@1AEBUNarrowPhaseParams@12@AEAUCache@12@AEAVPxContactBuffer@2@PEAVPxRenderOutput@2@@Z 0000000180142e50 f   GuPCMContactBoxBox.obj
 0001:00142c80       ??$gjkPenetration@U?$RelativeConvex@VBoxV@Gu@physx@@@Gu@physx@@U?$LocalConvex@VConvexHullNoScaleV@Gu@physx@@@23@@Gu@physx@@YA?AW4GjkStatus@01@AEBU?$RelativeConvex@VBoxV@Gu@physx@@@01@AEBU?$LocalConvex@VConvexHullNoScaleV@Gu@physx@@@01@AEBT__m128@@2_NPEIAE4AEAEAEAUGjkOutput@01@@Z 0000000180143c80 f i GuPCMContactBoxConvex.obj
 0001:00142cf0       ??$gjkPenetration@U?$RelativeConvex@VBoxV@Gu@physx@@@Gu@physx@@U?$LocalConvex@VConvexHullNoScaleV@Gu@physx@@@23@@Gu@physx@@YA?AW4GjkStatus@01@AEBU?$RelativeConvex@VBoxV@Gu@physx@@@01@AEBU?$LocalConvex@VConvexHullNoScaleV@Gu@physx@@@01@AEBT__m128@@2_NPEIAE4PEIAT5@5AEAEAEAUGjkOutput@01@@Z 0000000180143cf0 f i GuPCMContactBoxConvex.obj
 0001:00144e00       ?pcmContactBoxConvex@Gu@physx@@YA_NAEBVPxGeometry@2@0AEBUPxTransformPadded@2@1AEBUNarrowPhaseParams@12@AEAUCache@12@AEAVPxContactBuffer@2@PEAVPxRenderOutput@2@@Z 0000000180145e00 f   GuPCMContactBoxConvex.obj
 0001:00145c10       ?support@?$LocalConvex@VConvexHullNoScaleV@Gu@physx@@@Gu@physx@@UEBA?AT__m128@@AEBT4@@Z 0000000180146c10 f i GuPCMContactBoxConvex.obj
 0001:00145c60       ?support@?$LocalConvex@VConvexHullNoScaleV@Gu@physx@@@Gu@physx@@UEBA?AT__m128@@AEBT4@AEAH@Z 0000000180146c60 f i GuPCMContactBoxConvex.obj
 0001:00145cc0       ?supportPoint@?$LocalConvex@VConvexHullNoScaleV@Gu@physx@@@Gu@physx@@UEBA?AT__m128@@H@Z 0000000180146cc0 f i GuPCMContactBoxConvex.obj
 0001:00145cf0       ?pcmContactCapsuleBox@Gu@physx@@YA_NAEBVPxGeometry@2@0AEBUPxTransformPadded@2@1AEBUNarrowPhaseParams@12@AEAUCache@12@AEAVPxContactBuffer@2@PEAVPxRenderOutput@2@@Z 0000000180146cf0 f   GuPCMContactCapsuleBox.obj
 0001:00146b90       ?pcmContactCapsuleCapsule@Gu@physx@@YA_NAEBVPxGeometry@2@0AEBUPxTransformPadded@2@1AEBUNarrowPhaseParams@12@AEAUCache@12@AEAVPxContactBuffer@2@PEAVPxRenderOutput@2@@Z 0000000180147b90 f   GuPCMContactCapsuleCapsule.obj
 0001:00147350       ??$gjkPenetration@U?$LocalConvex@VCapsuleV@Gu@physx@@@Gu@physx@@U?$LocalConvex@VConvexHullNoScaleV@Gu@physx@@@23@@Gu@physx@@YA?AW4GjkStatus@01@AEBU?$LocalConvex@VCapsuleV@Gu@physx@@@01@AEBU?$LocalConvex@VConvexHullNoScaleV@Gu@physx@@@01@AEBT__m128@@2_NPEIAE4AEAEAEAUGjkOutput@01@@Z 0000000180148350 f i GuPCMContactCapsuleConvex.obj
 0001:001473c0       ??$gjkPenetration@U?$LocalConvex@VCapsuleV@Gu@physx@@@Gu@physx@@U?$LocalConvex@VConvexHullNoScaleV@Gu@physx@@@23@@Gu@physx@@YA?AW4GjkStatus@01@AEBU?$LocalConvex@VCapsuleV@Gu@physx@@@01@AEBU?$LocalConvex@VConvexHullNoScaleV@Gu@physx@@@01@AEBT__m128@@2_NPEIAE4PEIAT5@5AEAEAEAUGjkOutput@01@@Z 00000001801483c0 f i GuPCMContactCapsuleConvex.obj
 0001:00149030       ?pcmContactCapsuleConvex@Gu@physx@@YA_NAEBVPxGeometry@2@0AEBUPxTransformPadded@2@1AEBUNarrowPhaseParams@12@AEAUCache@12@AEAVPxContactBuffer@2@PEAVPxRenderOutput@2@@Z 000000018014a030 f   GuPCMContactCapsuleConvex.obj
 0001:0014a240       ??_EPCMCapsuleVsHeightfieldContactGenerationCallback@@UEAAPEAXI@Z 000000018014b240 f i GuPCMContactCapsuleHeightField.obj
 0001:0014a240       ??_GPCMCapsuleVsHeightfieldContactGenerationCallback@@UEAAPEAXI@Z 000000018014b240 f i GuPCMContactCapsuleHeightField.obj
 0001:0014a270       ?pcmContactCapsuleHeightField@Gu@physx@@YA_NAEBVPxGeometry@2@0AEBUPxTransformPadded@2@1AEBUNarrowPhaseParams@12@AEAUCache@12@AEAVPxContactBuffer@2@PEAVPxRenderOutput@2@@Z 000000018014b270 f   GuPCMContactCapsuleHeightField.obj
 0001:0014b150       ?reportTouchedTris@?$PCMHeightfieldContactGenerationCallback@UPCMCapsuleVsHeightfieldContactGenerationCallback@@@Gu@physx@@UEAA_NIPEBI@Z 000000018014c150 f i GuPCMContactCapsuleHeightField.obj
 0001:0014b7a0       ?generateContacts@PCMCapsuleVsMeshContactGeneration@Gu@physx@@SAXAEBT__m128@@0000I000PEAVMeshPersistentContact@23@AEAI@Z 000000018014c7a0 f   GuPCMContactCapsuleMesh.obj
 0001:0014bbe0       ?generateEE@PCMCapsuleVsMeshContactGeneration@Gu@physx@@QEAAXAEBT__m128@@000I00PEAVMeshPersistentContact@23@AEAI@Z 000000018014cbe0 f   GuPCMContactCapsuleMesh.obj
 0001:0014be50       ?generateEEMTD@PCMCapsuleVsMeshContactGeneration@Gu@physx@@SAXAEBT__m128@@000I00PEAVMeshPersistentContact@23@AEAI@Z 000000018014ce50 f   GuPCMContactCapsuleMesh.obj
 0001:0014c080       ?pcmContactCapsuleMesh@Gu@physx@@YA_NAEBVPxGeometry@2@0AEBUPxTransformPadded@2@1AEBUNarrowPhaseParams@12@AEAUCache@12@AEAVPxContactBuffer@2@PEAVPxRenderOutput@2@@Z 000000018014d080 f   GuPCMContactCapsuleMesh.obj
 0001:0014d8f0       ?pcmDistanceSegmentTriangleSquaredExported@@YA?AT__m128@@AEBT1@0000AEAT1@11@Z 000000018014e8f0 f   GuPCMContactCapsuleMesh.obj
 0001:0014dd30       ?processTriangle@PCMCapsuleVsMeshContactGeneration@Gu@physx@@QEAA_NPEBV?$PxVec3T@M@3@IEPEBI@Z 000000018014ed30 f   GuPCMContactCapsuleMesh.obj
 0001:0014e900       ?processTriangle@PCMCapsuleVsMeshContactGeneration@Gu@physx@@SA_NAEBVTriangleV@23@IAEBVCapsuleV@23@AEBT__m128@@EPEAVMeshPersistentContact@23@AEAI@Z 000000018014f900 f   GuPCMContactCapsuleMesh.obj
 0001:0014ec10       ?addContactsToPatch@PCMConvexVsMeshContactGeneration@Gu@physx@@QEAAXAEBT__m128@@I@Z 000000018014fc10 f   GuPCMContactConvexCommon.obj
 0001:0014f530       ?doSupport@?$SupportLocalImpl@VTriangleV@Gu@physx@@@Gu@physx@@UEBA?AT__m128@@AEBT4@@Z 0000000180150530 f i GuPCMContactConvexCommon.obj
 0001:0014f5c0       ?doSupport@?$SupportLocalImpl@VTriangleV@Gu@physx@@@Gu@physx@@UEBAXAEBT__m128@@AEAT4@1@Z 00000001801505c0 f i GuPCMContactConvexCommon.obj
 0001:0014f630       ?generateLastContacts@PCMConvexVsMeshContactGeneration@Gu@physx@@QEAAXXZ 0000000180150630 f   GuPCMContactConvexCommon.obj
 0001:0014fae0       ?get@?$CacheMap@UCachedEdge@Gu@physx@@$0IA@@Gu@physx@@QEBAPEBUCachedEdge@23@AEBU423@@Z 0000000180150ae0 f i GuPCMContactConvexCommon.obj
 0001:0014fb60       ?populateVerts@?$SupportLocalImpl@VTriangleV@Gu@physx@@@Gu@physx@@UEBAXPEBEIPEBV?$PxVec3T@M@3@PEAT__m128@@@Z 0000000180150b60 f i GuPCMContactConvexCommon.obj
 0001:0014fca0       ?processTriangle@PCMConvexVsMeshContactGeneration@Gu@physx@@QEAA_NPEBV?$PxVec3T@M@3@IEPEBI@Z 0000000180150ca0 f   GuPCMContactConvexCommon.obj
 0001:001500c0       ?processTriangle@PCMConvexVsMeshContactGeneration@Gu@physx@@SA_NAEBUPolygonalData@23@PEBVSupportLocal@23@PEBV?$PxVec3T@M@3@IEAEBT__m128@@_NAEBVPxTransformV@aos@3@AEBVPxMatTransformV@93@PEAVMeshPersistentContact@23@AEAI@Z 00000001801510c0 f   GuPCMContactConvexCommon.obj
 0001:00150360       ??$gjkPenetration@U?$RelativeConvex@VConvexHullNoScaleV@Gu@physx@@@Gu@physx@@U?$LocalConvex@VConvexHullNoScaleV@Gu@physx@@@23@@Gu@physx@@YA?AW4GjkStatus@01@AEBU?$RelativeConvex@VConvexHullNoScaleV@Gu@physx@@@01@AEBU?$LocalConvex@VConvexHullNoScaleV@Gu@physx@@@01@AEBT__m128@@2_NPEIAE4AEAEAEAUGjkOutput@01@@Z 0000000180151360 f i GuPCMContactConvexConvex.obj
 0001:001503d0       ??$gjkPenetration@U?$RelativeConvex@VConvexHullNoScaleV@Gu@physx@@@Gu@physx@@U?$LocalConvex@VConvexHullNoScaleV@Gu@physx@@@23@@Gu@physx@@YA?AW4GjkStatus@01@AEBU?$RelativeConvex@VConvexHullNoScaleV@Gu@physx@@@01@AEBU?$LocalConvex@VConvexHullNoScaleV@Gu@physx@@@01@AEBT__m128@@2_NPEIAE4PEIAT5@5AEAEAEAUGjkOutput@01@@Z 00000001801513d0 f i GuPCMContactConvexConvex.obj
 0001:00151e80       ??$gjkPenetration@U?$RelativeConvex@VConvexHullNoScaleV@Gu@physx@@@Gu@physx@@U?$LocalConvex@VConvexHullV@Gu@physx@@@23@@Gu@physx@@YA?AW4GjkStatus@01@AEBU?$RelativeConvex@VConvexHullNoScaleV@Gu@physx@@@01@AEBU?$LocalConvex@VConvexHullV@Gu@physx@@@01@AEBT__m128@@2_NPEIAE4AEAEAEAUGjkOutput@01@@Z 0000000180152e80 f i GuPCMContactConvexConvex.obj
 0001:00151ef0       ??$gjkPenetration@U?$RelativeConvex@VConvexHullNoScaleV@Gu@physx@@@Gu@physx@@U?$LocalConvex@VConvexHullV@Gu@physx@@@23@@Gu@physx@@YA?AW4GjkStatus@01@AEBU?$RelativeConvex@VConvexHullNoScaleV@Gu@physx@@@01@AEBU?$LocalConvex@VConvexHullV@Gu@physx@@@01@AEBT__m128@@2_NPEIAE4PEIAT5@5AEAEAEAUGjkOutput@01@@Z 0000000180152ef0 f i GuPCMContactConvexConvex.obj
 0001:00153a40       ??$gjkPenetration@U?$RelativeConvex@VConvexHullV@Gu@physx@@@Gu@physx@@U?$LocalConvex@VConvexHullNoScaleV@Gu@physx@@@23@@Gu@physx@@YA?AW4GjkStatus@01@AEBU?$RelativeConvex@VConvexHullV@Gu@physx@@@01@AEBU?$LocalConvex@VConvexHullNoScaleV@Gu@physx@@@01@AEBT__m128@@2_NPEIAE4AEAEAEAUGjkOutput@01@@Z 0000000180154a40 f i GuPCMContactConvexConvex.obj
 0001:00153ab0       ??$gjkPenetration@U?$RelativeConvex@VConvexHullV@Gu@physx@@@Gu@physx@@U?$LocalConvex@VConvexHullNoScaleV@Gu@physx@@@23@@Gu@physx@@YA?AW4GjkStatus@01@AEBU?$RelativeConvex@VConvexHullV@Gu@physx@@@01@AEBU?$LocalConvex@VConvexHullNoScaleV@Gu@physx@@@01@AEBT__m128@@2_NPEIAE4PEIAT5@5AEAEAEAUGjkOutput@01@@Z 0000000180154ab0 f i GuPCMContactConvexConvex.obj
 0001:00156000       ?pcmContactConvexConvex@Gu@physx@@YA_NAEBVPxGeometry@2@0AEBUPxTransformPadded@2@1AEBUNarrowPhaseParams@12@AEAUCache@12@AEAVPxContactBuffer@2@PEAVPxRenderOutput@2@@Z 0000000180157000 f   GuPCMContactConvexConvex.obj
 0001:00157130       ?support@?$RelativeConvex@VConvexHullNoScaleV@Gu@physx@@@Gu@physx@@UEBA?AT__m128@@AEBT4@@Z 0000000180158130 f i GuPCMContactConvexConvex.obj
 0001:001571e0       ?support@?$RelativeConvex@VConvexHullNoScaleV@Gu@physx@@@Gu@physx@@UEBA?AT__m128@@AEBT4@AEAH@Z 00000001801581e0 f i GuPCMContactConvexConvex.obj
 0001:001572a0       ?supportPoint@?$RelativeConvex@VConvexHullNoScaleV@Gu@physx@@@Gu@physx@@UEBA?AT__m128@@H@Z 00000001801582a0 f i GuPCMContactConvexConvex.obj
 0001:00157330       ?PCMContactConvexHeightfield@Gu@physx@@YA_NAEBUPolygonalData@12@PEBVSupportLocal@12@AEBT__m128@@AEBVPxBounds3@2@AEBVPxHeightFieldGeometry@2@AEBV?$PxTransformT@M@2@5MAEAVPxContactBuffer@2@AEBVFastVertex2ShapeScaling@Cm@2@_NAEAVMultiplePersistentContactManifold@12@PEAVPxRenderOutput@2@@Z 0000000180158330 f   GuPCMContactConvexHeightField.obj
 0001:00158190       ?pcmContactBoxHeightField@Gu@physx@@YA_NAEBVPxGeometry@2@0AEBUPxTransformPadded@2@1AEBUNarrowPhaseParams@12@AEAUCache@12@AEAVPxContactBuffer@2@PEAVPxRenderOutput@2@@Z 0000000180159190 f   GuPCMContactConvexHeightField.obj
 0001:00158430       ?pcmContactConvexHeightField@Gu@physx@@YA_NAEBVPxGeometry@2@0AEBUPxTransformPadded@2@1AEBUNarrowPhaseParams@12@AEAUCache@12@AEAVPxContactBuffer@2@PEAVPxRenderOutput@2@@Z 0000000180159430 f   GuPCMContactConvexHeightField.obj
 0001:00159100       ?PCMContactConvexMesh@Gu@physx@@YA_NAEBUPolygonalData@12@PEBVSupportLocal@12@AEBT__m128@@AEBVPxBounds3@2@AEBVPxTriangleMeshGeometry@2@AEBV?$PxTransformT@M@2@5MAEAVPxContactBuffer@2@AEBVFastVertex2ShapeScaling@Cm@2@7_N8AEAVMultiplePersistentContactManifold@12@PEAVPxRenderOutput@2@@Z 000000018015a100 f   GuPCMContactConvexMesh.obj
 0001:00159c20       ?pcmContactBoxMesh@Gu@physx@@YA_NAEBVPxGeometry@2@0AEBUPxTransformPadded@2@1AEBUNarrowPhaseParams@12@AEAUCache@12@AEAVPxContactBuffer@2@PEAVPxRenderOutput@2@@Z 000000018015ac20 f   GuPCMContactConvexMesh.obj
 0001:00159f50       ?pcmContactConvexMesh@Gu@physx@@YA_NAEBVPxGeometry@2@0AEBUPxTransformPadded@2@1AEBUNarrowPhaseParams@12@AEAUCache@12@AEAVPxContactBuffer@2@PEAVPxRenderOutput@2@@Z 000000018015af50 f   GuPCMContactConvexMesh.obj
 0001:0015aaf0       ?addGJKEPAContacts@Gu@physx@@YA_NPEBUGjkConvex@12@0AEBVPxMatTransformV@aos@2@W4GjkStatus@12@PEAVPersistentContact@12@T__m128@@4AEAUGjkOutput@12@AEAVPersistentContactManifold@12@@Z 000000018015baf0 f   GuPCMContactGenBoxConvex.obj
 0001:0015afb0       ?computeMTD@Gu@physx@@YA_NAEBUPolygonalData@12@0PEBVSupportLocal@12@1AEAT__m128@@2@Z 000000018015bfb0 f   GuPCMContactGenBoxConvex.obj
 0001:0015b5e0       ?generateFullContactManifold@Gu@physx@@YA_NAEBUPolygonalData@12@0PEBVSupportLocal@12@1PEAVPersistentContact@12@AEAIAEBT__m128@@444MM_NPEAVPxRenderOutput@2@M@Z 000000018015c5e0 f   GuPCMContactGenBoxConvex.obj
 0001:0015d5a0       ?computeMTD@Gu@physx@@YA_NAEBVCapsuleV@12@AEBUPolygonalData@12@PEBVSupportLocal@12@AEAT__m128@@3@Z 000000018015e5a0 f   GuPCMContactGenSphereCapsule.obj
 0001:0015d690       ?generateCapsuleBoxFullContactManifold@Gu@physx@@YA_NAEBVCapsuleV@12@AEBUPolygonalData@12@PEBVSupportLocal@12@AEBVPxMatTransformV@aos@2@PEAVPersistentContact@12@AEAIAEBT__m128@@AEAT9@6M_NMPEAVPxRenderOutput@2@@Z 000000018015e690 f   GuPCMContactGenSphereCapsule.obj
 0001:0015d830       ?generateFullContactManifold@Gu@physx@@YA_NAEBVCapsuleV@12@AEBUPolygonalData@12@PEBVSupportLocal@12@AEBVPxMatTransformV@aos@2@PEAVPersistentContact@12@AEAIAEBT__m128@@AEAT9@6M_NM@Z 000000018015e830 f   GuPCMContactGenSphereCapsule.obj
 0001:0015da20       ?generateSphereFullContactManifold@Gu@physx@@YA_NAEBVCapsuleV@12@AEBUPolygonalData@12@PEBVSupportLocal@12@PEAVPersistentContact@12@AEAIAEBT__m128@@AEAT7@_N@Z 000000018015ea20 f   GuPCMContactGenSphereCapsule.obj
 0001:0015ef60       ?pcmContactPlaneBox@Gu@physx@@YA_NAEBVPxGeometry@2@0AEBUPxTransformPadded@2@1AEBUNarrowPhaseParams@12@AEAUCache@12@AEAVPxContactBuffer@2@PEAVPxRenderOutput@2@@Z 000000018015ff60 f   GuPCMContactPlaneBox.obj
 0001:0015fab0       ?pcmContactPlaneCapsule@Gu@physx@@YA_NAEBVPxGeometry@2@0AEBUPxTransformPadded@2@1AEBUNarrowPhaseParams@12@AEAUCache@12@AEAVPxContactBuffer@2@PEAVPxRenderOutput@2@@Z 0000000180160ab0 f   GuPCMContactPlaneCapsule.obj
 0001:00160220       ?pcmContactPlaneConvex@Gu@physx@@YA_NAEBVPxGeometry@2@0AEBUPxTransformPadded@2@1AEBUNarrowPhaseParams@12@AEAUCache@12@AEAVPxContactBuffer@2@PEAVPxRenderOutput@2@@Z 0000000180161220 f   GuPCMContactPlaneConvex.obj
 0001:00160e60       ?pcmContactSphereBox@Gu@physx@@YA_NAEBVPxGeometry@2@0AEBUPxTransformPadded@2@1AEBUNarrowPhaseParams@12@AEAUCache@12@AEAVPxContactBuffer@2@PEAVPxRenderOutput@2@@Z 0000000180161e60 f   GuPCMContactSphereBox.obj
 0001:001612c0       ?pcmContactSphereCapsule@Gu@physx@@YA_NAEBVPxGeometry@2@0AEBUPxTransformPadded@2@1AEBUNarrowPhaseParams@12@AEAUCache@12@AEAVPxContactBuffer@2@PEAVPxRenderOutput@2@@Z 00000001801622c0 f   GuPCMContactSphereCapsule.obj
 0001:00161730       ?pcmContactSphereConvex@Gu@physx@@YA_NAEBVPxGeometry@2@0AEBUPxTransformPadded@2@1AEBUNarrowPhaseParams@12@AEAUCache@12@AEAVPxContactBuffer@2@PEAVPxRenderOutput@2@@Z 0000000180162730 f   GuPCMContactSphereConvex.obj
 0001:00162410       ??$processTriangleCache@$0BA@VPCMSphereVsMeshContactGeneration@Gu@physx@@@PCMMeshContactGeneration@Gu@physx@@QEAA_NAEAU?$TriangleCache@$0BA@@12@@Z 0000000180163410 f i GuPCMContactSphereHeightField.obj
 0001:001624a0       ??1?$PxArray@USortedTriangle@Gu@physx@@V?$PxInlineAllocator@$0IAA@V?$PxReflectionAllocator@USortedTriangle@Gu@physx@@@physx@@@3@@physx@@QEAA@XZ 00000001801634a0 f i GuPCMContactSphereHeightField.obj
 0001:00162560       ?allocate@?$PxArray@USortedTriangle@Gu@physx@@V?$PxInlineAllocator@$0IAA@V?$PxReflectionAllocator@USortedTriangle@Gu@physx@@@physx@@@3@@physx@@IEAAPEAUSortedTriangle@Gu@2@IPEAI@Z 0000000180163560 f i GuPCMContactSphereHeightField.obj
 0001:00162620       ?pcmContactSphereHeightField@Gu@physx@@YA_NAEBVPxGeometry@2@0AEBUPxTransformPadded@2@1AEBUNarrowPhaseParams@12@AEAUCache@12@AEAVPxContactBuffer@2@PEAVPxRenderOutput@2@@Z 0000000180163620 f   GuPCMContactSphereHeightField.obj
 0001:001636a0       ??$PxSort@USortedTriangle@Gu@physx@@U?$PxLess@USortedTriangle@Gu@physx@@@3@V?$PxReflectionAllocator@USortedTriangle@Gu@physx@@@3@@physx@@YAXPEAUSortedTriangle@Gu@0@IAEBU?$PxLess@USortedTriangle@Gu@physx@@@0@AEBV?$PxReflectionAllocator@USortedTriangle@Gu@physx@@@0@I@Z 00000001801646a0 f i GuPCMContactSphereMesh.obj
 0001:00163c70       ?addToPatch@PCMSphereVsMeshContactGeneration@Gu@physx@@QEAAXAEBT__m128@@0T4@I@Z 0000000180164c70 f   GuPCMContactSphereMesh.obj
 0001:00164330       ?generateLastContacts@PCMSphereVsMeshContactGeneration@Gu@physx@@QEAAXXZ 0000000180165330 f   GuPCMContactSphereMesh.obj
 0001:00164950       ?growAndPushBack@?$PxArray@USortedTriangle@Gu@physx@@V?$PxInlineAllocator@$0IAA@V?$PxReflectionAllocator@USortedTriangle@Gu@physx@@@physx@@@3@@physx@@IEAAAEAUSortedTriangle@Gu@2@AEBU342@@Z 0000000180165950 f i GuPCMContactSphereMesh.obj
 0001:00164a70       ?pcmContactSphereMesh@Gu@physx@@YA_NAEBVPxGeometry@2@0AEBUPxTransformPadded@2@1AEBUNarrowPhaseParams@12@AEAUCache@12@AEAVPxContactBuffer@2@PEAVPxRenderOutput@2@@Z 0000000180165a70 f   GuPCMContactSphereMesh.obj
 0001:001665a0       ?processTriangle@PCMSphereVsMeshContactGeneration@Gu@physx@@QEAA_NPEBV?$PxVec3T@M@3@IEPEBI@Z 00000001801675a0 f   GuPCMContactSphereMesh.obj
 0001:00166990       ?recreate@?$PxArray@IV?$PxInlineAllocator@$0PAA@V?$PxReflectionAllocator@I@physx@@@physx@@@physx@@IEAAXI@Z 0000000180167990 f i GuPCMContactSphereMesh.obj
 0001:00166a60       ?pcmContactSpherePlane@Gu@physx@@YA_NAEBVPxGeometry@2@0AEBUPxTransformPadded@2@1AEBUNarrowPhaseParams@12@AEAUCache@12@AEAVPxContactBuffer@2@PEAVPxRenderOutput@2@@Z 0000000180167a60 f   GuPCMContactSpherePlane.obj
 0001:00166be0       ?pcmContactSphereSphere@Gu@physx@@YA_NAEBVPxGeometry@2@0AEBUPxTransformPadded@2@1AEBUNarrowPhaseParams@12@AEAUCache@12@AEAVPxContactBuffer@2@PEAVPxRenderOutput@2@@Z 0000000180167be0 f   GuPCMContactSphereSphere.obj
 0001:00167450       ?pcmContactGeometryCustomGeometry@Gu@physx@@YA_NAEBVPxGeometry@2@0AEBUPxTransformPadded@2@1AEBUNarrowPhaseParams@12@AEAUCache@12@AEAVPxContactBuffer@2@PEAVPxRenderOutput@2@@Z 0000000180168450 f   GuPCMContactCustomGeometry.obj
 0001:00167500       ?getPCMConvexData@Gu@physx@@YAXAEBVConvexHullV@12@_NAEAUPolygonalData@12@@Z 0000000180168500 f   GuPCMShapeConvex.obj
 0001:001676a0       ?getPCMConvexData@Gu@physx@@YA_NAEBVPxConvexMeshGeometry@2@AEAVFastVertex2ShapeScaling@Cm@2@AEAVPxBounds3@2@AEAUPolygonalData@12@@Z 00000001801686a0 f   GuPCMShapeConvex.obj
 0001:00167a70       ?getPolygonalData@PCMPolygonalBox@Gu@physx@@QEBAXPEIAUPolygonalData@23@@Z 0000000180168a70 f   GuPCMShapeConvex.obj
 0001:00167af0       ?generatePolyDataContactManifold@PCMConvexVsMeshContactGeneration@Gu@physx@@QEAA_NAEBVTriangleV@23@IIEPEAVMeshPersistentContact@23@AEAIAEBT__m128@@AEAT6@@Z 0000000180168af0 f   GuPCMTriangleContactGen.obj
 0001:00167c00       ?generateTriangleFullContactManifold@PCMConvexVsMeshContactGeneration@Gu@physx@@QEAA_NAEBVTriangleV@23@IPEBIEAEBUPolygonalData@23@PEBV?$SupportLocalImpl@VTriangleV@Gu@physx@@@23@PEBVSupportLocal@23@PEAVMeshPersistentContact@23@AEAIAEBT__m128@@AEAT9@@Z 0000000180168c00 f   GuPCMTriangleContactGen.obj
 0001:00168130       ?generateTriangleFullContactManifold@PCMConvexVsMeshContactGeneration@Gu@physx@@SA_NAEBVTriangleV@23@IEAEBUPolygonalData@23@PEBV?$SupportLocalImpl@VTriangleV@Gu@physx@@@23@PEBVSupportLocal@23@PEAVMeshPersistentContact@23@AEAIAEBT__m128@@AEAT9@PEAVPxRenderOutput@3@@Z 0000000180169130 f   GuPCMTriangleContactGen.obj
 0001:0016a1a0       ?addBatchManifoldContacts2@PersistentContactManifold@Gu@physx@@QEAAXPEBVPersistentContact@23@I@Z 000000018016b1a0 f   GuPersistentContactManifold.obj
 0001:0016a210       ?addBatchManifoldContacts@PersistentContactManifold@Gu@physx@@QEAAXPEBVPersistentContact@23@IM@Z 000000018016b210 f   GuPersistentContactManifold.obj
 0001:0016a290       ?addBatchManifoldContactsCluster@PersistentContactManifold@Gu@physx@@QEAAXPEBVPersistentContact@23@I@Z 000000018016b290 f   GuPersistentContactManifold.obj
 0001:0016a510       ?addManifoldContactPoints@MultiplePersistentContactManifold@Gu@physx@@QEAAXPEAVMeshPersistentContact@23@IPEAPEAUPCMContactPatch@23@IAEBT__m128@@2E@Z 000000018016b510 f   GuPersistentContactManifold.obj
 0001:0016a8f0       ?addManifoldContactsToContactBuffer@MultiplePersistentContactManifold@Gu@physx@@QEAA_NAEAVPxContactBuffer@3@AEBVPxTransformV@aos@3@1AEBT__m128@@@Z 000000018016b8f0 f   GuPersistentContactManifold.obj
 0001:0016ab90       ?addManifoldContactsToContactBuffer@MultiplePersistentContactManifold@Gu@physx@@QEAA_NAEAVPxContactBuffer@3@AEBVPxTransformV@aos@3@@Z 000000018016bb90 f   GuPersistentContactManifold.obj
 0001:0016ae10       ?addManifoldContactsToContactBuffer@PersistentContactManifold@Gu@physx@@QEAAXAEAVPxContactBuffer@3@AEBT__m128@@1AEBVPxTransformV@aos@3@11@Z 000000018016be10 f   GuPersistentContactManifold.obj
 0001:0016afc0       ?addManifoldContactsToContactBuffer@PersistentContactManifold@Gu@physx@@QEAAXAEAVPxContactBuffer@3@AEBT__m128@@AEBVPxMatTransformV@aos@3@@Z 000000018016bfc0 f   GuPersistentContactManifold.obj
 0001:0016b090       ?addManifoldContactsToContactBuffer@PersistentContactManifold@Gu@physx@@QEAAXAEAVPxContactBuffer@3@AEBT__m128@@AEBVPxTransformV@aos@3@1@Z 000000018016c090 f   GuPersistentContactManifold.obj
 0001:0016b1f0       ?addManifoldPoint2@PersistentContactManifold@Gu@physx@@QEAAIAEBT__m128@@000@Z 000000018016c1f0 f   GuPersistentContactManifold.obj
 0001:0016b320       ?addManifoldPoint@Gu@physx@@YAXPEAVPersistentContact@12@AEAVPersistentContactManifold@12@AEAUGjkOutput@12@AEBVPxMatTransformV@aos@2@T__m128@@@Z 000000018016c320 f   GuPersistentContactManifold.obj
 0001:0016b4e0       ?addManifoldPoint@PersistentContactManifold@Gu@physx@@QEAAIAEBT__m128@@000@Z 000000018016c4e0 f   GuPersistentContactManifold.obj
 0001:0016b920       ?drawLine@MultiplePersistentContactManifold@Gu@physx@@SAXAEAVPxRenderOutput@3@AEBT__m128@@1I@Z 000000018016c920 f   GuPersistentContactManifold.obj
 0001:0016b9d0       ?drawLine@MultiplePersistentContactManifold@Gu@physx@@SAXAEAVPxRenderOutput@3@V?$PxVec3T@M@3@1I@Z 000000018016c9d0 f   GuPersistentContactManifold.obj
 0001:0016ba40       ?drawManifold@MultiplePersistentContactManifold@Gu@physx@@QEBAXAEAVPxRenderOutput@3@AEBVPxTransformV@aos@3@1@Z 000000018016ca40 f   GuPersistentContactManifold.obj
 0001:0016c0d0       ?drawPoint@MultiplePersistentContactManifold@Gu@physx@@SAXAEAVPxRenderOutput@3@AEBT__m128@@MI@Z 000000018016d0d0 f   GuPersistentContactManifold.obj
 0001:0016c2e0       ?drawPolygon@MultiplePersistentContactManifold@Gu@physx@@SAXAEAVPxRenderOutput@3@AEBVPxTransformV@aos@3@PEAT__m128@@II@Z 000000018016d2e0 f   GuPersistentContactManifold.obj
 0001:0016c540       ?findRotationMatrixFromZAxis@Gu@physx@@YA?AUMat33V@aos@2@AEBT__m128@@@Z 000000018016d540 f   GuPersistentContactManifold.obj
 0001:0016c7d0       ?fromBuffer@MultiplePersistentContactManifold@Gu@physx@@QEAAXPEIAE@Z 000000018016d7d0 f   GuPersistentContactManifold.obj
 0001:0016c930       ?reduceBatchContacts2@PersistentContactManifold@Gu@physx@@QEAAXPEBVPersistentContact@23@I@Z 000000018016d930 f   GuPersistentContactManifold.obj
 0001:0016cb40       ?reduceBatchContacts@PersistentContactManifold@Gu@physx@@QEAAXPEBVPersistentContact@23@IM@Z 000000018016db40 f   GuPersistentContactManifold.obj
 0001:0016d010       ?reduceBatchContactsCapsule@SinglePersistentContactManifold@Gu@physx@@QEAA?AT__m128@@PEBVMeshPersistentContact@23@IAEAUPCMContactPatch@23@@Z 000000018016e010 f   GuPersistentContactManifold.obj
 0001:0016d2b0       ?reduceBatchContactsCluster@PersistentContactManifold@Gu@physx@@QEAAXPEBVPersistentContact@23@I@Z 000000018016e2b0 f   GuPersistentContactManifold.obj
 0001:0016d740       ?reduceBatchContactsConvex@SinglePersistentContactManifold@Gu@physx@@QEAA?AT__m128@@PEBVMeshPersistentContact@23@IAEAUPCMContactPatch@23@@Z 000000018016e740 f   GuPersistentContactManifold.obj
 0001:0016dd30       ?reduceContacts@SinglePersistentContactManifold@Gu@physx@@SAIPEAVMeshPersistentContact@23@I@Z 000000018016ed30 f   GuPersistentContactManifold.obj
 0001:0016e2c0       ?reduceContactsForPCM@PersistentContactManifold@Gu@physx@@QEAAIAEBT__m128@@00@Z 000000018016f2c0 f   GuPersistentContactManifold.obj
 0001:0016e850       ?refreshContactPoints@SinglePersistentContactManifold@Gu@physx@@QEAA?AT__m128@@AEBVPxMatTransformV@aos@3@AEBT4@1@Z 000000018016f850 f   GuPersistentContactManifold.obj
 0001:0016e9b0       ?replaceManifoldPoint@PersistentContactManifold@Gu@physx@@QEAA_NAEBT__m128@@000@Z 000000018016f9b0 f   GuPersistentContactManifold.obj
 0001:0016ea70       ?toBuffer@MultiplePersistentContactManifold@Gu@physx@@QEBAXPEIAE@Z 000000018016fa70 f   GuPersistentContactManifold.obj
 0001:0016eb50       ?contains@Gu@physx@@YA_NPEAT__m128@@IAEBT3@11@Z 000000018016fb50 f   GuPCMContactGenUtil.obj
 0001:0016ed10       ?getPolygonIndex@Gu@physx@@YAHAEBUPolygonalData@12@PEBVSupportLocal@12@AEBT__m128@@AEAH@Z 000000018016fd10 f   GuPCMContactGenUtil.obj
 0001:0016efb0       ?getWitnessPolygonIndex@Gu@physx@@YAIAEBUPolygonalData@12@PEBVSupportLocal@12@AEBT__m128@@2M@Z 000000018016ffb0 f   GuPCMContactGenUtil.obj
 0001:0016f500       ?sweepBoxBox@Gu@physx@@YA_NAEBVBox@12@0AEBV?$PxVec3T@M@2@MV?$PxFlags@W4Enum@PxHitFlag@physx@@G@2@AEAUPxGeomSweepHit@2@@Z 0000000180170500 f   GuSweepBoxBox.obj
 0001:00170b50       ?sweepBoxSphere@Gu@physx@@YA_NAEBVBox@12@MAEBV?$PxVec3T@M@2@1MAEAMAEAV42@V?$PxFlags@W4Enum@PxHitFlag@physx@@G@2@@Z 0000000180171b50 f   GuSweepBoxSphere.obj
 0001:00171630       ?sweepBoxTriangle@Gu@physx@@YA_NAEBVPxTriangle@2@AEBVPxBounds3@2@AEBV?$PxVec3T@M@2@2AEAV52@3AEAM_N@Z 0000000180172630 f   GuSweepBoxTriangle_FeatureBased.obj
 0001:00172b10       ?triBoxSweepTestBoxSpace@Gu@physx@@YAHAEBVPxTriangle@2@AEBV?$PxVec3T@M@2@11MAEAM_N@Z 0000000180173b10 f   GuSweepBoxTriangle_SAT.obj
 0001:00174400       ?sweepCapsuleBox@Gu@physx@@YA_NAEBVCapsule@12@AEBV?$PxTransformT@M@2@AEBV?$PxVec3T@M@2@2MAEAV52@AEAM3V?$PxFlags@W4Enum@PxHitFlag@physx@@G@2@@Z 0000000180175400 f   GuSweepCapsuleBox.obj
 0001:00174730       ?edgeEdgeDist@@YAXAEAV?$PxVec3T@M@physx@@0AEBV12@111@Z 0000000180175730 f   GuSweepCapsuleCapsule.obj
 0001:001749c0       ?sweepCapsuleCapsule@Gu@physx@@YA_NAEBVCapsule@12@0AEBV?$PxVec3T@M@2@MAEAMAEAV42@3IAEAG@Z 00000001801759c0 f   GuSweepCapsuleCapsule.obj
 0001:001757e0       ?sweepCapsuleTriangles_Precise@Gu@physx@@YA_NIPEIBVPxTriangle@2@AEBVCapsule@12@AEBV?$PxVec3T@M@2@MPEIBIAEAUPxGeomSweepHit@2@AEAV52@V?$PxFlags@W4Enum@PxHitFlag@physx@@G@2@_NPEBVBoxPadded@12@@Z 00000001801767e0 f   GuSweepCapsuleTriangle.obj
 0001:00177870       ?sweepSphereCapsule@Gu@physx@@YA_NAEBVSphere@12@AEBVCapsule@12@AEBV?$PxVec3T@M@2@MAEAMAEAV52@4V?$PxFlags@W4Enum@PxHitFlag@physx@@G@2@@Z 0000000180178870 f   GuSweepSphereCapsule.obj
 0001:00177f20       ?sweepSphereSphere@Gu@physx@@YA_NAEBV?$PxVec3T@M@2@M0M0AEAMAEAV32@@Z 0000000180178f20 f   GuSweepSphereSphere.obj
 0001:001781a0       ?sweepSphereTriangles@Gu@physx@@YA_NIPEIBVPxTriangle@2@AEBV?$PxVec3T@M@2@M1MPEIBIAEAUPxGeomSweepHit@2@AEAV42@_N555@Z 00000001801791a0 f   GuSweepSphereTriangle.obj
 0001:00178a40       ?sweepSphereVSQuad@Gu@physx@@YA_NPEIBV?$PxVec3T@M@2@AEBV32@1M1AEAM@Z 0000000180179a40 f   GuSweepSphereTriangle.obj
 0001:00179a10       ?sweepSphereVSTri@Gu@physx@@YA_NPEIBV?$PxVec3T@M@2@AEBV32@1M1AEAMAEA_N_N@Z 000000018017aa10 f   GuSweepSphereTriangle.obj
 0001:0017a660       ??$gjk@U?$LocalConvex@VTriangleV@Gu@physx@@@Gu@physx@@U?$LocalConvex@VBoxV@Gu@physx@@@23@@Gu@physx@@YA?AW4GjkStatus@01@AEBU?$LocalConvex@VTriangleV@Gu@physx@@@01@AEBU?$LocalConvex@VBoxV@Gu@physx@@@01@AEBT__m128@@2AEAT5@333@Z 000000018017b660 f i GuSweepTriangleUtils.obj
 0001:0017b2c0       ?computeBoxTriImpactData@Gu@physx@@YAXAEAV?$PxVec3T@M@2@0AEBV32@1AEBVPxTriangle@2@M@Z 000000018017c2c0 f   GuSweepTriangleUtils.obj
 0001:0017b540       ?computeEdgeEdgeNormal@Gu@physx@@YAXAEAV?$PxVec3T@M@2@AEBV32@1111M@Z 000000018017c540 f   GuSweepTriangleUtils.obj
 0001:0017b810       ?computeSphereTriImpactData@Gu@physx@@YAXAEAV?$PxVec3T@M@2@0AEBV32@1MAEBVPxTriangle@2@@Z 000000018017c810 f   GuSweepTriangleUtils.obj
 0001:0017bce0       ??0ShapeData@Gu@physx@@QEAA@AEBVPxGeometry@2@AEBV?$PxTransformT@M@2@M@Z 000000018017cce0 f   GuBounds.obj
 0001:0017c2d0       ?computeBounds@Gu@physx@@YAXAEAVPxBounds3@2@AEBVPxGeometry@2@AEBV?$PxTransformT@M@2@MM@Z 000000018017d2d0 f   GuBounds.obj
 0001:0017cff0       ?computeBoundsAroundVertices@Gu@physx@@YAXAEAVPxBounds3@2@IPEIBV?$PxVec3T@M@2@@Z 000000018017dff0 f   GuBounds.obj
 0001:0017d090       ?computeGlobalBox@Gu@physx@@YAXAEAVPxBounds3@2@IPEIBV32@PEIBI@Z 000000018017e090 f   GuBounds.obj
 0001:0017d100       ?computeLocalBoundsAndGeomEpsilon@Gu@physx@@YAXPEBV?$PxVec3T@M@2@IAEAVPxBounds3@2@AEAM@Z 000000018017e100 f   GuBounds.obj
 0001:0017e200       ?computeTightBounds@Gu@physx@@YAXAEAVPxBounds3@2@IPEIBV?$PxVec3T@M@2@AEBV?$PxTransformT@M@2@AEBVPxMeshScale@2@MM@Z 000000018017f200 f   GuBounds.obj
 0001:0017e5b0       ??0AABBTree@Gu@physx@@QEAA@XZ 000000018017f5b0 f   GuAABBTree.obj
 0001:0017e5e0       ??0BVHPartialRefitData@Gu@physx@@QEAA@XZ 000000018017f5e0 f   GuAABBTree.obj
 0001:0017e610       ??0NodeAllocator@Gu@physx@@QEAA@XZ 000000018017f610 f   GuAABBTree.obj
 0001:0017e630       ??1AABBTree@Gu@physx@@QEAA@XZ 000000018017f630 f   GuAABBTree.obj
 0001:0017e650       ??1BVHPartialRefitData@Gu@physx@@QEAA@XZ 000000018017f650 f   GuAABBTree.obj
 0001:0017e700       ??1NodeAllocator@Gu@physx@@QEAA@XZ 000000018017f700 f   GuAABBTree.obj
 0001:0017e750       ?addRuntimeChilds@AABBTree@Gu@physx@@AEAAXAEAIAEBVAABBTreeMergeData@23@@Z 000000018017f750 f   GuAABBTree.obj
 0001:0017e850       ?allocate@?$PxArray@PEAVAABBTreeBuildNode@Gu@physx@@V?$PxInlineAllocator@$0IAA@V?$PxReflectionAllocator@PEAVAABBTreeBuildNode@Gu@physx@@@physx@@@3@@physx@@IEAAPEAPEAVAABBTreeBuildNode@Gu@2@IPEAI@Z 000000018017f850 f i GuAABBTree.obj
 0001:0017e910       ?build@AABBTree@Gu@physx@@QEAA_NAEBVAABBTreeBuildParams@23@AEAVNodeAllocator@23@@Z 000000018017f910 f   GuAABBTree.obj
 0001:0017e9c0       ?buildAABBTree@Gu@physx@@YAPEAIAEBVAABBTreeBuildParams@12@AEAVNodeAllocator@12@AEAUBuildStats@12@@Z 000000018017f9c0 f   GuAABBTree.obj
 0001:0017ea30       ?buildAABBTree@Gu@physx@@YAXIAEBVAABBTreeBounds@12@AEAV?$PxArray@UBVHNode@Gu@physx@@V?$PxReflectionAllocator@UBVHNode@Gu@physx@@@3@@2@@Z 000000018017fa30 f   GuAABBTree.obj
 0001:0017ec10       ?buildEnd@AABBTree@Gu@physx@@AEAAXAEBVAABBTreeBuildParams@23@AEAVNodeAllocator@23@AEBUBuildStats@23@@Z 000000018017fc10 f   GuAABBTree.obj
 0001:0017ef90       ?constructFromTetrahedra@TinyBVH@Gu@physx@@SAXPEBIIPEBV?$PxVec3T@M@3@AEAU123@M@Z 000000018017ff90 f   GuAABBTree.obj
 0001:0017f290       ?constructFromTriangles@TinyBVH@Gu@physx@@SAXPEBIIPEBV?$PxVec3T@M@3@AEAU123@M@Z 0000000180180290 f   GuAABBTree.obj
 0001:0017f640       ?createUpdateMap@BVHPartialRefitData@Gu@physx@@QEAAXI@Z 0000000180180640 f   GuAABBTree.obj
 0001:0017f760       ?flattenTree@Gu@physx@@YAXAEBVNodeAllocator@12@PEAUBVHNode@12@PEBI@Z 0000000180180760 f   GuAABBTree.obj
 0001:0017f940       ?fullRefit@BVHCoreData@Gu@physx@@QEAAXPEBVPxBounds3@3@@Z 0000000180180940 f   GuAABBTree.obj
 0001:0017fb10       ?getBiNode@NodeAllocator@Gu@physx@@QEAAPEAVAABBTreeBuildNode@23@XZ 0000000180180b10 f   GuAABBTree.obj
 0001:0017fc40       ?getParentIndices@BVHPartialRefitData@Gu@physx@@IEAAPEAIXZ 0000000180180c40 f   GuAABBTree.obj
 0001:0017fcd0       ?growAndPushBack@?$PxArray@PEAVAABBTreeBuildNode@Gu@physx@@V?$PxReflectionAllocator@PEAVAABBTreeBuildNode@Gu@physx@@@3@@physx@@IEAAAEAPEAVAABBTreeBuildNode@Gu@2@AEBQEAV342@@Z 0000000180180cd0 f i GuAABBTree.obj
 0001:0017fe10       ?growAndPushBack@?$PxArray@USlab@NodeAllocator@Gu@physx@@V?$PxReflectionAllocator@USlab@NodeAllocator@Gu@physx@@@4@@physx@@IEAAAEAUSlab@NodeAllocator@Gu@2@AEBU3452@@Z 0000000180180e10 f i GuAABBTree.obj
 0001:0017ff50       ?init@AABBTreeBounds@Gu@physx@@QEAAXIPEBVPxBounds3@3@@Z 0000000180180f50 f   GuAABBTree.obj
 0001:00180010       ?init@NodeAllocator@Gu@physx@@QEAAXII@Z 0000000180181010 f   GuAABBTree.obj
 0001:00180350       ?initTree@AABBTree@Gu@physx@@QEAAXAEBVAABBTreeMergeData@23@@Z 0000000180181350 f   GuAABBTree.obj
 0001:001804a0       ?markNodeForRefit@BVHPartialRefitData@Gu@physx@@QEAAXI@Z 00000001801814a0 f   GuAABBTree.obj
 0001:001805c0       ?mergeRuntimeLeaf@AABBTree@Gu@physx@@AEAAXAEAUBVHNode@23@AEBVAABBTreeMergeData@23@I@Z 00000001801815c0 f   GuAABBTree.obj
 0001:00180840       ?mergeRuntimeNode@AABBTree@Gu@physx@@AEAAXAEAUBVHNode@23@AEBVAABBTreeMergeData@23@I@Z 0000000180181840 f   GuAABBTree.obj
 0001:00180be0       ?mergeTree@AABBTree@Gu@physx@@QEAAXAEBVAABBTreeMergeData@23@@Z 0000000180181be0 f   GuAABBTree.obj
 0001:00180eb0       ?progressiveBuild@AABBTree@Gu@physx@@QEAAIAEBVAABBTreeBuildParams@23@AEAVNodeAllocator@23@AEAUBuildStats@23@II@Z 0000000180181eb0 f   GuAABBTree.obj
 0001:00181160       ?recreate@?$PxArray@PEAVAABBTreeBuildNode@Gu@physx@@V?$PxInlineAllocator@$0IAA@V?$PxReflectionAllocator@PEAVAABBTreeBuildNode@Gu@physx@@@physx@@@3@@physx@@IEAAXI@Z 0000000180182160 f i GuAABBTree.obj
 0001:00181230       ?refitMarkedNodes@BVHPartialRefitData@Gu@physx@@QEAAXPEBVPxBounds3@3@@Z 0000000180182230 f   GuAABBTree.obj
 0001:001813a0       ?release@AABBTree@Gu@physx@@QEAAX_N@Z 00000001801823a0 f   GuAABBTree.obj
 0001:00181490       ?release@AABBTreeBounds@Gu@physx@@QEAAXXZ 0000000180182490 f   GuAABBTree.obj
 0001:001814e0       ?release@NodeAllocator@Gu@physx@@QEAAXXZ 00000001801824e0 f   GuAABBTree.obj
 0001:00181590       ?releasePartialRefitData@BVHPartialRefitData@Gu@physx@@QEAAX_N@Z 0000000180182590 f   GuAABBTree.obj
 0001:00181630       ?reshuffle@Gu@physx@@YAIIQEIAIPEIBV?$PxVec3T@M@2@MI@Z 0000000180182630 f   GuAABBTree.obj
 0001:00181770       ?resize@?$PxArray@USlab@NodeAllocator@Gu@physx@@V?$PxReflectionAllocator@USlab@NodeAllocator@Gu@physx@@@4@@physx@@QEAAXIAEBUSlab@NodeAllocator@Gu@2@@Z 0000000180182770 f i GuAABBTree.obj
 0001:001817f0       ?resize@AABBTreeBounds@Gu@physx@@QEAAXII@Z 00000001801827f0 f   GuAABBTree.obj
 0001:001818a0       ?resizeUninitialized@?$PxArray@PEAVAABBTreeBuildNode@Gu@physx@@V?$PxInlineAllocator@$0IAA@V?$PxReflectionAllocator@PEAVAABBTreeBuildNode@Gu@physx@@@physx@@@3@@physx@@QEAAXI@Z 00000001801828a0 f i GuAABBTree.obj
 0001:001818f0       ?shiftIndices@AABBTree@Gu@physx@@QEAAXI@Z 00000001801828f0 f   GuAABBTree.obj
 0001:00181910       ?shiftOrigin@AABBTree@Gu@physx@@QEAAXAEBV?$PxVec3T@M@3@@Z 0000000180182910 f   GuAABBTree.obj
 0001:00181b80       ?subdivide@AABBTreeBuildNode@Gu@physx@@QEAAXAEBVAABBTreeBuildParams@23@AEAUBuildStats@23@AEAVNodeAllocator@23@QEAI@Z 0000000180182b80 f   GuAABBTree.obj
 0001:00181d60       ?subdivideSAH@AABBTreeBuildNode@Gu@physx@@QEAAXAEBVAABBTreeBuildParams@23@AEAUSAH_Buffers@23@AEAUBuildStats@23@AEAVNodeAllocator@23@QEAI@Z 0000000180182d60 f   GuAABBTree.obj
 0001:00181e50       ?traverseRuntimeNode@AABBTree@Gu@physx@@AEAAXAEAUBVHNode@23@AEBVAABBTreeMergeData@23@I@Z 0000000180182e50 f   GuAABBTree.obj
 0001:00181f50       ?initMap@AABBTreeUpdateMap@Gu@physx@@QEAAXIAEBVAABBTree@23@@Z 0000000180182f50 f   GuAABBTreeUpdateMap.obj
 0001:001820e0       ?invalidate@AABBTreeUpdateMap@Gu@physx@@QEAAXIIAEAVAABBTree@23@@Z 00000001801830e0 f   GuAABBTreeUpdateMap.obj
 0001:00182390       ?visualizeTree@@YAXAEAVPxRenderOutput@physx@@IPEBVAABBTree@Gu@2@@Z 0000000180183390 f   GuSqInternal.obj
 0001:00182400       ?visualizeTree@@YAXAEAVPxRenderOutput@physx@@IPEBVBVH@Gu@2@@Z 0000000180183400 f   GuSqInternal.obj
 0001:00182470       ?visualizeTree@@YAXAEAVPxRenderOutput@physx@@IPEBVIncrementalAABBTree@Gu@2@PEAVDebugVizCallback@2@@Z 0000000180183470 f   GuSqInternal.obj
 0001:001824f0       ??$PxSort@PEAXU?$PxLess@PEAX@physx@@V?$PxReflectionAllocator@UAABBTreeIndices@Gu@physx@@@2@@physx@@YAXPEAPEAXIAEBU?$PxLess@PEAX@0@AEBV?$PxReflectionAllocator@UAABBTreeIndices@Gu@physx@@@0@I@Z 00000001801834f0 f i GuIncrementalAABBTree.obj
 0001:00182970       ??$PxSort@PEAXU?$PxLess@PEAX@physx@@V?$PxReflectionAllocator@UIncrementalAABBTreeNodePair@Gu@physx@@@2@@physx@@YAXPEAPEAXIAEBU?$PxLess@PEAX@0@AEBV?$PxReflectionAllocator@UIncrementalAABBTreeNodePair@Gu@physx@@@0@I@Z 0000000180183970 f i GuIncrementalAABBTree.obj
 0001:00182df0       ??0IncrementalAABBTree@Gu@physx@@QEAA@XZ 0000000180183df0 f   GuIncrementalAABBTree.obj
 0001:00182e70       ??1?$PxPoolBase@UAABBTreeIndices@Gu@physx@@V?$PxReflectionAllocator@UAABBTreeIndices@Gu@physx@@@3@@physx@@QEAA@XZ 0000000180183e70 f i GuIncrementalAABBTree.obj
 0001:00182fe0       ??1?$PxPoolBase@UIncrementalAABBTreeNodePair@Gu@physx@@V?$PxReflectionAllocator@UIncrementalAABBTreeNodePair@Gu@physx@@@3@@physx@@QEAA@XZ 0000000180183fe0 f i GuIncrementalAABBTree.obj
 0001:00183150       ??1IncrementalAABBTree@Gu@physx@@QEAA@XZ 0000000180184150 f   GuIncrementalAABBTree.obj
 0001:00183190       ?allocate@?$PxPoolBase@UAABBTreeIndices@Gu@physx@@V?$PxReflectionAllocator@UAABBTreeIndices@Gu@physx@@@3@@physx@@QEAAPEAUAABBTreeIndices@Gu@2@XZ 0000000180184190 f i GuIncrementalAABBTree.obj
 0001:00183290       ?allocate@?$PxPoolBase@UIncrementalAABBTreeNodePair@Gu@physx@@V?$PxReflectionAllocator@UIncrementalAABBTreeNodePair@Gu@physx@@@3@@physx@@QEAAPEAUIncrementalAABBTreeNodePair@Gu@2@XZ 0000000180184290 f i GuIncrementalAABBTree.obj
 0001:001833b0       ?build@IncrementalAABBTree@Gu@physx@@QEAA_NAEBVAABBTreeBuildParams@23@AEAV?$PxArray@PEAVIncrementalAABBTreeNode@Gu@physx@@V?$PxReflectionAllocator@PEAVIncrementalAABBTreeNode@Gu@physx@@@3@@3@@Z 00000001801843b0 f   GuIncrementalAABBTree.obj
 0001:001835b0       ?clone@IncrementalAABBTree@Gu@physx@@AEAAXAEAV?$PxArray@PEAVIncrementalAABBTreeNode@Gu@physx@@V?$PxReflectionAllocator@PEAVIncrementalAABBTreeNode@Gu@physx@@@3@@3@PEBIPEAPEAVIncrementalAABBTreeNode@23@@Z 00000001801845b0 f   GuIncrementalAABBTree.obj
 0001:00183b30       ?copy@IncrementalAABBTree@Gu@physx@@QEAAXAEBVBVH@23@AEAV?$PxArray@PEAVIncrementalAABBTreeNode@Gu@physx@@V?$PxReflectionAllocator@PEAVIncrementalAABBTreeNode@Gu@physx@@@3@@3@@Z 0000000180184b30 f   GuIncrementalAABBTree.obj
 0001:00183bd0       ?copyNode@IncrementalAABBTree@Gu@physx@@AEAAXAEAVIncrementalAABBTreeNode@23@AEBUBVHNode@23@PEBU523@PEAV423@PEBIAEAV?$PxArray@PEAVIncrementalAABBTreeNode@Gu@physx@@V?$PxReflectionAllocator@PEAVIncrementalAABBTreeNode@Gu@physx@@@3@@3@@Z 0000000180184bd0 f   GuIncrementalAABBTree.obj
 0001:00183d80       ?fixupTreeIndices@IncrementalAABBTree@Gu@physx@@QEAAXPEAVIncrementalAABBTreeNode@23@II@Z 0000000180184d80 f   GuIncrementalAABBTree.obj
 0001:00183db0       ?getTreeLeafDepth@IncrementalAABBTree@Gu@physx@@QEAAIPEAVIncrementalAABBTreeNode@23@@Z 0000000180184db0 f   GuIncrementalAABBTree.obj
 0001:00183dd0       ?growAndPushBack@?$PxArray@PEAVIncrementalAABBTreeNode@Gu@physx@@V?$PxReflectionAllocator@PEAVIncrementalAABBTreeNode@Gu@physx@@@3@@physx@@IEAAAEAPEAVIncrementalAABBTreeNode@Gu@2@AEBQEAV342@@Z 0000000180184dd0 f i GuIncrementalAABBTree.obj
 0001:00183f10       ?growAndPushBack@?$PxArray@PEAXV?$PxReflectionAllocator@UAABBTreeIndices@Gu@physx@@@physx@@@physx@@IEAAAEAPEAXAEBQEAX@Z 0000000180184f10 f i GuIncrementalAABBTree.obj
 0001:00184050       ?growAndPushBack@?$PxArray@PEAXV?$PxReflectionAllocator@UIncrementalAABBTreeNodePair@Gu@physx@@@physx@@@physx@@IEAAAEAPEAXAEBQEAX@Z 0000000180185050 f i GuIncrementalAABBTree.obj
 0001:00184190       ?hierarchyCheck@IncrementalAABBTree@Gu@physx@@QEAAXIPEBVPxBounds3@3@@Z 0000000180185190 f   GuIncrementalAABBTree.obj
 0001:001842e0       ?hierarchyCheck@IncrementalAABBTree@Gu@physx@@QEAAXPEBVPxBounds3@3@@Z 00000001801852e0 f   GuIncrementalAABBTree.obj
 0001:00184430       ?insert@IncrementalAABBTree@Gu@physx@@QEAAPEAVIncrementalAABBTreeNode@23@IPEBVPxBounds3@3@AEAV?$PxArray@PEAVIncrementalAABBTreeNode@Gu@physx@@V?$PxReflectionAllocator@PEAVIncrementalAABBTreeNode@Gu@physx@@@3@@3@@Z 0000000180185430 f   GuIncrementalAABBTree.obj
 0001:00184aa0       ?recreate@?$PxArray@PEAXV?$PxReflectionAllocator@UAABBTreeIndices@Gu@physx@@@physx@@@physx@@IEAAXI@Z 0000000180185aa0 f i GuIncrementalAABBTree.obj
 0001:00184bb0       ?recreate@?$PxArray@PEAXV?$PxReflectionAllocator@UIncrementalAABBTreeNodePair@Gu@physx@@@physx@@@physx@@IEAAXI@Z 0000000180185bb0 f i GuIncrementalAABBTree.obj
 0001:00184cc0       ?release@IncrementalAABBTree@Gu@physx@@QEAAXXZ 0000000180185cc0 f   GuIncrementalAABBTree.obj
 0001:00184cf0       ?releaseNode@IncrementalAABBTree@Gu@physx@@AEAAXPEAVIncrementalAABBTreeNode@23@@Z 0000000180185cf0 f   GuIncrementalAABBTree.obj
 0001:00184d80       ?remove@IncrementalAABBTree@Gu@physx@@QEAAPEAVIncrementalAABBTreeNode@23@PEAV423@IPEBVPxBounds3@3@@Z 0000000180185d80 f   GuIncrementalAABBTree.obj
 0001:001850e0       ?rotateTree@IncrementalAABBTree@Gu@physx@@AEAAXPEAVIncrementalAABBTreeNode@23@AEAV?$PxArray@PEAVIncrementalAABBTreeNode@Gu@physx@@V?$PxReflectionAllocator@PEAVIncrementalAABBTreeNode@Gu@physx@@@3@@3@IPEBVPxBounds3@3@_N@Z 00000001801860e0 f   GuIncrementalAABBTree.obj
 0001:00185a10       ?shiftOrigin@IncrementalAABBTree@Gu@physx@@QEAAXAEBV?$PxVec3T@M@3@@Z 0000000180186a10 f   GuIncrementalAABBTree.obj
 0001:00185a70       ?splitLeafNode@IncrementalAABBTree@Gu@physx@@AEAAPEAVIncrementalAABBTreeNode@23@PEAV423@IAEBT__m128@@1PEBVPxBounds3@3@@Z 0000000180186a70 f   GuIncrementalAABBTree.obj
 0001:00185d60       ?update@IncrementalAABBTree@Gu@physx@@QEAAPEAVIncrementalAABBTreeNode@23@PEAV423@IPEBVPxBounds3@3@AEAV?$PxArray@PEAVIncrementalAABBTreeNode@Gu@physx@@V?$PxReflectionAllocator@PEAVIncrementalAABBTreeNode@Gu@physx@@@3@@3@@Z 0000000180186d60 f   GuIncrementalAABBTree.obj
 0001:00185e20       ?updateFast@IncrementalAABBTree@Gu@physx@@QEAAPEAVIncrementalAABBTreeNode@23@PEAV423@IPEBVPxBounds3@3@AEAV?$PxArray@PEAVIncrementalAABBTreeNode@Gu@physx@@V?$PxReflectionAllocator@PEAVIncrementalAABBTreeNode@Gu@physx@@@3@@3@@Z 0000000180186e20 f   GuIncrementalAABBTree.obj
 0001:00186040       ??0SAH_Buffers@Gu@physx@@QEAA@I@Z 0000000180187040 f   GuSAH.obj
 0001:00186150       ??1SAH_Buffers@Gu@physx@@QEAA@XZ 0000000180187150 f   GuSAH.obj
 0001:00186210       ?split@SAH_Buffers@Gu@physx@@QEAA_NAEAIIPEIBIPEIBVPxBounds3@3@PEIBV?$PxVec3T@M@3@@Z 0000000180187210 f   GuSAH.obj
 0001:00186890       ??0?$OBBAABBTests@$00@Gu@physx@@QEAA@AEBV?$PxVec3T@M@2@AEBV?$PxMat33T@M@2@0@Z 0000000180187890 f i GuBVH.obj
 0001:00186a20       ??0BVH@Gu@physx@@QEAA@AEBUPxBVHInternalData@2@@Z 0000000180187a20 f   GuBVH.obj
 0001:00186ae0       ??0BVH@Gu@physx@@QEAA@PEAVMeshFactory@12@@Z 0000000180187ae0 f   GuBVH.obj
 0001:00186b50       ??0BVH@Gu@physx@@QEAA@PEAVMeshFactory@12@AEAVBVHData@12@@Z 0000000180187b50 f   GuBVH.obj
 0001:00186c00       ??1BVHData@Gu@physx@@QEAA@XZ 0000000180187c00 f i GuBVH.obj
 0001:0018a4a4       ??_EBVH@Gu@physx@@WBA@EAAPEAXI@Z 000000018018b4a4 f i GuBVH.obj
 0001:0018a4b0       ??_EBVH@Gu@physx@@UEAAPEAXI@Z 000000018018b4b0 f i GuBVH.obj
 0001:0018a4b0       ??_GBVH@Gu@physx@@UEAAPEAXI@Z 000000018018b4b0 f i GuBVH.obj
 0001:0018a540       ??_ERefCountable@Cm@physx@@UEAAPEAXI@Z 000000018018b540 f i GuBVH.obj
 0001:0018a540       ??_GRefCountable@Cm@physx@@UEAAPEAXI@Z 000000018018b540 f i GuBVH.obj
 0001:0018a780       ?allocate@?$PxArray@PEBUBVHNode@Gu@physx@@V?$PxInlineAllocator@$0IAA@V?$PxReflectionAllocator@PEBUBVHNode@Gu@physx@@@physx@@@3@@physx@@IEAAPEAPEBUBVHNode@Gu@2@IPEAI@Z 000000018018b780 f i GuBVH.obj
 0001:0018a840       ?build@BVHData@Gu@physx@@QEAA_NIPEBXIMIW4BVHBuildStrategy@23@@Z 000000018018b840 f   GuBVH.obj
 0001:0018ac40       ?cull@BVH@Gu@physx@@UEBA_NIPEBVPxPlane@3@AEAUOverlapCallback@PxBVH@3@V?$PxFlags@W4Enum@PxGeometryQueryFlag@physx@@I@3@@Z 000000018018bc40 f   GuBVH.obj
 0001:0018b560       ?getConcreteTypeName@PxBVH@physx@@UEBAPEBDXZ 000000018018c560 f i GuBVH.obj
 0001:0018b570       ?init@BVH@Gu@physx@@QEAA_NIPEAVAABBTreeBounds@23@PEBXIW4BVHBuildStrategy@23@IM@Z 000000018018c570 f   GuBVH.obj
 0001:0018b990       ?isKindOf@PxBVH@physx@@MEBA_NPEBD@Z 000000018018c990 f i GuBVH.obj
 0001:0018ba10       ?load@BVH@Gu@physx@@QEAA_NAEAVPxInputStream@3@@Z 000000018018ca10 f   GuBVH.obj
 0001:0018bbb0       ?onRefCountZero@BVH@Gu@physx@@UEAAXXZ 000000018018cbb0 f   GuBVH.obj
 0001:0018bc90       ?onRefCountZero@RefCountable@Cm@physx@@UEAAXXZ 000000018018cc90 f i GuBVH.obj
 0001:0018bcb0       ?overlap@BVH@Gu@physx@@QEBA_NAEBVShapeData@23@AEAUOverlapCallback@PxBVH@3@V?$PxFlags@W4Enum@PxGeometryQueryFlag@physx@@I@3@@Z 000000018018ccb0 f   GuBVH.obj
 0001:0018c390       ?overlap@BVH@Gu@physx@@UEBA_NAEBVPxGeometry@3@AEBV?$PxTransformT@M@3@AEAUOverlapCallback@PxBVH@3@V?$PxFlags@W4Enum@PxGeometryQueryFlag@physx@@I@3@@Z 000000018018d390 f   GuBVH.obj
 0001:0018c3f0       ?partialRefit@BVH@Gu@physx@@UEAAXXZ 000000018018d3f0 f   GuBVH.obj
 0001:0018c400       ?raycast@BVH@Gu@physx@@UEBA_NAEBV?$PxVec3T@M@3@0MAEAURaycastCallback@PxBVH@3@V?$PxFlags@W4Enum@PxGeometryQueryFlag@physx@@I@3@@Z 000000018018d400 f   GuBVH.obj
 0001:0018c4e0       ?recreate@?$PxArray@PEBUBVHNode@Gu@physx@@V?$PxInlineAllocator@$0IAA@V?$PxReflectionAllocator@PEBUBVHNode@Gu@physx@@@physx@@@3@@physx@@IEAAXI@Z 000000018018d4e0 f i GuBVH.obj
 0001:0018c5b0       ?refit@BVH@Gu@physx@@UEAAXXZ 000000018018d5b0 f   GuBVH.obj
 0001:0018c5c0       ?release@BVH@Gu@physx@@UEAAXXZ 000000018018d5c0 f   GuBVH.obj
 0001:0018c5f0       ?resizeUninitialized@?$PxArray@PEBUBVHNode@Gu@physx@@V?$PxInlineAllocator@$0IAA@V?$PxReflectionAllocator@PEBUBVHNode@Gu@physx@@@physx@@@3@@physx@@QEAAXI@Z 000000018018d5f0 f i GuBVH.obj
 0001:0018c640       ?save@BVHData@Gu@physx@@QEBA_NAEAVPxOutputStream@3@_N@Z 000000018018d640 f   GuBVH.obj
 0001:0018c7b0       ?sweep@BVH@Gu@physx@@QEBA_NAEBVShapeData@23@AEBV?$PxVec3T@M@3@MAEAURaycastCallback@PxBVH@3@V?$PxFlags@W4Enum@PxGeometryQueryFlag@physx@@I@3@@Z 000000018018d7b0 f   GuBVH.obj
 0001:0018c990       ?sweep@BVH@Gu@physx@@UEBA_NAEBVPxGeometry@3@AEBV?$PxTransformT@M@3@AEBV?$PxVec3T@M@3@MAEAURaycastCallback@PxBVH@3@V?$PxFlags@W4Enum@PxGeometryQueryFlag@physx@@I@3@@Z 000000018018d990 f   GuBVH.obj
 0001:0018cb90       ?traverse@BVH@Gu@physx@@UEBA_NAEAUTraversalCallback@PxBVH@3@@Z 000000018018db90 f   GuBVH.obj
 0001:0018cd30       ?updateBounds@BVH@Gu@physx@@UEAA_NIAEBVPxBounds3@3@@Z 000000018018dd30 f   GuBVH.obj
 0001:0018cde0       ?updateBoundsInternal@BVH@Gu@physx@@QEAA_NIAEBVPxBounds3@3@@Z 000000018018dde0 f   GuBVH.obj
 0001:0018ce90       PxFindOverlap              000000018018de90 f   GuBVH.obj
 0001:0018cf90       PxGetBVHInternalData       000000018018df90 f   GuBVH.obj
 0001:0018cfd0       ??0IncrementalAABBPrunerCore@Gu@physx@@QEAA@PEBVPruningPool@12@@Z 000000018018dfd0 f   GuIncrementalAABBPrunerCore.obj
 0001:0018d0f0       ??1IncrementalAABBPrunerCore@Gu@physx@@QEAA@XZ 000000018018e0f0 f   GuIncrementalAABBPrunerCore.obj
 0001:0018d260       ??R?$AABBTreeOverlap@$00U?$OBBAABBTests@$00@Gu@physx@@VIncrementalAABBTree@23@VIncrementalAABBTreeNode@23@UOverlapCallbackAdapter@23@@Gu@physx@@QEAA_NAEBVAABBTreeBounds@12@AEBVIncrementalAABBTree@12@AEBU?$OBBAABBTests@$00@12@AEAUOverlapCallbackAdapter@12@@Z 000000018018e260 f i GuIncrementalAABBPrunerCore.obj
 0001:0018d820       ??R?$AABBTreeOverlap@$00UAABBAABBTest@Gu@physx@@VIncrementalAABBTree@23@VIncrementalAABBTreeNode@23@UOverlapCallbackAdapter@23@@Gu@physx@@QEAA_NAEBVAABBTreeBounds@12@AEBVIncrementalAABBTree@12@AEBUAABBAABBTest@12@AEAUOverlapCallbackAdapter@12@@Z 000000018018e820 f i GuIncrementalAABBPrunerCore.obj
 0001:0018daa0       ??R?$AABBTreeOverlap@$00UCapsuleAABBTest@Gu@physx@@VIncrementalAABBTree@23@VIncrementalAABBTreeNode@23@UOverlapCallbackAdapter@23@@Gu@physx@@QEAA_NAEBVAABBTreeBounds@12@AEBVIncrementalAABBTree@12@AEBUCapsuleAABBTest@12@AEAUOverlapCallbackAdapter@12@@Z 000000018018eaa0 f i GuIncrementalAABBPrunerCore.obj
 0001:0018de00       ??R?$AABBTreeOverlap@$00USphereAABBTest@Gu@physx@@VIncrementalAABBTree@23@VIncrementalAABBTreeNode@23@UOverlapCallbackAdapter@23@@Gu@physx@@QEAA_NAEBVAABBTreeBounds@12@AEBVIncrementalAABBTree@12@AEBUSphereAABBTest@12@AEAUOverlapCallbackAdapter@12@@Z 000000018018ee00 f i GuIncrementalAABBPrunerCore.obj
 0001:0018e0f0       ??R?$AABBTreeRaycast@$00$00VIncrementalAABBTree@Gu@physx@@VIncrementalAABBTreeNode@23@URaycastCallbackAdapter@23@@Gu@physx@@QEAA_NAEBVAABBTreeBounds@12@AEBVIncrementalAABBTree@12@AEBV?$PxVec3T@M@2@2AEAM2AEAURaycastCallbackAdapter@12@@Z 000000018018f0f0 f i GuIncrementalAABBPrunerCore.obj
 0001:0018e7a0       ??R?$AABBTreeRaycast@$0A@$00VIncrementalAABBTree@Gu@physx@@VIncrementalAABBTreeNode@23@URaycastCallbackAdapter@23@@Gu@physx@@QEAA_NAEBVAABBTreeBounds@12@AEBVIncrementalAABBTree@12@AEBV?$PxVec3T@M@2@2AEAM2AEAURaycastCallbackAdapter@12@@Z 000000018018f7a0 f i GuIncrementalAABBPrunerCore.obj
 0001:0018edb0       ?addObject@IncrementalAABBPrunerCore@Gu@physx@@QEAA_NII@Z 000000018018fdb0 f   GuIncrementalAABBPrunerCore.obj
 0001:0018eea0       ?allocate@?$PxArray@PEBVIncrementalAABBTreeNode@Gu@physx@@V?$PxInlineAllocator@$0IAA@V?$PxReflectionAllocator@PEBVIncrementalAABBTreeNode@Gu@physx@@@physx@@@3@@physx@@IEAAPEAPEBVIncrementalAABBTreeNode@Gu@2@IPEAI@Z 000000018018fea0 f i GuIncrementalAABBPrunerCore.obj
 0001:0018ef60       ?clear@?$PxHashMapBase@IPEAVIncrementalAABBTreeNode@Gu@physx@@U?$PxHash@I@3@VPxAllocator@3@@physx@@QEAAXXZ 000000018018ff60 f i GuIncrementalAABBPrunerCore.obj
 0001:0018ef60       ?clear@?$PxHashMapBase@UPrunerPayload@Gu@physx@@UExtendedBucketPrunerData@23@UExtendedBucketPrunerHash@23@VPxAllocator@3@@physx@@QEAAXXZ 000000018018ff60 f i GuExtendedBucketPruner.obj
 0001:0018eff0       ?create@?$PxHashBase@V?$PxPair@$$CBIPEAVIncrementalAABBTreeNode@Gu@physx@@@physx@@IU?$PxHash@I@2@UGetKey@?$PxHashMapBase@IPEAVIncrementalAABBTreeNode@Gu@physx@@U?$PxHash@I@3@VPxAllocator@3@@2@VPxAllocator@2@$00@physx@@QEAAPEAV?$PxPair@$$CBIPEAVIncrementalAABBTreeNode@Gu@physx@@@2@AEBIAEA_N@Z 000000018018fff0 f i GuIncrementalAABBPrunerCore.obj
 0001:0018f140       ?erase@?$PxHashBase@V?$PxPair@$$CBIPEAVIncrementalAABBTreeNode@Gu@physx@@@physx@@IU?$PxHash@I@2@UGetKey@?$PxHashMapBase@IPEAVIncrementalAABBTreeNode@Gu@physx@@U?$PxHash@I@3@VPxAllocator@3@@2@VPxAllocator@2@$00@physx@@QEAA_NAEBIAEAV?$PxPair@$$CBIPEAVIncrementalAABBTreeNode@Gu@physx@@@2@@Z 0000000180190140 f i GuIncrementalAABBPrunerCore.obj
 0001:0018f2b0       ?getCurrentWorldBoxes@PruningPool@Gu@physx@@QEAAPEAVPxBounds3@3@XZ 00000001801902b0 f i GuIncrementalAABBPrunerCore.obj
 0001:0018f2b0       ?getCurrentWorldBoxes@PruningPool@Gu@physx@@QEBAPEBVPxBounds3@3@XZ 00000001801902b0 f i GuIncrementalAABBPrunerCore.obj
 0001:0018f2b0       ?getMesh@CollisionTetrahedronMeshData@Gu@physx@@UEAAPEAVPxTetrahedronMeshData@3@XZ 00000001801902b0 f i GuCookingTetrahedronMesh.obj
 0001:0018f2b0       ?getMesh@CollisionTetrahedronMeshData@Gu@physx@@UEBAPEBVPxTetrahedronMeshData@3@XZ 00000001801902b0 f i GuCookingTetrahedronMesh.obj
 0001:0018f2b0       ?getMesh@SimulationTetrahedronMeshData@Gu@physx@@UEAAPEAVPxTetrahedronMeshData@3@XZ 00000001801902b0 f i GuCookingTetrahedronMesh.obj
 0001:0018f2c0       ?getGlobalBounds@IncrementalAABBPrunerCore@Gu@physx@@QEBAXAEAVPxBounds3@3@@Z 00000001801902c0 f   GuIncrementalAABBPrunerCore.obj
 0001:0018f400       ?getIndex@PruningPool@Gu@physx@@QEBAII@Z 0000000180190400 f i GuIncrementalAABBPrunerCore.obj
 0001:0018f410       ?getPayloadData@PruningPool@Gu@physx@@QEBAAEBUPrunerPayload@23@IPEAUPrunerPayloadData@23@@Z 0000000180190410 f i GuIncrementalAABBPrunerCore.obj
 0001:0018f460       ?overlap@IncrementalAABBPrunerCore@Gu@physx@@QEBA_NAEBVShapeData@23@AEAUPrunerOverlapCallback@23@@Z 0000000180190460 f   GuIncrementalAABBPrunerCore.obj
 0001:0018fe80       ?raycast@IncrementalAABBPrunerCore@Gu@physx@@QEBA_NAEBV?$PxVec3T@M@3@0AEAMAEAUPrunerRaycastCallback@23@@Z 0000000180190e80 f   GuIncrementalAABBPrunerCore.obj
 0001:0018ff90       ?recreate@?$PxArray@PEAVIncrementalAABBTreeNode@Gu@physx@@V?$PxReflectionAllocator@PEAVIncrementalAABBTreeNode@Gu@physx@@@3@@physx@@IEAAXI@Z 0000000180190f90 f i GuIncrementalAABBPrunerCore.obj
 0001:001900a0       ?recreate@?$PxArray@PEBVIncrementalAABBTreeNode@Gu@physx@@V?$PxInlineAllocator@$0IAA@V?$PxReflectionAllocator@PEBVIncrementalAABBTreeNode@Gu@physx@@@physx@@@3@@physx@@IEAAXI@Z 00000001801910a0 f i GuIncrementalAABBPrunerCore.obj
 0001:00190170       ?release@IncrementalAABBPrunerCore@Gu@physx@@QEAAXXZ 0000000180191170 f   GuIncrementalAABBPrunerCore.obj
 0001:00190270       ?removeMarkedObjects@IncrementalAABBPrunerCore@Gu@physx@@QEAAII@Z 0000000180191270 f   GuIncrementalAABBPrunerCore.obj
 0001:001902d0       ?removeObject@IncrementalAABBPrunerCore@Gu@physx@@QEAA_NIIAEAI@Z 00000001801912d0 f   GuIncrementalAABBPrunerCore.obj
 0001:001904f0       ?reserveInternal@?$PxHashBase@V?$PxPair@$$CBIPEAVIncrementalAABBTreeNode@Gu@physx@@@physx@@IU?$PxHash@I@2@UGetKey@?$PxHashMapBase@IPEAVIncrementalAABBTreeNode@Gu@physx@@U?$PxHash@I@3@VPxAllocator@3@@2@VPxAllocator@2@$00@physx@@AEAAXI@Z 00000001801914f0 f i GuIncrementalAABBPrunerCore.obj
 0001:001906b0       ?resizeUninitialized@?$PxArray@PEBVIncrementalAABBTreeNode@Gu@physx@@V?$PxInlineAllocator@$0IAA@V?$PxReflectionAllocator@PEBVIncrementalAABBTreeNode@Gu@physx@@@physx@@@3@@physx@@QEAAXI@Z 00000001801916b0 f i GuIncrementalAABBPrunerCore.obj
 0001:00190700       ?setTransform@PruningPool@Gu@physx@@QEAA_NIAEBV?$PxTransformT@M@3@@Z 0000000180191700 f i GuIncrementalAABBPrunerCore.obj
 0001:00190760       ?shiftOrigin@IncrementalAABBPrunerCore@Gu@physx@@QEAAXAEBV?$PxVec3T@M@3@@Z 0000000180191760 f   GuIncrementalAABBPrunerCore.obj
 0001:001907a0       ?swapIndex@IncrementalAABBPrunerCore@Gu@physx@@QEAAXII@Z 00000001801917a0 f   GuIncrementalAABBPrunerCore.obj
 0001:00190880       ?sweep@IncrementalAABBPrunerCore@Gu@physx@@QEBA_NAEBVShapeData@23@AEBV?$PxVec3T@M@3@AEAMAEAUPrunerRaycastCallback@23@@Z 0000000180191880 f   GuIncrementalAABBPrunerCore.obj
 0001:00190a90       ?updateMapping@IncrementalAABBPrunerCore@Gu@physx@@AEAAXAEAV?$PxHashMap@IPEAVIncrementalAABBTreeNode@Gu@physx@@U?$PxHash@I@3@VPxAllocator@3@@3@IPEAVIncrementalAABBTreeNode@23@@Z 0000000180191a90 f   GuIncrementalAABBPrunerCore.obj
 0001:00190c00       ?updateObject@IncrementalAABBPrunerCore@Gu@physx@@QEAA_NI@Z 0000000180191c00 f   GuIncrementalAABBPrunerCore.obj
 0001:00190da0       ?visualize@IncrementalAABBPrunerCore@Gu@physx@@QEBAXAEAVPxRenderOutput@3@I@Z 0000000180191da0 f   GuIncrementalAABBPrunerCore.obj
 0001:00190e00       ??0IncrementalAABBPruner@Gu@physx@@QEAA@I_K@Z 0000000180191e00 f   GuIncrementalAABBPruner.obj
 0001:00190eb0       ??_EBasePruner@Gu@physx@@UEAAPEAXI@Z 0000000180191eb0 f i GuIncrementalAABBPruner.obj
 0001:00190eb0       ??_GBasePruner@Gu@physx@@UEAAPEAXI@Z 0000000180191eb0 f i GuIncrementalAABBPruner.obj
 0001:00190f10       ??_EIncrementalAABBPruner@Gu@physx@@UEAAPEAXI@Z 0000000180191f10 f i GuIncrementalAABBPruner.obj
 0001:00190f10       ??_GIncrementalAABBPruner@Gu@physx@@UEAAPEAXI@Z 0000000180191f10 f i GuIncrementalAABBPruner.obj
 0001:00191030       ?addObjects@IncrementalAABBPruner@Gu@physx@@UEAA_NPEAIPEBVPxBounds3@3@PEBUPrunerPayload@23@PEBV?$PxTransformT@M@3@I_N@Z 0000000180192030 f   GuIncrementalAABBPruner.obj
 0001:001911a0       ?commit@IncrementalAABBPruner@Gu@physx@@UEAAXXZ 00000001801921a0 f   GuIncrementalAABBPruner.obj
 0001:00191380       ?getGlobalBounds@IncrementalAABBPruner@Gu@physx@@UEBAXAEAVPxBounds3@3@@Z 0000000180192380 f   GuIncrementalAABBPruner.obj
 0001:00191400       ?getPayloadData@IncrementalAABBPruner@Gu@physx@@UEBAAEBUPrunerPayload@23@IPEAUPrunerPayloadData@23@@Z 0000000180192400 f i GuIncrementalAABBPruner.obj
 0001:00191450       ?overlap@IncrementalAABBPruner@Gu@physx@@UEBA_NAEBVShapeData@23@AEAUPrunerOverlapCallback@23@@Z 0000000180192450 f   GuIncrementalAABBPruner.obj
 0001:00191a60       ?preallocate@IncrementalAABBPruner@Gu@physx@@UEAAXI@Z 0000000180192a60 f i GuIncrementalAABBPruner.obj
 0001:00191a70       ?purge@IncrementalAABBPruner@Gu@physx@@UEAAXXZ 0000000180192a70 f   GuIncrementalAABBPruner.obj
 0001:00191ac0       ?raycast@IncrementalAABBPruner@Gu@physx@@UEBA_NAEBV?$PxVec3T@M@3@0AEAMAEAUPrunerRaycastCallback@23@@Z 0000000180192ac0 f   GuIncrementalAABBPruner.obj
 0001:00191b40       ?removeObjects@IncrementalAABBPruner@Gu@physx@@UEAAXPEBIIPEAUPrunerPayloadRemovalCallback@23@@Z 0000000180192b40 f   GuIncrementalAABBPruner.obj
 0001:00191d40       ?resize@?$PxArray@PEAVIncrementalAABBTreeNode@Gu@physx@@V?$PxReflectionAllocator@PEAVIncrementalAABBTreeNode@Gu@physx@@@3@@physx@@QEAAXIAEBQEAVIncrementalAABBTreeNode@Gu@2@@Z 0000000180192d40 f i GuIncrementalAABBPruner.obj
 0001:00191e00       ?resizeUninitialized@?$PxArray@PEAVIncrementalAABBTreeNode@Gu@physx@@V?$PxReflectionAllocator@PEAVIncrementalAABBTreeNode@Gu@physx@@@3@@physx@@QEAAXI@Z 0000000180192e00 f i GuIncrementalAABBPruner.obj
 0001:00191e40       ?setTransform@IncrementalAABBPruner@Gu@physx@@UEAA_NIAEBV?$PxTransformT@M@3@@Z 0000000180192e40 f i GuIncrementalAABBPruner.obj
 0001:00191ea0       ?shiftOrigin@IncrementalAABBPruner@Gu@physx@@UEAAXAEBV?$PxVec3T@M@3@@Z 0000000180192ea0 f   GuIncrementalAABBPruner.obj
 0001:00191ee0       ?sweep@IncrementalAABBPruner@Gu@physx@@UEBA_NAEBVShapeData@23@AEBV?$PxVec3T@M@3@AEAMAEAUPrunerRaycastCallback@23@@Z 0000000180192ee0 f   GuIncrementalAABBPruner.obj
 0001:00192010       ?updateMapping@IncrementalAABBPruner@Gu@physx@@AEAAXIPEAVIncrementalAABBTreeNode@23@@Z 0000000180193010 f   GuIncrementalAABBPruner.obj
 0001:00192100       ?updateObjects@IncrementalAABBPruner@Gu@physx@@UEAAXPEBIIM0PEBVPxBounds3@3@PEBUPxTransformPadded@3@@Z 0000000180193100 f   GuIncrementalAABBPruner.obj
 0001:001922b0       ?visualize@IncrementalAABBPruner@Gu@physx@@UEBAXAEAVPxRenderOutput@3@II@Z 00000001801932b0 f   GuIncrementalAABBPruner.obj
 0001:001924c0       ??0PruningPool@Gu@physx@@QEAA@_KW4TransformCacheMode@12@@Z 00000001801934c0 f   GuPruningPool.obj
 0001:001924f0       ??1PruningPool@Gu@physx@@QEAA@XZ 00000001801934f0 f   GuPruningPool.obj
 0001:001925c0       ?addObjects@PruningPool@Gu@physx@@QEAAIPEAIPEBVPxBounds3@3@PEBUPrunerPayload@23@PEBV?$PxTransformT@M@3@I@Z 00000001801935c0 f   GuPruningPool.obj
 0001:00192890       ?preallocate@PruningPool@Gu@physx@@QEAAXI@Z 0000000180193890 f   GuPruningPool.obj
 0001:001928a0       ?removeObject@PruningPool@Gu@physx@@QEAAIIPEAUPrunerPayloadRemovalCallback@23@@Z 00000001801938a0 f   GuPruningPool.obj
 0001:00192ac0       ?resize@PruningPool@Gu@physx@@QEAA_NI@Z 0000000180193ac0 f   GuPruningPool.obj
 0001:00192ea0       ?shiftOrigin@PruningPool@Gu@physx@@QEAAXAEBV?$PxVec3T@M@3@@Z 0000000180193ea0 f   GuPruningPool.obj
 0001:001932f0       ?updateAndInflateBounds@PruningPool@Gu@physx@@QEAAXPEBI0PEBVPxBounds3@3@PEBUPxTransformPadded@3@IM@Z 00000001801942f0 f   GuPruningPool.obj
 0001:00194da0       ??0BucketPruner@Gu@physx@@QEAA@_K@Z 0000000180195da0 f   GuBucketPruner.obj
 0001:00194df0       ??0BucketPrunerCore@Gu@physx@@QEAA@_N@Z 0000000180195df0 f   GuBucketPruner.obj
 0001:00195180       ??1BucketPrunerCore@Gu@physx@@QEAA@XZ 0000000180196180 f   GuBucketPruner.obj
 0001:001951a0       ??R?$BucketPrunerOverlapTraversal@UBucketPrunerAABBAABBTest@@$00@@QEBA_NAEBVBucketPrunerCore@Gu@physx@@AEBUBucketPrunerAABBAABBTest@@AEAUPrunerOverlapCallback@23@AEBVPxBounds3@3@@Z 00000001801961a0 f i GuBucketPruner.obj
 0001:00195770       ??R?$BucketPrunerOverlapTraversal@UOBBAABBTest_SIMD@@$0A@@@QEBA_NAEBVBucketPrunerCore@Gu@physx@@AEBUOBBAABBTest_SIMD@@AEAUPrunerOverlapCallback@23@AEBVPxBounds3@3@@Z 0000000180196770 f i GuBucketPruner.obj
 0001:00195fd0       ??R?$BucketPrunerOverlapTraversal@USphereAABBTest_SIMD@@$00@@QEBA_NAEBVBucketPrunerCore@Gu@physx@@AEBUSphereAABBTest_SIMD@@AEAUPrunerOverlapCallback@23@AEBVPxBounds3@3@@Z 0000000180196fd0 f i GuBucketPruner.obj
 0001:00196580       ??_FBucketPrunerCore@Gu@physx@@QEAAXXZ 0000000180197580 f i GuBucketPruner.obj
 0001:00196590       ??_EBucketPruner@Gu@physx@@UEAAPEAXI@Z 0000000180197590 f i GuBucketPruner.obj
 0001:00196590       ??_GBucketPruner@Gu@physx@@UEAAPEAXI@Z 0000000180197590 f i GuBucketPruner.obj
 0001:00196630       ?addObject@BucketPrunerCore@Gu@physx@@QEAA_NAEBUPrunerPayload@23@AEBVPxBounds3@3@AEBV?$PxTransformT@M@3@I@Z 0000000180197630 f   GuBucketPruner.obj
 0001:00196960       ?addObjects@BucketPruner@Gu@physx@@UEAA_NPEAIPEBVPxBounds3@3@PEBUPrunerPayload@23@PEBV?$PxTransformT@M@3@I_N@Z 0000000180197960 f   GuBucketPruner.obj
 0001:001969f0       ?addPair@BucketPrunerMap@Gu@physx@@QEAAPEAUBucketPrunerPair@23@AEBUPrunerPayload@23@II@Z 00000001801979f0 f   GuBucketPruner.obj
 0001:00196be0       ?allocateSortedMemory@BucketPrunerCore@Gu@physx@@AEAAXI@Z 0000000180197be0 f   GuBucketPruner.obj
 0001:00196da0       ?classifyBoxes@BucketPrunerCore@Gu@physx@@AEAAXXZ 0000000180197da0 f   GuBucketPruner.obj
 0001:00197630       ?classifyBoxes@BucketPrunerNode@Gu@physx@@QEAAXMMIPEIAUBucketBox@23@PEIBUPrunerPayload@23@PEIBV?$PxTransformT@M@3@0PEIAU523@PEIAV63@_NI@Z 0000000180198630 f   GuBucketPruner.obj
 0001:00197f40       ?build@CompanionPrunerBucket@@UEAAXXZ 0000000180198f40 f   GuSecondaryPruner.obj
 0001:00197f40       ?commit@BucketPruner@Gu@physx@@UEAAXXZ 0000000180198f40 f   GuBucketPruner.obj
 0001:00197f50       ?findPair@BucketPrunerMap@Gu@physx@@QEBAPEBUBucketPrunerPair@23@AEBUPrunerPayload@23@@Z 0000000180198f50 f   GuBucketPruner.obj
 0001:00198340       ?getGlobalBounds@BucketPruner@Gu@physx@@UEBAXAEAVPxBounds3@3@@Z 0000000180199340 f   GuBucketPruner.obj
 0001:001983b0       ?getGlobalBounds@BucketPrunerCore@Gu@physx@@QEBAXAEAVPxBounds3@3@@Z 00000001801993b0 f   GuBucketPruner.obj
 0001:00198420       ?getPayloadData@BucketPruner@Gu@physx@@UEBAAEBUPrunerPayload@23@IPEAUPrunerPayloadData@23@@Z 0000000180199420 f i GuBucketPruner.obj
 0001:00198480       ?overlap@BucketPruner@Gu@physx@@UEBA_NAEBVShapeData@23@AEAUPrunerOverlapCallback@23@@Z 0000000180199480 f   GuBucketPruner.obj
 0001:001984a0       ?overlap@BucketPrunerCore@Gu@physx@@QEBA_NAEBVShapeData@23@AEAUPrunerOverlapCallback@23@@Z 00000001801994a0 f   GuBucketPruner.obj
 0001:00198790       ?preallocate@BucketPruner@Gu@physx@@UEAAXI@Z 0000000180199790 f i GuBucketPruner.obj
 0001:00198960       ?purge@BucketPrunerMap@Gu@physx@@QEAAXXZ 0000000180199960 f   GuBucketPruner.obj
 0001:00198a00       ?raycast@BucketPruner@Gu@physx@@UEBA_NAEBV?$PxVec3T@M@3@0AEAMAEAUPrunerRaycastCallback@23@@Z 0000000180199a00 f   GuBucketPruner.obj
 0001:00198a50       ?raycast@BucketPrunerCore@Gu@physx@@QEBA_NAEBV?$PxVec3T@M@3@0AEAMAEAUPrunerRaycastCallback@23@@Z 0000000180199a50 f   GuBucketPruner.obj
 0001:00198a90       ?reallocPairs@BucketPrunerMap@Gu@physx@@QEAAXXZ 0000000180199a90 f   GuBucketPruner.obj
 0001:00198ce0       ?release@BucketPrunerCore@Gu@physx@@QEAAXXZ 0000000180199ce0 f   GuBucketPruner.obj
 0001:00198e40       ?removeMarkedObjects@BucketPrunerCore@Gu@physx@@QEAAII@Z 0000000180199e40 f   GuBucketPruner.obj
 0001:00199240       ?removeObject@BucketPrunerCore@Gu@physx@@QEAA_NAEBUPrunerPayload@23@AEAI@Z 000000018019a240 f   GuBucketPruner.obj
 0001:00199510       ?removeObjects@BucketPruner@Gu@physx@@UEAAXPEBIIPEAUPrunerPayloadRemovalCallback@23@@Z 000000018019a510 f   GuBucketPruner.obj
 0001:001995c0       ?removePair@BucketPrunerMap@Gu@physx@@QEAA_NAEBUPrunerPayload@23@AEAI1@Z 000000018019a5c0 f   GuBucketPruner.obj
 0001:00199740       ?removePairInternal@BucketPrunerMap@Gu@physx@@QEAAXAEBUPrunerPayload@23@II@Z 000000018019a740 f   GuBucketPruner.obj
 0001:001998e0       ?resizeCore@BucketPrunerCore@Gu@physx@@AEAAXXZ 000000018019a8e0 f   GuBucketPruner.obj
 0001:00199b50       ?setTransform@BucketPruner@Gu@physx@@UEAA_NIAEBV?$PxTransformT@M@3@@Z 000000018019ab50 f i GuBucketPruner.obj
 0001:00199bc0       ?shiftOrigin@BucketPruner@Gu@physx@@UEAAXAEBV?$PxVec3T@M@3@@Z 000000018019abc0 f   GuBucketPruner.obj
 0001:00199bc0       ?shiftOrigin@CompanionPrunerBucket@@UEAAXAEBV?$PxVec3T@M@physx@@@Z 000000018019abc0 f   GuSecondaryPruner.obj
 0001:00199bd0       ?shiftOrigin@BucketPrunerCore@Gu@physx@@QEAAXAEBV?$PxVec3T@M@3@@Z 000000018019abd0 f   GuBucketPruner.obj
 0001:0019ab10       ?sweep@BucketPruner@Gu@physx@@UEBA_NAEBVShapeData@23@AEBV?$PxVec3T@M@3@AEAMAEAUPrunerRaycastCallback@23@@Z 000000018019bb10 f   GuBucketPruner.obj
 0001:0019ab30       ?sweep@BucketPrunerCore@Gu@physx@@QEBA_NAEBVShapeData@23@AEBV?$PxVec3T@M@3@AEAMAEAUPrunerRaycastCallback@23@@Z 000000018019bb30 f   GuBucketPruner.obj
 0001:0019abf0       ?updateObject@BucketPrunerCore@Gu@physx@@QEAA_NAEBVPxBounds3@3@AEBUPrunerPayload@23@AEBV?$PxTransformT@M@3@@Z 000000018019bbf0 f   GuBucketPruner.obj
 0001:0019ac50       ?updateObjects@BucketPruner@Gu@physx@@UEAAXPEBIIM0PEBVPxBounds3@3@PEBUPxTransformPadded@3@@Z 000000018019bc50 f   GuBucketPruner.obj
 0001:0019ad60       ?visualize@BucketPruner@Gu@physx@@UEBAXAEAVPxRenderOutput@3@II@Z 000000018019bd60 f   GuBucketPruner.obj
 0001:0019ad60       ?visualize@CompanionPrunerBucket@@UEBAXAEAVPxRenderOutput@physx@@I@Z 000000018019bd60 f   GuSecondaryPruner.obj
 0001:0019ad70       ?visualize@BucketPrunerCore@Gu@physx@@QEBAXAEAVPxRenderOutput@3@I@Z 000000018019bd70 f   GuBucketPruner.obj
 0001:0019b290       ?addObject@MaverickNode@Gu@physx@@QEAA_NAEBUPrunerPayload@23@IAEBVPxBounds3@3@AEBV?$PxTransformT@M@3@I@Z 000000018019c290 f   GuMaverickNode.obj
 0001:0019b370       ?removeMarkedObjects@MaverickNode@Gu@physx@@QEAAII@Z 000000018019c370 f   GuMaverickNode.obj
 0001:0019b500       ?removeObject@MaverickNode@Gu@physx@@QEAA_NIAEAI@Z 000000018019c500 f   GuMaverickNode.obj
 0001:0019b690       ?shiftOrigin@MaverickNode@Gu@physx@@QEAAXAEBV?$PxVec3T@M@3@@Z 000000018019c690 f   GuMaverickNode.obj
 0001:0019b7a0       ?updateObject@MaverickNode@Gu@physx@@QEAA_NIAEBVPxBounds3@3@AEBV?$PxTransformT@M@3@@Z 000000018019c7a0 f   GuMaverickNode.obj
 0001:0019b880       ??0ExtendedBucketPruner@Gu@physx@@QEAA@_KW4CompanionPrunerType@12@PEBVPruningPool@12@@Z 000000018019c880 f   GuExtendedBucketPruner.obj
 0001:0019bac0       ??1ExtendedBucketPruner@Gu@physx@@QEAA@XZ 000000018019cac0 f   GuExtendedBucketPruner.obj
 0001:0019bc40       ??R?$AABBTreeOverlap@$00U?$OBBAABBTests@$00@Gu@physx@@VAABBTree@23@UBVHNode@23@U?$MainTreeOverlapPrunerCallback@U?$OBBAABBTests@$00@Gu@physx@@@@@Gu@physx@@QEAA_NAEBVAABBTreeBounds@12@AEBVAABBTree@12@AEBU?$OBBAABBTests@$00@12@AEAU?$MainTreeOverlapPrunerCallback@U?$OBBAABBTests@$00@Gu@physx@@@@@Z 000000018019cc40 f i GuExtendedBucketPruner.obj
 0001:0019c230       ??R?$AABBTreeOverlap@$00U?$OBBAABBTests@$00@Gu@physx@@VAABBTree@23@UBVHNode@23@UOverlapCallbackAdapter@23@@Gu@physx@@QEAA_NAEBVAABBTreeBounds@12@AEBVAABBTree@12@AEBU?$OBBAABBTests@$00@12@AEAUOverlapCallbackAdapter@12@@Z 000000018019d230 f i GuExtendedBucketPruner.obj
 0001:0019c800       ??R?$AABBTreeOverlap@$00UAABBAABBTest@Gu@physx@@VAABBTree@23@UBVHNode@23@U?$MainTreeOverlapPrunerCallback@UAABBAABBTest@Gu@physx@@@@@Gu@physx@@QEAA_NAEBVAABBTreeBounds@12@AEBVAABBTree@12@AEBUAABBAABBTest@12@AEAU?$MainTreeOverlapPrunerCallback@UAABBAABBTest@Gu@physx@@@@@Z 000000018019d800 f i GuExtendedBucketPruner.obj
 0001:0019cac0       ??R?$AABBTreeOverlap@$00UAABBAABBTest@Gu@physx@@VAABBTree@23@UBVHNode@23@UOverlapCallbackAdapter@23@@Gu@physx@@QEAA_NAEBVAABBTreeBounds@12@AEBVAABBTree@12@AEBUAABBAABBTest@12@AEAUOverlapCallbackAdapter@12@@Z 000000018019dac0 f i GuExtendedBucketPruner.obj
 0001:0019cd60       ??R?$AABBTreeOverlap@$00UCapsuleAABBTest@Gu@physx@@VAABBTree@23@UBVHNode@23@U?$MainTreeOverlapPrunerCallback@UCapsuleAABBTest@Gu@physx@@@@@Gu@physx@@QEAA_NAEBVAABBTreeBounds@12@AEBVAABBTree@12@AEBUCapsuleAABBTest@12@AEAU?$MainTreeOverlapPrunerCallback@UCapsuleAABBTest@Gu@physx@@@@@Z 000000018019dd60 f i GuExtendedBucketPruner.obj
 0001:0019d120       ??R?$AABBTreeOverlap@$00UCapsuleAABBTest@Gu@physx@@VAABBTree@23@UBVHNode@23@UOverlapCallbackAdapter@23@@Gu@physx@@QEAA_NAEBVAABBTreeBounds@12@AEBVAABBTree@12@AEBUCapsuleAABBTest@12@AEAUOverlapCallbackAdapter@12@@Z 000000018019e120 f i GuExtendedBucketPruner.obj
 0001:0019d4d0       ??R?$AABBTreeOverlap@$00USphereAABBTest@Gu@physx@@VAABBTree@23@UBVHNode@23@U?$MainTreeOverlapPrunerCallback@USphereAABBTest@Gu@physx@@@@@Gu@physx@@QEAA_NAEBVAABBTreeBounds@12@AEBVAABBTree@12@AEBUSphereAABBTest@12@AEAU?$MainTreeOverlapPrunerCallback@USphereAABBTest@Gu@physx@@@@@Z 000000018019e4d0 f i GuExtendedBucketPruner.obj
 0001:0019d800       ??R?$AABBTreeOverlap@$00USphereAABBTest@Gu@physx@@VAABBTree@23@UBVHNode@23@UOverlapCallbackAdapter@23@@Gu@physx@@QEAA_NAEBVAABBTreeBounds@12@AEBVAABBTree@12@AEBUSphereAABBTest@12@AEAUOverlapCallbackAdapter@12@@Z 000000018019e800 f i GuExtendedBucketPruner.obj
 0001:0019db10       ??R?$AABBTreeRaycast@$00$00VAABBTree@Gu@physx@@UBVHNode@23@U?$MainTreeRaycastPrunerCallback@$00@@@Gu@physx@@QEAA_NAEBVAABBTreeBounds@12@AEBVAABBTree@12@AEBV?$PxVec3T@M@2@2AEAM2AEAU?$MainTreeRaycastPrunerCallback@$00@@@Z 000000018019eb10 f i GuExtendedBucketPruner.obj
 0001:0019e250       ??R?$AABBTreeRaycast@$00$00VAABBTree@Gu@physx@@UBVHNode@23@URaycastCallbackAdapter@23@@Gu@physx@@QEAA_NAEBVAABBTreeBounds@12@AEBVAABBTree@12@AEBV?$PxVec3T@M@2@2AEAM2AEAURaycastCallbackAdapter@12@@Z 000000018019f250 f i GuExtendedBucketPruner.obj
 0001:0019e950       ??R?$AABBTreeRaycast@$0A@$00VAABBTree@Gu@physx@@UBVHNode@23@U?$MainTreeRaycastPrunerCallback@$0A@@@@Gu@physx@@QEAA_NAEBVAABBTreeBounds@12@AEBVAABBTree@12@AEBV?$PxVec3T@M@2@2AEAM2AEAU?$MainTreeRaycastPrunerCallback@$0A@@@@Z 000000018019f950 f i GuExtendedBucketPruner.obj
 0001:0019efd0       ??R?$AABBTreeRaycast@$0A@$00VAABBTree@Gu@physx@@UBVHNode@23@URaycastCallbackAdapter@23@@Gu@physx@@QEAA_NAEBVAABBTreeBounds@12@AEBVAABBTree@12@AEBV?$PxVec3T@M@2@2AEAM2AEAURaycastCallbackAdapter@12@@Z 000000018019ffd0 f i GuExtendedBucketPruner.obj
 0001:0019f620       ?addTree@ExtendedBucketPruner@Gu@physx@@QEAAXAEBVAABBTreeMergeData@23@I@Z 00000001801a0620 f   GuExtendedBucketPruner.obj
 0001:0019f7b0       ?buildMainAABBTree@ExtendedBucketPruner@Gu@physx@@AEAAXXZ 00000001801a07b0 f   GuExtendedBucketPruner.obj
 0001:0019f860       ?create@?$PxHashBase@V?$PxPair@$$CBUPrunerPayload@Gu@physx@@UExtendedBucketPrunerData@23@@physx@@UPrunerPayload@Gu@2@UExtendedBucketPrunerHash@42@UGetKey@?$PxHashMapBase@UPrunerPayload@Gu@physx@@UExtendedBucketPrunerData@23@UExtendedBucketPrunerHash@23@VPxAllocator@3@@2@VPxAllocator@2@$00@physx@@QEAAPEAV?$PxPair@$$CBUPrunerPayload@Gu@physx@@UExtendedBucketPrunerData@23@@2@AEBUPrunerPayload@Gu@2@AEA_N@Z 00000001801a0860 f i GuExtendedBucketPruner.obj
 0001:0019fa40       ?eraseInternal@?$PxHashBase@V?$PxPair@$$CBUPrunerPayload@Gu@physx@@UExtendedBucketPrunerData@23@@physx@@UPrunerPayload@Gu@2@UExtendedBucketPrunerHash@42@UGetKey@?$PxHashMapBase@UPrunerPayload@Gu@physx@@UExtendedBucketPrunerData@23@UExtendedBucketPrunerHash@23@VPxAllocator@3@@2@VPxAllocator@2@$00@physx@@AEAA_NPEAI@Z 00000001801a0a40 f i GuExtendedBucketPruner.obj
 0001:0019fb50       ?find@?$PxHashMapBase@UPrunerPayload@Gu@physx@@UExtendedBucketPrunerData@23@UExtendedBucketPrunerHash@23@VPxAllocator@3@@physx@@QEBAPEBV?$PxPair@$$CBUPrunerPayload@Gu@physx@@UExtendedBucketPrunerData@23@@2@AEBUPrunerPayload@Gu@2@@Z 00000001801a0b50 f i GuExtendedBucketPruner.obj
 0001:0019fc40       ?getGlobalBounds@ExtendedBucketPruner@Gu@physx@@QEBAXAEAVPxBounds3@3@@Z 00000001801a0c40 f   GuExtendedBucketPruner.obj
 0001:0019fd10       ?invalidateObject@ExtendedBucketPruner@Gu@physx@@AEAAXAEBUExtendedBucketPrunerData@23@IAEBUPrunerPayload@23@I@Z 00000001801a0d10 f   GuExtendedBucketPruner.obj
 0001:0019fe50       ?overlap@ExtendedBucketPruner@Gu@physx@@QEBA_NAEBVShapeData@23@AEAUPrunerOverlapCallback@23@@Z 00000001801a0e50 f   GuExtendedBucketPruner.obj
 0001:001a0530       ?raycast@ExtendedBucketPruner@Gu@physx@@QEBA_NAEBV?$PxVec3T@M@3@0AEAMAEAUPrunerRaycastCallback@23@@Z 00000001801a1530 f   GuExtendedBucketPruner.obj
 0001:001a0610       ?refitMarkedNodes@ExtendedBucketPruner@Gu@physx@@QEAAXPEBVPxBounds3@3@@Z 00000001801a1610 f   GuExtendedBucketPruner.obj
 0001:001a0bc0       ?release@ExtendedBucketPruner@Gu@physx@@QEAAXXZ 00000001801a1bc0 f   GuExtendedBucketPruner.obj
 0001:001a0c90       ?removeMarkedObjects@ExtendedBucketPruner@Gu@physx@@QEAAII@Z 00000001801a1c90 f   GuExtendedBucketPruner.obj
 0001:001a0fb0       ?removeObject@ExtendedBucketPruner@Gu@physx@@QEAA_NAEBUPrunerPayload@23@II0I@Z 00000001801a1fb0 f   GuExtendedBucketPruner.obj
 0001:001a11a0       ?reserveInternal@?$PxHashBase@V?$PxPair@$$CBUPrunerPayload@Gu@physx@@UExtendedBucketPrunerData@23@@physx@@UPrunerPayload@Gu@2@UExtendedBucketPrunerHash@42@UGetKey@?$PxHashMapBase@UPrunerPayload@Gu@physx@@UExtendedBucketPrunerData@23@UExtendedBucketPrunerHash@23@VPxAllocator@3@@2@VPxAllocator@2@$00@physx@@AEAAXI@Z 00000001801a21a0 f i GuExtendedBucketPruner.obj
 0001:001a13b0       ?resize@ExtendedBucketPruner@Gu@physx@@AEAAXI@Z 00000001801a23b0 f   GuExtendedBucketPruner.obj
 0001:001a1560       ?shiftOrigin@ExtendedBucketPruner@Gu@physx@@QEAAXAEBV?$PxVec3T@M@3@@Z 00000001801a2560 f   GuExtendedBucketPruner.obj
 0001:001a15e0       ?swapIndex@ExtendedBucketPruner@Gu@physx@@QEAAXIAEBUPrunerPayload@23@I_N@Z 00000001801a25e0 f   GuExtendedBucketPruner.obj
 0001:001a16b0       ?sweep@ExtendedBucketPruner@Gu@physx@@QEBA_NAEBVShapeData@23@AEBV?$PxVec3T@M@3@AEAMAEAUPrunerRaycastCallback@23@@Z 00000001801a26b0 f   GuExtendedBucketPruner.obj
 0001:001a1830       ?updateObject@ExtendedBucketPruner@Gu@physx@@QEAA_NAEBVPxBounds3@3@AEBV?$PxTransformT@M@3@AEBUPrunerPayload@23@II@Z 00000001801a2830 f   GuExtendedBucketPruner.obj
 0001:001a1900       ?visualize@ExtendedBucketPruner@Gu@physx@@QEBAXAEAVPxRenderOutput@3@I@Z 00000001801a2900 f   GuExtendedBucketPruner.obj
 0001:001a3730       ??_ECompanionPruner@Gu@physx@@UEAAPEAXI@Z 00000001801a4730 f i GuSecondaryPruner.obj
 0001:001a3730       ??_GCompanionPruner@Gu@physx@@UEAAPEAXI@Z 00000001801a4730 f i GuSecondaryPruner.obj
 0001:001a3790       ??_ECompanionPrunerAABBTree@@UEAAPEAXI@Z 00000001801a4790 f i GuSecondaryPruner.obj
 0001:001a3790       ??_GCompanionPrunerAABBTree@@UEAAPEAXI@Z 00000001801a4790 f i GuSecondaryPruner.obj
 0001:001a3850       ??_ECompanionPrunerBucket@@UEAAPEAXI@Z 00000001801a4850 f i GuSecondaryPruner.obj
 0001:001a3850       ??_GCompanionPrunerBucket@@UEAAPEAXI@Z 00000001801a4850 f i GuSecondaryPruner.obj
 0001:001a38d0       ??_ECompanionPrunerIncremental@@UEAAPEAXI@Z 00000001801a48d0 f i GuSecondaryPruner.obj
 0001:001a38d0       ??_GCompanionPrunerIncremental@@UEAAPEAXI@Z 00000001801a48d0 f i GuSecondaryPruner.obj
 0001:001a3950       ?addObject@CompanionPrunerAABBTree@@UEAA_NAEBUPrunerPayload@Gu@physx@@IAEBVPxBounds3@4@AEBV?$PxTransformT@M@4@II@Z 00000001801a4950 f   GuSecondaryPruner.obj
 0001:001a3bb0       ?addObject@CompanionPrunerBucket@@UEAA_NAEBUPrunerPayload@Gu@physx@@IAEBVPxBounds3@4@AEBV?$PxTransformT@M@4@II@Z 00000001801a4bb0 f i GuSecondaryPruner.obj
 0001:001a3bd0       ?addObject@CompanionPrunerIncremental@@UEAA_NAEBUPrunerPayload@Gu@physx@@IAEBVPxBounds3@4@AEBV?$PxTransformT@M@4@II@Z 00000001801a4bd0 f i GuSecondaryPruner.obj
 0001:001a3bf0       ?addObjectInternal@CompanionPrunerAABBTree@@QEAA_NII@Z 00000001801a4bf0 f   GuSecondaryPruner.obj
 0001:001a3da0       ?build@CompanionPrunerAABBTree@@UEAAXXZ 00000001801a4da0 f   GuSecondaryPruner.obj
 0001:001a4290       ?createCompanionPruner@Gu@physx@@YAPEAVCompanionPruner@12@_KW4CompanionPrunerType@12@PEBVPruningPool@12@@Z 00000001801a5290 f   GuSecondaryPruner.obj
 0001:001a4490       ?getGlobalBounds@CompanionPrunerAABBTree@@UEBAXAEAVPxBounds3@physx@@@Z 00000001801a5490 f   GuSecondaryPruner.obj
 0001:001a4580       ?getGlobalBounds@CompanionPrunerBucket@@UEBAXAEAVPxBounds3@physx@@@Z 00000001801a5580 f i GuSecondaryPruner.obj
 0001:001a4590       ?getGlobalBounds@CompanionPrunerIncremental@@UEBAXAEAVPxBounds3@physx@@@Z 00000001801a5590 f i GuSecondaryPruner.obj
 0001:001a45a0       ?getNbObjects@CompanionPrunerAABBTree@@UEBAIXZ 00000001801a55a0 f   GuSecondaryPruner.obj
 0001:001a45b0       ?getNbObjects@CompanionPrunerBucket@@UEBAIXZ 00000001801a55b0 f i GuSecondaryPruner.obj
 0001:001a45c0       ?getNbObjects@CompanionPrunerIncremental@@UEBAIXZ 00000001801a55c0 f i GuSecondaryPruner.obj
 0001:001a45d0       ?growAndPushBack@?$PxArray@ULocalData@CompanionPrunerAABBTree@@V?$PxReflectionAllocator@ULocalData@CompanionPrunerAABBTree@@@physx@@@physx@@IEAAAEAULocalData@CompanionPrunerAABBTree@@AEBU34@@Z 00000001801a55d0 f i GuSecondaryPruner.obj
 0001:001a4710       ?overlap@CompanionPrunerAABBTree@@UEBA_NAEBVShapeData@Gu@physx@@AEAUPrunerOverlapCallback@34@@Z 00000001801a5710 f   GuSecondaryPruner.obj
 0001:001a5600       ?overlap@CompanionPrunerBucket@@UEBA_NAEBVShapeData@Gu@physx@@AEAUPrunerOverlapCallback@34@@Z 00000001801a6600 f i GuSecondaryPruner.obj
 0001:001a5620       ?overlap@CompanionPrunerIncremental@@UEBA_NAEBVShapeData@Gu@physx@@AEAUPrunerOverlapCallback@34@@Z 00000001801a6620 f i GuSecondaryPruner.obj
 0001:001a5640       ?raycast@CompanionPrunerAABBTree@@UEBA_NAEBV?$PxVec3T@M@physx@@0AEAMAEAUPrunerRaycastCallback@Gu@3@@Z 00000001801a6640 f   GuSecondaryPruner.obj
 0001:001a59f0       ?raycast@CompanionPrunerBucket@@UEBA_NAEBV?$PxVec3T@M@physx@@0AEAMAEAUPrunerRaycastCallback@Gu@3@@Z 00000001801a69f0 f i GuSecondaryPruner.obj
 0001:001a5a10       ?raycast@CompanionPrunerIncremental@@UEBA_NAEBV?$PxVec3T@M@physx@@0AEAMAEAUPrunerRaycastCallback@Gu@3@@Z 00000001801a6a10 f i GuSecondaryPruner.obj
 0001:001a5a30       ?release@CompanionPrunerAABBTree@@UEAAXXZ 00000001801a6a30 f   GuSecondaryPruner.obj
 0001:001a5a40       ?release@CompanionPrunerBucket@@UEAAXXZ 00000001801a6a40 f i GuSecondaryPruner.obj
 0001:001a5a50       ?release@CompanionPrunerIncremental@@UEAAXXZ 00000001801a6a50 f i GuSecondaryPruner.obj
 0001:001a5a60       ?releaseInternal@CompanionPrunerAABBTree@@QEAAXXZ 00000001801a6a60 f   GuSecondaryPruner.obj
 0001:001a5ae0       ?removeMarkedObjects@CompanionPrunerAABBTree@@UEAAII@Z 00000001801a6ae0 f   GuSecondaryPruner.obj
 0001:001a5b00       ?removeMarkedObjects@CompanionPrunerBucket@@UEAAII@Z 00000001801a6b00 f i GuSecondaryPruner.obj
 0001:001a5b10       ?removeMarkedObjects@CompanionPrunerIncremental@@UEAAII@Z 00000001801a6b10 f i GuSecondaryPruner.obj
 0001:001a5b20       ?removeObject@CompanionPrunerAABBTree@@UEAA_NAEBUPrunerPayload@Gu@physx@@III@Z 00000001801a6b20 f   GuSecondaryPruner.obj
 0001:001a5bc0       ?removeObject@CompanionPrunerBucket@@UEAA_NAEBUPrunerPayload@Gu@physx@@III@Z 00000001801a6bc0 f i GuSecondaryPruner.obj
 0001:001a5be0       ?removeObject@CompanionPrunerIncremental@@UEAA_NAEBUPrunerPayload@Gu@physx@@III@Z 00000001801a6be0 f i GuSecondaryPruner.obj
 0001:001a5c00       ?shiftOrigin@CompanionPrunerAABBTree@@UEAAXAEBV?$PxVec3T@M@physx@@@Z 00000001801a6c00 f   GuSecondaryPruner.obj
 0001:001a5d00       ?shiftOrigin@CompanionPrunerIncremental@@UEAAXAEBV?$PxVec3T@M@physx@@@Z 00000001801a6d00 f i GuSecondaryPruner.obj
 0001:001a5d10       ?swapIndex@CompanionPrunerIncremental@@UEAAXII@Z 00000001801a6d10 f i GuSecondaryPruner.obj
 0001:001a5d20       ?sweep@CompanionPrunerAABBTree@@UEBA_NAEBVShapeData@Gu@physx@@AEBV?$PxVec3T@M@4@AEAMAEAUPrunerRaycastCallback@34@@Z 00000001801a6d20 f   GuSecondaryPruner.obj
 0001:001a6200       ?sweep@CompanionPrunerBucket@@UEBA_NAEBVShapeData@Gu@physx@@AEBV?$PxVec3T@M@4@AEAMAEAUPrunerRaycastCallback@34@@Z 00000001801a7200 f i GuSecondaryPruner.obj
 0001:001a6220       ?sweep@CompanionPrunerIncremental@@UEBA_NAEBVShapeData@Gu@physx@@AEBV?$PxVec3T@M@4@AEAMAEAUPrunerRaycastCallback@34@@Z 00000001801a7220 f i GuSecondaryPruner.obj
 0001:001a6240       ?timeStampChange@CompanionPrunerIncremental@@UEAAXXZ 00000001801a7240 f i GuSecondaryPruner.obj
 0001:001a6260       ?updateObject@CompanionPrunerAABBTree@@UEAA_NAEBUPrunerPayload@Gu@physx@@IAEBVPxBounds3@4@AEBV?$PxTransformT@M@4@I@Z 00000001801a7260 f   GuSecondaryPruner.obj
 0001:001a62e0       ?updateObject@CompanionPrunerBucket@@UEAA_NAEBUPrunerPayload@Gu@physx@@IAEBVPxBounds3@4@AEBV?$PxTransformT@M@4@I@Z 00000001801a72e0 f i GuSecondaryPruner.obj
 0001:001a6300       ?updateObject@CompanionPrunerIncremental@@UEAA_NAEBUPrunerPayload@Gu@physx@@IAEBVPxBounds3@4@AEBV?$PxTransformT@M@4@I@Z 00000001801a7300 f i GuSecondaryPruner.obj
 0001:001a6310       ?visualize@CompanionPrunerAABBTree@@UEBAXAEAVPxRenderOutput@physx@@I@Z 00000001801a7310 f   GuSecondaryPruner.obj
 0001:001a6330       ?visualize@CompanionPrunerIncremental@@UEBAXAEAVPxRenderOutput@physx@@I@Z 00000001801a7330 f i GuSecondaryPruner.obj
 0001:001a6340       ??0AABBPruner@Gu@physx@@QEAA@_N_KW4CompanionPrunerType@12@W4BVHBuildStrategy@12@I@Z 00000001801a7340 f   GuAABBPruner.obj
 0001:001a6470       ??1AABBPruner@Gu@physx@@UEAA@XZ 00000001801a7470 f   GuAABBPruner.obj
 0001:001a65e0       ??_EAABBPruner@Gu@physx@@UEAAPEAXI@Z 00000001801a75e0 f i GuAABBPruner.obj
 0001:001a65e0       ??_GAABBPruner@Gu@physx@@UEAAPEAXI@Z 00000001801a75e0 f i GuAABBPruner.obj
 0001:001a6650       ?addObjects@AABBPruner@Gu@physx@@UEAA_NPEAIPEBVPxBounds3@3@PEBUPrunerPayload@23@PEBV?$PxTransformT@M@3@I_N@Z 00000001801a7650 f   GuAABBPruner.obj
 0001:001a6930       ?buildStep@AABBPruner@Gu@physx@@UEAA_N_N@Z 00000001801a7930 f   GuAABBPruner.obj
 0001:001a6d30       ?commit@AABBPruner@Gu@physx@@UEAAXXZ 00000001801a7d30 f   GuAABBPruner.obj
 0001:001a74c0       ?fullRebuildAABBTree@AABBPruner@Gu@physx@@QEAA_NXZ 00000001801a84c0 f   GuAABBPruner.obj
 0001:001a76d0       ?getGlobalBounds@AABBPruner@Gu@physx@@UEBAXAEAVPxBounds3@3@@Z 00000001801a86d0 f   GuAABBPruner.obj
 0001:001a77f0       ?getPayloadData@AABBPruner@Gu@physx@@UEBAAEBUPrunerPayload@23@IPEAUPrunerPayloadData@23@@Z 00000001801a87f0 f i GuAABBPruner.obj
 0001:001a7850       ?growAndPushBack@?$PxArray@UNewTreeFixup@AABBPruner@Gu@physx@@V?$PxReflectionAllocator@UNewTreeFixup@AABBPruner@Gu@physx@@@4@@physx@@IEAAAEAUNewTreeFixup@AABBPruner@Gu@2@AEBU3452@@Z 00000001801a8850 f i GuAABBPruner.obj
 0001:001a7990       ?isDynamic@AABBPruner@Gu@physx@@UEBA_NXZ 00000001801a8990 f i GuAABBPruner.obj
 0001:001a79a0       ?merge@AABBPruner@Gu@physx@@UEAAXPEBX@Z 00000001801a89a0 f   GuAABBPruner.obj
 0001:001a7a20       ?overlap@AABBPruner@Gu@physx@@UEBA_NAEBVShapeData@23@AEAUPrunerOverlapCallback@23@@Z 00000001801a8a20 f   GuAABBPruner.obj
 0001:001a8160       ?preallocate@AABBPruner@Gu@physx@@UEAAXI@Z 00000001801a9160 f i GuAABBPruner.obj
 0001:001a8170       ?prepareBuild@AABBPruner@Gu@physx@@UEAA_NXZ 00000001801a9170 f   GuAABBPruner.obj
 0001:001a8380       ?purge@AABBPruner@Gu@physx@@UEAAXXZ 00000001801a9380 f   GuAABBPruner.obj
 0001:001a83a0       ?raycast@AABBPruner@Gu@physx@@UEBA_NAEBV?$PxVec3T@M@3@0AEAMAEAUPrunerRaycastCallback@23@@Z 00000001801a93a0 f   GuAABBPruner.obj
 0001:001a8490       ?refitUpdatedAndRemoved@AABBPruner@Gu@physx@@QEAAXXZ 00000001801a9490 f   GuAABBPruner.obj
 0001:001a8560       ?release@AABBPruner@Gu@physx@@QEAAXXZ 00000001801a9560 f   GuAABBPruner.obj
 0001:001a86a0       ?removeObjects@AABBPruner@Gu@physx@@UEAAXPEBIIPEAUPrunerPayloadRemovalCallback@23@@Z 00000001801a96a0 f   GuAABBPruner.obj
 0001:001a8970       ?setRebuildRateHint@AABBPruner@Gu@physx@@UEAAXI@Z 00000001801a9970 f   GuAABBPruner.obj
 0001:001a8990       ?setTransform@AABBPruner@Gu@physx@@UEAA_NIAEBV?$PxTransformT@M@3@@Z 00000001801a9990 f i GuAABBPruner.obj
 0001:001a8a00       ?shiftOrigin@AABBPruner@Gu@physx@@UEAAXAEBV?$PxVec3T@M@3@@Z 00000001801a9a00 f   GuAABBPruner.obj
 0001:001a8a70       ?sweep@AABBPruner@Gu@physx@@UEBA_NAEBVShapeData@23@AEBV?$PxVec3T@M@3@AEAMAEAUPrunerRaycastCallback@23@@Z 00000001801a9a70 f   GuAABBPruner.obj
 0001:001a8bf0       ?updateObjects@AABBPruner@Gu@physx@@UEAAXPEBIIM0PEBVPxBounds3@3@PEBUPxTransformPadded@3@@Z 00000001801a9bf0 f   GuAABBPruner.obj
 0001:001a8ea0       ?visualize@AABBPruner@Gu@physx@@UEBAXAEAVPxRenderOutput@3@II@Z 00000001801a9ea0 f   GuAABBPruner.obj
 0001:001a8f50       ??0ActorShapeMap@Gu@physx@@QEAA@XZ 00000001801a9f50 f   GuActorShapeMap.obj
 0001:001a8fb0       ??1ActorShapeMap@Gu@physx@@QEAA@XZ 00000001801a9fb0 f   GuActorShapeMap.obj
 0001:001a9010       ?add@ActorShapeMap@Gu@physx@@QEAA_NIPEBX0_K@Z 00000001801aa010 f   GuActorShapeMap.obj
 0001:001a91c0       ?create@?$PxHashBase@V?$PxPair@$$CBUActorShape@ActorShapeMap@Gu@physx@@_K@physx@@UActorShape@ActorShapeMap@Gu@2@U?$PxHash@UActorShape@ActorShapeMap@Gu@physx@@@2@UGetKey@?$PxHashMapBase@UActorShape@ActorShapeMap@Gu@physx@@_KU?$PxHash@UActorShape@ActorShapeMap@Gu@physx@@@4@VPxAllocator@4@@2@VPxAllocator@2@$00@physx@@QEAAPEAV?$PxPair@$$CBUActorShape@ActorShapeMap@Gu@physx@@_K@2@AEBUActorShape@ActorShapeMap@Gu@2@AEA_N@Z 00000001801aa1c0 f i GuActorShapeMap.obj
 0001:001a93a0       ?erase@?$PxHashBase@V?$PxPair@$$CBUActorShape@ActorShapeMap@Gu@physx@@_K@physx@@UActorShape@ActorShapeMap@Gu@2@U?$PxHash@UActorShape@ActorShapeMap@Gu@physx@@@2@UGetKey@?$PxHashMapBase@UActorShape@ActorShapeMap@Gu@physx@@_KU?$PxHash@UActorShape@ActorShapeMap@Gu@physx@@@4@VPxAllocator@4@@2@VPxAllocator@2@$00@physx@@QEAA_NAEBUActorShape@ActorShapeMap@Gu@2@AEAV?$PxPair@$$CBUActorShape@ActorShapeMap@Gu@physx@@_K@2@@Z 00000001801aa3a0 f i GuActorShapeMap.obj
 0001:001a95b0       ?find@ActorShapeMap@Gu@physx@@QEBA_KIPEBX0@Z 00000001801aa5b0 f   GuActorShapeMap.obj
 0001:001a96a0       ?remove@ActorShapeMap@Gu@physx@@QEAA_NIPEBX0PEA_K@Z 00000001801aa6a0 f   GuActorShapeMap.obj
 0001:001a9730       ?reserveInternal@?$PxHashBase@V?$PxPair@$$CBUActorShape@ActorShapeMap@Gu@physx@@_K@physx@@UActorShape@ActorShapeMap@Gu@2@U?$PxHash@UActorShape@ActorShapeMap@Gu@physx@@@2@UGetKey@?$PxHashMapBase@UActorShape@ActorShapeMap@Gu@physx@@_KU?$PxHash@UActorShape@ActorShapeMap@Gu@physx@@@4@VPxAllocator@4@@2@VPxAllocator@2@$00@physx@@AEAAXI@Z 00000001801aa730 f i GuActorShapeMap.obj
 0001:001a9940       ??0QuerySystem@Gu@physx@@QEAA@_KMAEBVAdapter@12@_N@Z 00000001801aa940 f   GuQuerySystem.obj
 0001:001a9a10       ??1QuerySystem@Gu@physx@@QEAA@XZ 00000001801aaa10 f   GuQuerySystem.obj
 0001:001a9c40       ??_GPrunerExt@QuerySystem@Gu@physx@@QEAAPEAXI@Z 00000001801aac40 f i GuQuerySystem.obj
 0001:001a9d60       ?addPruner@QuerySystem@Gu@physx@@QEAAIPEAVPruner@23@I@Z 00000001801aad60 f   GuQuerySystem.obj
 0001:001a9e80       ?addPrunerShape@QuerySystem@Gu@physx@@QEAA_KAEBUPrunerPayload@23@I_NAEBV?$PxTransformT@M@3@PEBVPxBounds3@3@@Z 00000001801aae80 f   GuQuerySystem.obj
 0001:001a9fd0       ?addToDirtyList@PrunerExt@QuerySystem@Gu@physx@@QEAAXIIAEBV?$PxTransformT@M@4@PEBVPxBounds3@4@@Z 00000001801aafd0 f   GuQuerySystem.obj
 0001:001aa240       ?commitUpdates@QuerySystem@Gu@physx@@QEAAXXZ 00000001801ab240 f   GuQuerySystem.obj
 0001:001aa350       ?createTreeOfPruners@QuerySystem@Gu@physx@@QEAAXXZ 00000001801ab350 f   GuQuerySystem.obj
 0001:001aa520       ?flushMemory@QuerySystem@Gu@physx@@QEAAXXZ 00000001801ab520 f   GuQuerySystem.obj
 0001:001aa5b0       ?getPayloadData@QuerySystem@Gu@physx@@QEBAAEBUPrunerPayload@23@_KPEAUPrunerPayloadData@23@@Z 00000001801ab5b0 f   GuQuerySystem.obj
 0001:001aa5d0       ?growAndPushBack@?$PxArray@PEAUPrunerExt@QuerySystem@Gu@physx@@V?$PxReflectionAllocator@PEAUPrunerExt@QuerySystem@Gu@physx@@@4@@physx@@IEAAAEAPEAUPrunerExt@QuerySystem@Gu@2@AEBQEAU3452@@Z 00000001801ab5d0 f i GuQuerySystem.obj
 0001:001aa710       ?overlap@QuerySystem@Gu@physx@@QEBAXAEBVShapeData@23@AEAUPrunerOverlapCallback@23@PEBVPrunerFilter@23@@Z 00000001801ab710 f   GuQuerySystem.obj
 0001:001aa810       ?processDirtyList@PrunerExt@QuerySystem@Gu@physx@@QEAA_NAEBVAdapter@34@M@Z 00000001801ab810 f   GuQuerySystem.obj
 0001:001aaa50       ?processDirtyLists@QuerySystem@Gu@physx@@AEAAXXZ 00000001801aba50 f   GuQuerySystem.obj
 0001:001aabb0       ?raycast@QuerySystem@Gu@physx@@QEBAXAEBV?$PxVec3T@M@3@0AEAMAEAUPrunerRaycastCallback@23@PEBVPrunerFilter@23@@Z 00000001801abbb0 f   GuQuerySystem.obj
 0001:001aace0       ?recreate@?$PxArray@UData@PrunerExt@QuerySystem@Gu@physx@@V?$PxReflectionAllocator@UData@PrunerExt@QuerySystem@Gu@physx@@@5@@physx@@IEAAXI@Z 00000001801abce0 f i GuQuerySystem.obj
 0001:001ab0a0       ?removePruner@QuerySystem@Gu@physx@@QEAAXI@Z 00000001801ac0a0 f   GuQuerySystem.obj
 0001:001ab180       ?removePrunerShape@QuerySystem@Gu@physx@@QEAAX_KPEAUPrunerPayloadRemovalCallback@23@@Z 00000001801ac180 f   GuQuerySystem.obj
 0001:001ab3e0       ?sweep@QuerySystem@Gu@physx@@QEBAXAEBVShapeData@23@AEBV?$PxVec3T@M@3@AEAMAEAUPrunerRaycastCallback@23@PEBVPrunerFilter@23@@Z 00000001801ac3e0 f   GuQuerySystem.obj
 0001:001ab510       ?sync@QuerySystem@Gu@physx@@QEAAXIPEBI0PEBVPxBounds3@3@PEBUPxTransformPadded@3@I@Z 00000001801ac510 f   GuQuerySystem.obj
 0001:001ab5c0       ?update@QuerySystem@Gu@physx@@QEAAX_N0@Z 00000001801ac5c0 f   GuQuerySystem.obj
 0001:001ab730       ?updatePrunerShape@QuerySystem@Gu@physx@@QEAAX_K_NAEBV?$PxTransformT@M@3@PEBVPxBounds3@3@@Z 00000001801ac730 f   GuQuerySystem.obj
 0001:001ab920       createAABBPruner           00000001801ac920 f   GuFactory.obj
 0001:001ab9e0       createBucketPruner         00000001801ac9e0 f   GuFactory.obj
 0001:001aba70       createIncrementalPruner    00000001801aca70 f   GuFactory.obj
 0001:001abb00       ??$PxSmallSort@I$$CBUSortBoundsPredicate@physx@@@physx@@YAXPEAIHHAEBUSortBoundsPredicate@0@@Z 00000001801acb00 f i GuRTreeCooking.obj
 0001:001abd60       ??$PxSort@IU?$PxLess@I@physx@@V?$PxReflectionAllocator@I@2@@physx@@YAXPEAIIAEBU?$PxLess@I@0@AEBV?$PxReflectionAllocator@I@0@I@Z 00000001801acd60 f i GuRTreeCooking.obj
 0001:001ac1d0       ??$PxSort@IUSortBoundsPredicate@physx@@V?$PxReflectionAllocator@I@2@@physx@@YAXPEAIIAEBUSortBoundsPredicate@0@AEBV?$PxReflectionAllocator@I@0@I@Z 00000001801ad1d0 f i GuRTreeCooking.obj
 0001:001ac6f0       ??$quickSelectFirstK@UBoundsLTE@physx@@@quickSelect@physx@@YAXPEIAIIIIAEBUBoundsLTE@1@@Z 00000001801ad6f0 f i GuRTreeCooking.obj
 0001:001ac8c0       ?allocate@?$PxArray@UInterval@physx@@V?$PxInlineAllocator@$0CAAA@V?$PxReflectionAllocator@UInterval@physx@@@physx@@@2@@physx@@IEAAPEAUInterval@2@IPEAI@Z 00000001801ad8c0 f i GuRTreeCooking.obj
 0001:001ad690       ?buildFromTriangles@RTreeCooker@physx@@SAXAEAURTree@Gu@2@PEBV?$PxVec3T@M@2@IPEBGPEBIIAEAV?$PxArray@IV?$PxReflectionAllocator@I@physx@@@2@PEAURemapCallback@12@MW4Enum@PxMeshCookingHint@2@@Z 00000001801ae690 f   GuRTreeCooking.obj
 0001:001ad950       ?copy@?$PxArray@URTreeNodeNQ@physx@@V?$PxReflectionAllocator@URTreeNodeNQ@physx@@@2@@physx@@KAXPEAURTreeNodeNQ@2@0PEBU32@@Z 00000001801ae950 f i GuRTreeCooking.obj
 0001:001adaf0       ?growAndPushBack@?$PxArray@UInterval@physx@@V?$PxInlineAllocator@$0CAAA@V?$PxReflectionAllocator@UInterval@physx@@@physx@@@2@@physx@@IEAAAEAUInterval@2@AEBU32@@Z 00000001801aeaf0 f i GuRTreeCooking.obj
 0001:001adbe0       ?growAndPushBack@?$PxArray@UPxBounds3V@physx@@V?$PxReflectionAllocator@UPxBounds3V@physx@@@2@@physx@@IEAAAEAUPxBounds3V@2@AEBU32@@Z 00000001801aebe0 f i GuRTreeCooking.obj
 0001:001add30       ?growAndPushBack@?$PxArray@URTreeNodeNQ@physx@@V?$PxReflectionAllocator@URTreeNodeNQ@physx@@@2@@physx@@IEAAAEAURTreeNodeNQ@2@AEBU32@@Z 00000001801aed30 f i GuRTreeCooking.obj
 0001:001ade90       ?growAndPushBack@?$PxArray@URTreeNodeQ@Gu@physx@@V?$PxReflectionAllocator@URTreeNodeQ@Gu@physx@@@3@@physx@@IEAAAEAURTreeNodeQ@Gu@2@AEBU342@@Z 00000001801aee90 f i GuRTreeCooking.obj
 0001:001adff0       ?recreate@?$PxArray@UPxBounds3V@physx@@V?$PxReflectionAllocator@UPxBounds3V@physx@@@2@@physx@@IEAAXI@Z 00000001801aeff0 f i GuRTreeCooking.obj
 0001:001ae110       ?recreate@?$PxArray@URTreeNodeNQ@physx@@V?$PxReflectionAllocator@URTreeNodeNQ@physx@@@2@@physx@@IEAAXI@Z 00000001801af110 f i GuRTreeCooking.obj
 0001:001ae200       ?recreate@?$PxArray@URTreeNodeQ@Gu@physx@@V?$PxReflectionAllocator@URTreeNodeQ@Gu@physx@@@3@@physx@@IEAAXI@Z 00000001801af200 f i GuRTreeCooking.obj
 0001:001ae320       ?resizeUninitialized@?$PxArray@URTreeNodeNQ@physx@@V?$PxReflectionAllocator@URTreeNodeNQ@physx@@@2@@physx@@QEAAXI@Z 00000001801af320 f i GuRTreeCooking.obj
 0001:001ae360       ?sort4@SubSortQuick@physx@@QEAAXPEIAIIAEAV?$PxArray@URTreeNodeNQ@physx@@V?$PxReflectionAllocator@URTreeNodeNQ@physx@@@2@@2@AEAIAEAUPxBounds3V@2@I@Z 00000001801af360 f i GuRTreeCooking.obj
 0001:001ae700       ?sort4@SubSortSAH@physx@@QEAAXPEAIIAEAV?$PxArray@URTreeNodeNQ@physx@@V?$PxReflectionAllocator@URTreeNodeNQ@physx@@@2@@2@AEAIIPEAURTreeNodeNQ@2@@Z 00000001801af700 f i GuRTreeCooking.obj
 0001:001af090       ?split@SubSortSAH@physx@@QEAAIPEAII@Z 00000001801b0090 f i GuRTreeCooking.obj
 0001:001afb70       cookBVH                    00000001801b0b70 f   GuCookingBVH.obj
 0001:001afd00       createBVH                  00000001801b0d00 f   GuCookingBVH.obj
 0001:001afe90       cookHeightField            00000001801b0e90 f   GuCookingHF.obj
 0001:001affa0       createHeightField          00000001801b0fa0 f   GuCookingHF.obj
 0001:001b0660       computeHullPolygons        00000001801b1660 f   GuCookingConvexMesh.obj
 0001:001b0850       cookConvexMesh             00000001801b1850 f   GuCookingConvexMesh.obj
 0001:001b0990       createConvexMesh           00000001801b1990 f   GuCookingConvexMesh.obj
 0001:001b0b10       validateConvexMesh         00000001801b1b10 f   GuCookingConvexMesh.obj
 0001:001b0c60       ??1BV4TriangleMeshBuilder@physx@@UEAA@XZ 00000001801b1c60 f   GuCookingTriangleMesh.obj
 0001:001b0cf0       ??1RTreeTriangleMeshBuilder@physx@@UEAA@XZ 00000001801b1cf0 f   GuCookingTriangleMesh.obj
 0001:001b0d60       ??_EBV4TriangleMeshBuilder@physx@@UEAAPEAXI@Z 00000001801b1d60 f i GuCookingTriangleMesh.obj
 0001:001b0d60       ??_GBV4TriangleMeshBuilder@physx@@UEAAPEAXI@Z 00000001801b1d60 f i GuCookingTriangleMesh.obj
 0001:001b0da0       ??_ERTreeTriangleMeshBuilder@physx@@UEAAPEAXI@Z 00000001801b1da0 f i GuCookingTriangleMesh.obj
 0001:001b0da0       ??_GRTreeTriangleMeshBuilder@physx@@UEAAPEAXI@Z 00000001801b1da0 f i GuCookingTriangleMesh.obj
 0001:001b0de0       ??_ETriangleMeshBuilder@physx@@UEAAPEAXI@Z 00000001801b1de0 f i GuCookingTriangleMesh.obj
 0001:001b0de0       ??_GTriangleMeshBuilder@physx@@UEAAPEAXI@Z 00000001801b1de0 f i GuCookingTriangleMesh.obj
 0001:001b1310       ?buildInertiaTensor@TriangleMeshBuilder@physx@@IEAAX_N@Z 00000001801b2310 f   GuCookingTriangleMesh.obj
 0001:001b1470       ?buildInertiaTensorFromSDF@TriangleMeshBuilder@physx@@IEAAXXZ 00000001801b2470 f   GuCookingTriangleMesh.obj
 0001:001b16b0       ?checkInputFloats@@YA_NIPEBMPEBDI1@Z 00000001801b26b0 f   GuCookingTriangleMesh.obj
 0001:001b1740       ?checkMeshIndicesSize@TriangleMeshBuilder@physx@@QEAAXXZ 00000001801b2740 f   GuCookingTriangleMesh.obj
 0001:001b1a70       ?cleanMesh@TriangleMeshBuilder@physx@@QEAA_N_NPEAW4Enum@PxTriangleMeshCookingResult@2@@Z 00000001801b2a70 f   GuCookingTriangleMesh.obj
 0001:001b1f60       ?createGRBMidPhaseAndData@TriangleMeshBuilder@physx@@QEAA_NI@Z 00000001801b2f60 f   GuCookingTriangleMesh.obj
 0001:001b2120       ?createMidPhaseStructure@BV32TriangleMeshBuilder@physx@@SA_NAEBUPxCookingParams@2@AEAVTriangleMeshData@Gu@2@AEAVBV32Tree@52@@Z 00000001801b3120 f   GuCookingTriangleMesh.obj
 0001:001b2370       ?createMidPhaseStructure@BV4TriangleMeshBuilder@physx@@UEAA_NXZ 00000001801b3370 f   GuCookingTriangleMesh.obj
 0001:001b2620       ?createMidPhaseStructure@RTreeTriangleMeshBuilder@physx@@UEAA_NXZ 00000001801b3620 f   GuCookingTriangleMesh.obj
 0001:001b2710       ?createSharedEdgeData@TriangleMeshBuilder@physx@@QEAAX_N0@Z 00000001801b3710 f   GuCookingTriangleMesh.obj
 0001:001b2cb0       ?createVertMapping@TriangleMeshBuilder@physx@@QEAAXXZ 00000001801b3cb0 f   GuCookingTriangleMesh.obj
 0001:001b3020       ?importMesh@TriangleMeshBuilder@physx@@IEAA_NAEBVPxTriangleMeshDesc@2@PEAW4Enum@PxTriangleMeshCookingResult@2@_N@Z 00000001801b4020 f   GuCookingTriangleMesh.obj
 0001:001b3660       ?isValid@PxTriangleMeshDesc@physx@@QEBA_NXZ 00000001801b4660 f i GuCookingTriangleMesh.obj
 0001:001b3730       ?loadFromDescInternal@TriangleMeshBuilder@physx@@IEAA_NAEAVPxTriangleMeshDesc@2@PEAW4Enum@PxTriangleMeshCookingResult@2@_N@Z 00000001801b4730 f   GuCookingTriangleMesh.obj
 0001:001b3960       ?onMeshIndexFormatChange@BV4TriangleMeshBuilder@physx@@UEAAXXZ 00000001801b4960 f   GuCookingTriangleMesh.obj
 0001:001b39a0       ?remap@RTreeCookerRemap@@UEAAXPEAIII@Z 00000001801b49a0 f i GuCookingTriangleMesh.obj
 0001:001b39c0       ?remapTopology@TriangleMeshBuilder@physx@@QEAAXPEBI@Z 00000001801b49c0 f   GuCookingTriangleMesh.obj
 0001:001b3c60       ?save@TriangleMeshBuilder@physx@@QEBA_NAEAVPxOutputStream@2@_NAEBUPxCookingParams@2@@Z 00000001801b4c60 f   GuCookingTriangleMesh.obj
 0001:001b4410       ?saveMidPhaseStructure@BV32TriangleMeshBuilder@physx@@SAXPEAVBV32Tree@Gu@2@AEAVPxOutputStream@2@_N@Z 00000001801b5410 f   GuCookingTriangleMesh.obj
 0001:001b4610       ?saveMidPhaseStructure@BV4TriangleMeshBuilder@physx@@UEBAXAEAVPxOutputStream@2@_N@Z 00000001801b5610 f   GuCookingTriangleMesh.obj
 0001:001b47c0       ?saveMidPhaseStructure@RTreeTriangleMeshBuilder@physx@@UEBAXAEAVPxOutputStream@2@_N@Z 00000001801b57c0 f   GuCookingTriangleMesh.obj
 0001:001b4a00       cookTriangleMesh           00000001801b5a00 f   GuCookingTriangleMesh.obj
 0001:001b4cf0       createTriangleMesh         00000001801b5cf0 f   GuCookingTriangleMesh.obj
 0001:001b4f10       validateTriangleMesh       00000001801b5f10 f   GuCookingTriangleMesh.obj
 0001:001b51b0       ??_ECollisionTetrahedronMeshData@Gu@physx@@UEAAPEAXI@Z 00000001801b61b0 f i GuCookingTetrahedronMesh.obj
 0001:001b51b0       ??_GCollisionTetrahedronMeshData@Gu@physx@@UEAAPEAXI@Z 00000001801b61b0 f i GuCookingTetrahedronMesh.obj
 0001:001b5290       ??_EPxCollisionTetrahedronMeshData@physx@@UEAAPEAXI@Z 00000001801b6290 f i GuCookingTetrahedronMesh.obj
 0001:001b5290       ??_GPxCollisionTetrahedronMeshData@physx@@UEAAPEAXI@Z 00000001801b6290 f i GuCookingTetrahedronMesh.obj
 0001:001b52f0       ??_EPxSimulationTetrahedronMeshData@physx@@UEAAPEAXI@Z 00000001801b62f0 f i GuCookingTetrahedronMesh.obj
 0001:001b52f0       ??_GPxSimulationTetrahedronMeshData@physx@@UEAAPEAXI@Z 00000001801b62f0 f i GuCookingTetrahedronMesh.obj
 0001:001b5350       ??_ESimulationTetrahedronMeshData@Gu@physx@@UEAAPEAXI@Z 00000001801b6350 f i GuCookingTetrahedronMesh.obj
 0001:001b5350       ??_GSimulationTetrahedronMeshData@Gu@physx@@UEAAPEAXI@Z 00000001801b6350 f i GuCookingTetrahedronMesh.obj
 0001:001b5430       ?PointOutsideOfPlane4@Gu@physx@@YA?AV?$PxVec4T@M@2@AEBV?$PxVec3T@M@2@0000@Z 00000001801b6430 f i GuCookingTetrahedronMesh.obj
 0001:001b58a0       ?classifyTetrahedrons@@YAXPEBU?$TetrahedronT@I@Gu@physx@@IIIPEAI1AEAV?$PxArray@IV?$PxReflectionAllocator@I@physx@@@3@@Z 00000001801b68a0 f   GuCookingTetrahedronMesh.obj
 0001:001b5a30       ?combineGridModelPartitions@@YAXAEBVTetrahedronMeshData@Gu@physx@@AEAVDeformableVolumeSimulationData@23@PEAPEAI@Z 00000001801b6a30 f   GuCookingTetrahedronMesh.obj
 0001:001b62b0       ?combineGridModelPartitionsHexMesh_parallelGS@@YAXAEBVTetrahedronMeshData@Gu@physx@@AEAVDeformableVolumeSimulationData@23@PEAPEAI@Z 00000001801b72b0 f   GuCookingTetrahedronMesh.obj
 0001:001b6690       ?computeCollisionData@TetrahedronMeshBuilder@physx@@SA_NAEBVPxTetrahedronMeshDesc@2@AEAVTetrahedronMeshData@Gu@2@AEAVDeformableVolumeCollisionData@52@AEBUPxCookingParams@2@_N@Z 00000001801b7690 f   GuCookingTetrahedronMesh.obj
 0001:001b68e0       ?computeGridModelTetrahedronPartitions@@YAPEAIAEBVTetrahedronMeshData@Gu@physx@@AEAVDeformableVolumeSimulationData@23@@Z 00000001801b78e0 f   GuCookingTetrahedronMesh.obj
 0001:001b6c90       ?computeGridModelVoxelPartitions@@YAPEAIAEBVTetrahedronMeshData@Gu@physx@@AEAVDeformableVolumeSimulationData@23@@Z 00000001801b7c90 f   GuCookingTetrahedronMesh.obj
 0001:001b7550       ?computeModelsMapping@TetrahedronMeshBuilder@physx@@SAXAEAVTetrahedronMeshData@Gu@2@AEBV342@AEBVDeformableVolumeCollisionData@42@AEAVCollisionMeshMappingData@42@_NPEBUPxBoundedData@2@@Z 00000001801b8550 f   GuCookingTetrahedronMesh.obj
 0001:001b7f70       ?computeRestPoseAndPointMass@@YAXPEAU?$TetrahedronT@I@Gu@physx@@IPEBV?$PxVec3T@M@3@PEAMPEAV?$PxMat33T@M@3@@Z 00000001801b8f70 f   GuCookingTetrahedronMesh.obj
 0001:001b8490       ?computeSimData@TetrahedronMeshBuilder@physx@@SAXAEBVPxTetrahedronMeshDesc@2@AEAVTetrahedronMeshData@Gu@2@AEAVDeformableVolumeSimulationData@52@AEBUPxCookingParams@2@@Z 00000001801b9490 f   GuCookingTetrahedronMesh.obj
 0001:001b8ba0       ?computeTetData@TetrahedronMeshBuilder@physx@@SAXAEBVPxTetrahedronMeshDesc@2@AEAVTetrahedronMeshData@Gu@2@@Z 00000001801b9ba0 f   GuCookingTetrahedronMesh.obj
 0001:001b8c90       ?computeTetrahedronPartition@@YAIPEBU?$TetrahedronT@I@Gu@physx@@IPEAII@Z 00000001801b9c90 f   GuCookingTetrahedronMesh.obj
 0001:001b8d80       ?create@?$PxHashBase@IIU?$PxHash@I@physx@@UGetKey@?$PxHashSetBase@IU?$PxHash@I@physx@@VPxAllocator@2@$0A@@2@VPxAllocator@2@$0A@@physx@@QEAAPEAIAEBIAEA_N@Z 00000001801b9d80 f i GuCookingTetrahedronMesh.obj
 0001:001b8ee0       ?createCollisionModelMapping@TetrahedronMeshBuilder@physx@@SAXAEBVTetrahedronMeshData@Gu@2@AEBVDeformableVolumeCollisionData@42@AEAVCollisionMeshMappingData@42@@Z 00000001801b9ee0 f   GuCookingTetrahedronMesh.obj
 0001:001b9520       ?createGRBMidPhaseAndData@TetrahedronMeshBuilder@physx@@SA_NIAEAVTetrahedronMeshData@Gu@2@AEAVDeformableVolumeCollisionData@42@AEBUPxCookingParams@2@@Z 00000001801ba520 f   GuCookingTetrahedronMesh.obj
 0001:001ba250       ?createMidPhaseStructure@BV32TetrahedronMeshBuilder@physx@@SA_NAEBUPxCookingParams@2@AEAVTetrahedronMeshData@Gu@2@AEAVBV32Tree@52@AEAVDeformableVolumeCollisionData@52@@Z 00000001801bb250 f   GuCookingTetrahedronMesh.obj
 0001:001ba540       ?createMidPhaseStructure@TetrahedronMeshBuilder@physx@@SA_NAEAVTetrahedronMeshData@Gu@2@AEAVDeformableVolumeCollisionData@42@AEBUPxCookingParams@2@@Z 00000001801bb540 f   GuCookingTetrahedronMesh.obj
 0001:001bb1e0       ?getData@CollisionTetrahedronMeshData@Gu@physx@@UEAAPEAVPxDeformableVolumeCollisionData@3@XZ 00000001801bc1e0 f i GuCookingTetrahedronMesh.obj
 0001:001bb1e0       ?getData@CollisionTetrahedronMeshData@Gu@physx@@UEBAPEBVPxDeformableVolumeCollisionData@3@XZ 00000001801bc1e0 f i GuCookingTetrahedronMesh.obj
 0001:001bb1e0       ?getData@SimulationTetrahedronMeshData@Gu@physx@@UEAAPEAVPxDeformableVolumeSimulationData@3@XZ 00000001801bc1e0 f i GuCookingTetrahedronMesh.obj
 0001:001bb200       ?importMesh@TetrahedronMeshBuilder@physx@@SA_NAEBVPxTetrahedronMeshDesc@2@AEBUPxCookingParams@2@AEAVTetrahedronMeshData@Gu@2@AEAVDeformableVolumeCollisionData@62@_N@Z 00000001801bc200 f   GuCookingTetrahedronMesh.obj
 0001:001bb5d0       ?isValid@PxTetrahedronMeshDesc@physx@@QEBA_NXZ 00000001801bc5d0 f i GuCookingTetrahedronMesh.obj
 0001:001bb650       ?loadFromDesc@TetrahedronMeshBuilder@physx@@SA_NAEBVPxTetrahedronMeshDesc@2@0VPxDeformableVolumeSimulationDataDesc@2@AEAVTetrahedronMeshData@Gu@2@AEAVDeformableVolumeSimulationData@62@2AEAVDeformableVolumeCollisionData@62@AEAVCollisionMeshMappingData@62@AEBUPxCookingParams@2@_N@Z 00000001801bc650 f   GuCookingTetrahedronMesh.obj
 0001:001bb7c0       ?recreate@?$PxArray@V?$PxArray@IV?$PxReflectionAllocator@I@physx@@@physx@@V?$PxReflectionAllocator@V?$PxArray@IV?$PxReflectionAllocator@I@physx@@@physx@@@2@@physx@@IEAAXI@Z 00000001801bc7c0 f i GuCookingTetrahedronMesh.obj
 0001:001bb8f0       ?release@CollisionTetrahedronMeshData@Gu@physx@@UEAAXXZ 00000001801bc8f0 f i GuCookingTetrahedronMesh.obj
 0001:001bb910       ?reserveInternal@?$PxHashBase@IIU?$PxHash@I@physx@@UGetKey@?$PxHashSetBase@IU?$PxHash@I@physx@@VPxAllocator@2@$0A@@2@VPxAllocator@2@$0A@@physx@@AEAAXI@Z 00000001801bc910 f i GuCookingTetrahedronMesh.obj
 0001:001bbce0       ?reserveInternal@?$PxHashBase@V?$PxPair@$$CBVSortedTriangleInds@@I@physx@@VSortedTriangleInds@@USortedTriangleIndsHash@@UGetKey@?$PxHashMapBase@VSortedTriangleInds@@IUSortedTriangleIndsHash@@VPxAllocator@physx@@@2@VPxAllocator@2@$00@physx@@AEAAXI@Z 00000001801bcce0 f i GuCookingTetrahedronMesh.obj
 0001:001bbf30       ?resize@?$PxArray@V?$PxArray@IV?$PxReflectionAllocator@I@physx@@@physx@@V?$PxReflectionAllocator@V?$PxArray@IV?$PxReflectionAllocator@I@physx@@@physx@@@2@@physx@@QEAAXIAEBV?$PxArray@IV?$PxReflectionAllocator@I@physx@@@2@@Z 00000001801bcf30 f i GuCookingTetrahedronMesh.obj
 0001:001bbfd0       ?saveDeformableVolumeMeshData@TetrahedronMeshBuilder@physx@@SA_NAEAVPxOutputStream@2@_NAEBUPxCookingParams@2@AEBVTetrahedronMeshData@Gu@2@AEBVDeformableVolumeSimulationData@62@3AEBVDeformableVolumeCollisionData@62@AEBVCollisionMeshMappingData@62@@Z 00000001801bcfd0 f   GuCookingTetrahedronMesh.obj
 0001:001bc700       ?saveTetrahedronMeshData@TetrahedronMeshBuilder@physx@@SA_NAEAVPxOutputStream@2@_NAEBUPxCookingParams@2@AEBVTetrahedronMeshData@Gu@2@@Z 00000001801bd700 f   GuCookingTetrahedronMesh.obj
 0001:001bc8b0       ?smoothMassRatiosWhilePreservingTotalMass@@YAXPEAMIPEBIHMM@Z 00000001801bd8b0 f   GuCookingTetrahedronMesh.obj
 0001:001bcdb0       ?support@?$LocalConvex@VTetrahedronV@Gu@physx@@@Gu@physx@@UEBA?AT__m128@@AEBT4@@Z 00000001801bddb0 f i GuCookingTetrahedronMesh.obj
 0001:001bce70       ?support@?$LocalConvex@VTetrahedronV@Gu@physx@@@Gu@physx@@UEBA?AT__m128@@AEBT4@AEAH@Z 00000001801bde70 f i GuCookingTetrahedronMesh.obj
 0001:001bd030       assembleDeformableVolumeMesh 00000001801be030 f   GuCookingTetrahedronMesh.obj
 0001:001bd090       computeCollisionData       00000001801be090 f   GuCookingTetrahedronMesh.obj
 0001:001bd2a0       computeModelsMapping       00000001801be2a0 f   GuCookingTetrahedronMesh.obj
 0001:001bd3a0       computeSimulationData      00000001801be3a0 f   GuCookingTetrahedronMesh.obj
 0001:001bd580       cookDeformableVolumeMesh   00000001801be580 f   GuCookingTetrahedronMesh.obj
 0001:001bdbe0       cookTetrahedronMesh        00000001801bebe0 f   GuCookingTetrahedronMesh.obj
 0001:001bdce0       createDeformableVolumeMesh 00000001801bece0 f   GuCookingTetrahedronMesh.obj
 0001:001be3c0       createTetrahedronMesh      00000001801bf3c0 f   GuCookingTetrahedronMesh.obj
 0001:001c0120       ?computeVolumeIntegrals@physx@@YA_NAEBVPxSimpleTriangleMesh@1@MAEAUPxIntegrals@1@@Z 00000001801c1120 f   GuCookingVolumeIntegration.obj
 0001:001c0160       ?computeVolumeIntegralsEberly@physx@@YA_NAEBVPxConvexMeshDesc@1@MAEAUPxIntegrals@1@AEBV?$PxVec3T@M@1@_N@Z 00000001801c1160 f   GuCookingVolumeIntegration.obj
 0001:001c07d0       ??0QuickHull@local@@QEAA@AEBUPxCookingParams@physx@@AEBVPxConvexMeshDesc@3@@Z 00000001801c17d0 f   GuCookingQuickHullConvexHullLib.obj
 0001:001c0880       ??0QuickHullConvexHullLib@physx@@QEAA@AEBVPxConvexMeshDesc@1@AEBUPxCookingParams@1@@Z 00000001801c1880 f   GuCookingQuickHullConvexHullLib.obj
 0001:001c0960       ??1?$MemBlock@UQuickHullFace@local@@$00@local@@QEAA@XZ 00000001801c1960 f i GuCookingQuickHullConvexHullLib.obj
 0001:001c0960       ??1?$MemBlock@UQuickHullHalfEdge@local@@$0A@@local@@QEAA@XZ 00000001801c1960 f i GuCookingQuickHullConvexHullLib.obj
 0001:001c0a20       ??1QuickHull@local@@QEAA@XZ 00000001801c1a20 f   GuCookingQuickHullConvexHullLib.obj
 0001:001c0b90       ??_GConvexHull@physx@@QEAAPEAXI@Z 00000001801c1b90 f i GuCookingQuickHullConvexHullLib.obj
 0001:001c0c90       ??_EConvexHullLib@physx@@UEAAPEAXI@Z 00000001801c1c90 f i GuCookingQuickHullConvexHullLib.obj
 0001:001c0c90       ??_GConvexHullLib@physx@@UEAAPEAXI@Z 00000001801c1c90 f i GuCookingQuickHullConvexHullLib.obj
 0001:001c0cd0       ??_EQuickHullConvexHullLib@physx@@UEAAPEAXI@Z 00000001801c1cd0 f i GuCookingQuickHullConvexHullLib.obj
 0001:001c0cd0       ??_GQuickHullConvexHullLib@physx@@UEAAPEAXI@Z 00000001801c1cd0 f i GuCookingQuickHullConvexHullLib.obj
 0001:001c0e00       ?addPointToHull@QuickHull@local@@IEAA_NPEBUQuickHullVertex@2@AEAUQuickHullFace@2@AEA_N@Z 00000001801c1e00 f   GuCookingQuickHullConvexHullLib.obj
 0001:001c10d0       ?addSimplex@QuickHull@local@@IEAA_NPEAUQuickHullVertex@2@_N@Z 00000001801c20d0 f   GuCookingQuickHullConvexHullLib.obj
 0001:001c15f0       ?buildHull@QuickHull@local@@QEAA?AW4Enum@QuickHullResult@2@XZ 00000001801c25f0 f   GuCookingQuickHullConvexHullLib.obj
 0001:001c1840       ?calculateHorizon@QuickHull@local@@IEAAXAEBV?$PxVec3T@M@physx@@PEAUQuickHullHalfEdge@2@AEAUQuickHullFace@2@AEAV?$PxArray@PEAUQuickHullHalfEdge@local@@V?$PxReflectionAllocator@PEAUQuickHullHalfEdge@local@@@physx@@@4@AEAV?$PxArray@PEAUQuickHullFace@local@@V?$PxReflectionAllocator@PEAUQuickHullFace@local@@@physx@@@4@@Z 00000001801c2840 f   GuCookingQuickHullConvexHullLib.obj
 0001:001c19f0       ?canMergeFaces@QuickHull@local@@IEAA_NAEBUQuickHullHalfEdge@2@@Z 00000001801c29f0 f   GuCookingQuickHullConvexHullLib.obj
 0001:001c2210       ?cleanupForSimplex@QuickHullConvexHullLib@physx@@IEAA_NPEAV?$PxVec3T@M@2@IPEAUQuickHullVertex@local@@1AEAM2@Z 00000001801c3210 f   GuCookingQuickHullConvexHullLib.obj
 0001:001c3300       ?computeMinMaxVerts@QuickHull@local@@IEAAXXZ 00000001801c4300 f   GuCookingQuickHullConvexHullLib.obj
 0001:001c36e0       ?connectHalfEdges@QuickHullFace@local@@AEAAPEAU12@PEAUQuickHullHalfEdge@2@0@Z 00000001801c46e0 f   GuCookingQuickHullConvexHullLib.obj
 0001:001c3a50       ?copy@?$PxArray@UExpandPoint@local@@V?$PxReflectionAllocator@UExpandPoint@local@@@physx@@@physx@@KAXPEAUExpandPoint@local@@0PEBU34@@Z 00000001801c4a50 f i GuCookingQuickHullConvexHullLib.obj
 0001:001c3ca0       ?copy@?$PxArray@VPxPlane@physx@@V?$PxReflectionAllocator@VPxPlane@physx@@@2@@physx@@KAXPEAVPxPlane@2@0PEBV32@@Z 00000001801c4ca0 f i GuCookingQuickHullConvexHullLib.obj
 0001:001c3d90       ?createConvexHull@QuickHullConvexHullLib@physx@@UEAA?AW4Enum@PxConvexMeshCookingResult@2@XZ 00000001801c4d90 f   GuCookingQuickHullConvexHullLib.obj
 0001:001c41b0       ?createEdgeList@QuickHullConvexHullLib@physx@@UEAA_NIPEBEPEAPEAEPEAPEAG2@Z 00000001801c51b0 f   GuCookingQuickHullConvexHullLib.obj
 0001:001c43e0       ?createTriangle@QuickHull@local@@IEAAPEAUQuickHullFace@2@AEBUQuickHullVertex@2@00@Z 00000001801c53e0 f   GuCookingQuickHullConvexHullLib.obj
 0001:001c47c0       ?doAdjacentMerge@QuickHull@local@@IEAA_NAEAUQuickHullFace@2@_NAEA_N@Z 00000001801c57c0 f   GuCookingQuickHullConvexHullLib.obj
 0001:001c4b10       ?expandHull@QuickHullConvexHullLib@physx@@IEAA?AW4Enum@PxConvexMeshCookingResult@2@XZ 00000001801c5b10 f   GuCookingQuickHullConvexHullLib.obj
 0001:001c5450       ?expandHullOBB@QuickHullConvexHullLib@physx@@IEAA?AW4Enum@PxConvexMeshCookingResult@2@XZ 00000001801c6450 f   GuCookingQuickHullConvexHullLib.obj
 0001:001c5890       ?fillConvexMeshDesc@QuickHullConvexHullLib@physx@@UEAAXAEAVPxConvexMeshDesc@2@@Z 00000001801c6890 f   GuCookingQuickHullConvexHullLib.obj
 0001:001c58e0       ?fillConvexMeshDescFromCroppedHull@QuickHullConvexHullLib@physx@@IEAAXAEAVPxConvexMeshDesc@2@@Z 00000001801c68e0 f   GuCookingQuickHullConvexHullLib.obj
 0001:001c5ad0       ?fillConvexMeshDescFromQuickHull@QuickHullConvexHullLib@physx@@IEAAXAEAVPxConvexMeshDesc@2@@Z 00000001801c6ad0 f   GuCookingQuickHullConvexHullLib.obj
 0001:001c5e70       ?findSimplex@QuickHull@local@@IEAA_NXZ 00000001801c6e70 f   GuCookingQuickHullConvexHullLib.obj
 0001:001c6aa0       ?getFreeItem@?$MemBlock@UQuickHullFace@local@@$00@local@@QEAAPEAUQuickHullFace@2@XZ 00000001801c7aa0 f i GuCookingQuickHullConvexHullLib.obj
 0001:001c6be0       ?getFreeItem@?$MemBlock@UQuickHullHalfEdge@local@@$0A@@local@@QEAAPEAUQuickHullHalfEdge@2@XZ 00000001801c7be0 f i GuCookingQuickHullConvexHullLib.obj
 0001:001c6cb0       ?growAndPushBack@?$PxArray@PEAUQuickHullFace@local@@V?$PxReflectionAllocator@PEAUQuickHullFace@local@@@physx@@@physx@@IEAAAEAPEAUQuickHullFace@local@@AEBQEAU34@@Z 00000001801c7cb0 f i GuCookingQuickHullConvexHullLib.obj
 0001:001c6df0       ?growAndPushBack@?$PxArray@PEAUQuickHullHalfEdge@local@@V?$PxReflectionAllocator@PEAUQuickHullHalfEdge@local@@@physx@@@physx@@IEAAAEAPEAUQuickHullHalfEdge@local@@AEBQEAU34@@Z 00000001801c7df0 f i GuCookingQuickHullConvexHullLib.obj
 0001:001c6f30       ?growAndPushBack@?$PxArray@PEAUQuickHullVertex@local@@V?$PxReflectionAllocator@PEAUQuickHullVertex@local@@@physx@@@physx@@IEAAAEAPEAUQuickHullVertex@local@@AEBQEAU34@@Z 00000001801c7f30 f i GuCookingQuickHullConvexHullLib.obj
 0001:001c7070       ?growAndPushBack@?$PxArray@UExpandPoint@local@@V?$PxReflectionAllocator@UExpandPoint@local@@@physx@@@physx@@IEAAAEAUExpandPoint@local@@AEBU34@@Z 00000001801c8070 f i GuCookingQuickHullConvexHullLib.obj
 0001:001c7200       ?growAndPushBack@?$PxArray@VPxPlane@physx@@V?$PxReflectionAllocator@VPxPlane@physx@@@2@@physx@@IEAAAEAVPxPlane@2@AEBV32@@Z 00000001801c8200 f i GuCookingQuickHullConvexHullLib.obj
 0001:001c7340       ?init@?$MemBlock@UQuickHullFace@local@@$00@local@@QEAAXI@Z 00000001801c8340 f i GuCookingQuickHullConvexHullLib.obj
 0001:001c7440       ?init@?$MemBlock@UQuickHullHalfEdge@local@@$0A@@local@@QEAAXI@Z 00000001801c8440 f i GuCookingQuickHullConvexHullLib.obj
 0001:001c74e0       ?mergeAdjacentFace@QuickHullFace@local@@QEAA_NPEAUQuickHullHalfEdge@2@AEAV?$PxArray@PEAUQuickHullFace@local@@V?$PxReflectionAllocator@PEAUQuickHullFace@local@@@physx@@@physx@@@Z 00000001801c84e0 f   GuCookingQuickHullConvexHullLib.obj
 0001:001c7930       ?nextPointToAdd@QuickHull@local@@IEAAPEAUQuickHullVertex@2@AEAPEAUQuickHullFace@2@@Z 00000001801c8930 f   GuCookingQuickHullConvexHullLib.obj
 0001:001c7ab0       ?parseInputVertices@QuickHull@local@@QEAAXPEBV?$PxVec3T@M@physx@@I@Z 00000001801c8ab0 f   GuCookingQuickHullConvexHullLib.obj
 0001:001c7c30       ?postMergeHull@QuickHull@local@@IEAAXXZ 00000001801c8c30 f   GuCookingQuickHullConvexHullLib.obj
 0001:001c7e90       ?preallocate@QuickHull@local@@QEAAXI@Z 00000001801c8e90 f   GuCookingQuickHullConvexHullLib.obj
 0001:001c7fd0       ?recreate@?$PxArray@PEAUQuickHullFace@local@@V?$PxReflectionAllocator@PEAUQuickHullFace@local@@@physx@@@physx@@IEAAXI@Z 00000001801c8fd0 f i GuCookingQuickHullConvexHullLib.obj
 0001:001c80e0       ?recreate@?$PxArray@PEAUQuickHullHalfEdge@local@@V?$PxReflectionAllocator@PEAUQuickHullHalfEdge@local@@@physx@@@physx@@IEAAXI@Z 00000001801c90e0 f i GuCookingQuickHullConvexHullLib.obj
 0001:001c81f0       ?recreate@?$PxArray@PEAUQuickHullVertex@local@@V?$PxReflectionAllocator@PEAUQuickHullVertex@local@@@physx@@@physx@@IEAAXI@Z 00000001801c91f0 f i GuCookingQuickHullConvexHullLib.obj
 0001:001c8300       ?recreate@?$PxArray@UExpandPoint@local@@V?$PxReflectionAllocator@UExpandPoint@local@@@physx@@@physx@@IEAAXI@Z 00000001801c9300 f i GuCookingQuickHullConvexHullLib.obj
 0001:001c83f0       ?recreate@?$PxArray@VPxPlane@physx@@V?$PxReflectionAllocator@VPxPlane@physx@@@2@@physx@@IEAAXI@Z 00000001801c93f0 f i GuCookingQuickHullConvexHullLib.obj
 0001:001c84e0       ?resolveUnclaimedPoints@QuickHull@local@@IEAAXAEBV?$PxArray@PEAUQuickHullFace@local@@V?$PxReflectionAllocator@PEAUQuickHullFace@local@@@physx@@@physx@@@Z 00000001801c94e0 f   GuCookingQuickHullConvexHullLib.obj
 0001:001c8760       ??$copy@V?$PxReflectionAllocator@VPair@@@physx@@@?$PxArray@VPair@@V?$PxReflectionAllocator@VPair@@@physx@@@physx@@IEAAXAEBV01@@Z 00000001801c9760 f i GuCookingConvexPolygonsBuilder.obj
 0001:001c87e0       ??0ConvexPolygonsBuilder@physx@@QEAA@PEAUConvexHullData@Gu@1@_N@Z 00000001801c97e0 f   GuCookingConvexPolygonsBuilder.obj
 0001:001c8800       ??1ConvexPolygonsBuilder@physx@@QEAA@XZ 00000001801c9800 f   GuCookingConvexPolygonsBuilder.obj
 0001:001c9040       ?allocate@?$PxArray@VPair@@V?$PxReflectionAllocator@VPair@@@physx@@@physx@@IEAAPEAVPair@@IPEAI@Z 00000001801ca040 f i GuCookingConvexPolygonsBuilder.obj
 0001:001c9b70       ?computeHullPolygons@ConvexPolygonsBuilder@physx@@QEAA_NAEBIPEBV?$PxVec3T@M@2@0PEBI@Z 00000001801cab70 f   GuCookingConvexPolygonsBuilder.obj
 0001:001cb190       ?createPolygonData@ConvexPolygonsBuilder@physx@@AEAA_NXZ 00000001801cc190 f   GuCookingConvexPolygonsBuilder.obj
 0001:001cbc40       ?createTrianglesFromPolygons@ConvexPolygonsBuilder@physx@@AEAA_NXZ 00000001801ccc40 f   GuCookingConvexPolygonsBuilder.obj
 0001:001cd300       ?growAndPushBack@?$PxArray@VPair@@V?$PxReflectionAllocator@VPair@@@physx@@@physx@@IEAAAEAVPair@@AEBV3@@Z 00000001801ce300 f i GuCookingConvexPolygonsBuilder.obj
 0001:001cd540       ??0ConvexMeshBuilder@physx@@QEAA@_N@Z 00000001801ce540 f   GuCookingConvexMeshBuilder.obj
 0001:001cd5b0       ??1ConvexMeshBuilder@physx@@QEAA@XZ 00000001801ce5b0 f   GuCookingConvexMeshBuilder.obj
 0001:001cda60       ?build@ConvexMeshBuilder@physx@@QEAA_NAEBVPxConvexMeshDesc@2@I_NPEAVConvexHullLib@2@@Z 00000001801cea60 f   GuCookingConvexMeshBuilder.obj
 0001:001cddf0       ?checkExtentRadiusRatio@ConvexMeshBuilder@physx@@QEAA_NXZ 00000001801cedf0 f   GuCookingConvexMeshBuilder.obj
 0001:001cde20       ?computeHullPolygons@ConvexMeshBuilder@physx@@QEAA_NAEBIPEBV?$PxVec3T@M@2@0PEBIAEAVPxAllocatorCallback@2@AEAIAEAPEAV32@4AEAPEAI4AEAPEAUPxHullPolygon@2@@Z 00000001801cee20 f   GuCookingConvexMeshBuilder.obj
 0001:001ce020       ?computeMassInfo@ConvexMeshBuilder@physx@@QEAAX_N@Z 00000001801cf020 f   GuCookingConvexMeshBuilder.obj
 0001:001ce440       ?computeSDF@ConvexMeshBuilder@physx@@QEAAXAEBVPxConvexMeshDesc@2@@Z 00000001801cf440 f   GuCookingConvexMeshBuilder.obj
 0001:001ce8d0       ?copy@ConvexMeshBuilder@physx@@QEAA_NAEAUConvexHullInitData@Gu@2@@Z 00000001801cf8d0 f   GuCookingConvexMeshBuilder.obj
 0001:001cea30       ?loadConvexHull@ConvexMeshBuilder@physx@@QEAA_NAEBVPxConvexMeshDesc@2@PEAVConvexHullLib@2@@Z 00000001801cfa30 f   GuCookingConvexMeshBuilder.obj
 0001:001cec90       ?save@ConvexMeshBuilder@physx@@QEBA_NAEAVPxOutputStream@2@_N@Z 00000001801cfc90 f   GuCookingConvexMeshBuilder.obj
 0001:001cf0b0       ??0ConvexHull@physx@@QEAA@AEBV?$PxVec3T@M@1@AEBV?$PxTransformT@M@1@AEBV?$PxArray@VPxPlane@physx@@V?$PxReflectionAllocator@VPxPlane@physx@@@2@@1@@Z 00000001801d00b0 f   GuCookingConvexHullUtils.obj
 0001:001d0220       ?assertIntact@ConvexHull@physx@@QEBA_NM@Z 00000001801d1220 f   GuCookingConvexHullUtils.obj
 0001:001d0530       ?computeOBBFromConvex@physx@@YA_NAEBVPxConvexMeshDesc@1@AEAV?$PxVec3T@M@1@AEAV?$PxTransformT@M@1@@Z 00000001801d1530 f   GuCookingConvexHullUtils.obj
 0001:001d0c00       ?computeOBBSIMD@local@@YAXIPEBT__m128@@AEAT2@AEBT2@1@Z 00000001801d1c00 f   GuCookingConvexHullUtils.obj
 0001:001d0fb0       ?convexHullCrop@physx@@YAPEAVConvexHull@1@AEBV21@AEBVPxPlane@1@M@Z 00000001801d1fb0 f   GuCookingConvexHullUtils.obj
 0001:001d1de0       ?findCandidatePlane@ConvexHull@physx@@QEBAHMM@Z 00000001801d2de0 f   GuCookingConvexHullUtils.obj
 0001:001d2230       ?growAndPushBack@?$PxArray@VHalfEdge@ConvexHull@physx@@V?$PxReflectionAllocator@VHalfEdge@ConvexHull@physx@@@3@@physx@@IEAAAEAVHalfEdge@ConvexHull@2@AEBV342@@Z 00000001801d3230 f i GuCookingConvexHullUtils.obj
 0001:001d2370       ?maxNumVertsPerFace@ConvexHull@physx@@QEBAIXZ 00000001801d3370 f   GuCookingConvexHullUtils.obj
 0001:001d2410       ?recreate@?$PxArray@VHalfEdge@ConvexHull@physx@@V?$PxReflectionAllocator@VHalfEdge@ConvexHull@physx@@@3@@physx@@IEAAXI@Z 00000001801d3410 f i GuCookingConvexHullUtils.obj
 0001:001d2520       ?resize@?$PxArray@VHalfEdge@ConvexHull@physx@@V?$PxReflectionAllocator@VHalfEdge@ConvexHull@physx@@@3@@physx@@QEAAXIAEBVHalfEdge@ConvexHull@2@@Z 00000001801d3520 f i GuCookingConvexHullUtils.obj
 0001:001d25e0       ?resize@?$PxArray@VPxPlane@physx@@V?$PxReflectionAllocator@VPxPlane@physx@@@2@@physx@@QEAAXIAEBVPxPlane@2@@Z 00000001801d35e0 f i GuCookingConvexHullUtils.obj
 0001:001d26f0       ??1ConvexHullLib@physx@@UEAA@XZ 00000001801d36f0 f   GuCookingConvexHullLib.obj
 0001:001d2ca0       ?cleanupVertices@ConvexHullLib@physx@@IEAA_NIPEBV?$PxVec3T@M@2@IAEAIPEAV32@@Z 00000001801d3ca0 f   GuCookingConvexHullLib.obj
 0001:001d2de0       ?shiftAndcleanupVertices@ConvexHullLib@physx@@IEAA_NIPEBV?$PxVec3T@M@2@IAEAIPEAV32@@Z 00000001801d3de0 f   GuCookingConvexHullLib.obj
 0001:001d3390       ?shiftConvexMeshDesc@ConvexHullLib@physx@@IEAAXAEAVPxConvexMeshDesc@2@@Z 00000001801d4390 f   GuCookingConvexHullLib.obj
 0001:001d3450       ?swapLargestFace@ConvexHullLib@physx@@IEAAXAEAVPxConvexMeshDesc@2@@Z 00000001801d4450 f   GuCookingConvexHullLib.obj
 0001:001d36d0       ??0ConvexHullBuilder@physx@@QEAA@PEAUConvexHullData@Gu@1@_N@Z 00000001801d46d0 f   GuCookingConvexHullBuilder.obj
 0001:001d3700       ??1ConvexHullBuilder@physx@@QEAA@XZ 00000001801d4700 f   GuCookingConvexHullBuilder.obj
 0001:001d3830       ?calculateVertexMapTable@ConvexHullBuilder@physx@@QEAA_NI_N@Z 00000001801d4830 f   GuCookingConvexHullBuilder.obj
 0001:001d3a00       ?checkHullPolygons@ConvexHullBuilder@physx@@QEBA_NXZ 00000001801d4a00 f   GuCookingConvexHullBuilder.obj
 0001:001d41c0       ?copy@ConvexHullBuilder@physx@@QEAA_NAEAUConvexHullData@Gu@2@AEAI@Z 00000001801d51c0 f   GuCookingConvexHullBuilder.obj
 0001:001d4460       ?createEdgeList@ConvexHullBuilder@physx@@QEAA_N_NI@Z 00000001801d5460 f   GuCookingConvexHullBuilder.obj
 0001:001d4bc0       ?init@ConvexHullBuilder@physx@@QEAA_NIPEBV?$PxVec3T@M@2@PEBIIIPEBUPxHullPolygon@2@_NPEAVConvexHullLib@2@@Z 00000001801d5bc0 f   GuCookingConvexHullBuilder.obj
 0001:001d4fe0       ?save@ConvexHullBuilder@physx@@QEBA_NAEAVPxOutputStream@2@_N@Z 00000001801d5fe0 f   GuCookingConvexHullBuilder.obj
 0001:001d5320       ??0BigConvexDataBuilder@physx@@QEAA@PEBUConvexHullData@Gu@1@PEAVBigConvexData@1@PEBV?$PxVec3T@M@1@@Z 00000001801d6320 f   GuCookingBigConvexDataBuilder.obj
 0001:001d5330       ?computeValencies@BigConvexDataBuilder@physx@@QEAA_NAEBVConvexHullBuilder@2@@Z 00000001801d6330 f   GuCookingBigConvexDataBuilder.obj
 0001:001d5720       ?precompute@BigConvexDataBuilder@physx@@QEAA_NI@Z 00000001801d6720 f   GuCookingBigConvexDataBuilder.obj
 0001:001d6320       ?save@BigConvexDataBuilder@physx@@QEBA_NAEAVPxOutputStream@2@_N@Z 00000001801d7320 f   GuCookingBigConvexDataBuilder.obj
 0001:001d6890       ?buildSDF@physx@@YA_NAEAVPxTriangleMeshDesc@1@AEAV?$PxArray@MV?$PxReflectionAllocator@M@physx@@@1@AEAV?$PxArray@EV?$PxReflectionAllocator@E@physx@@@1@AEAV?$PxArray@IV?$PxReflectionAllocator@I@physx@@@1@@Z 00000001801d7890 f   GuCookingSDF.obj
 0001:001d7910       ?recreate@?$PxArray@EV?$PxReflectionAllocator@E@physx@@@physx@@IEAAXI@Z 00000001801d8910 f i GuCookingSDF.obj
 0001:001d7a10       ?resize@?$PxArray@EV?$PxReflectionAllocator@E@physx@@@physx@@QEAAXIAEBE@Z 00000001801d8a10 f i GuCookingSDF.obj
 0001:001d7aca       __tailMerge_physxfoundation_64_dll 00000001801d8aca     PhysXFoundation_64:PhysXFoundation_64.dll
 0001:001d7b43       __imp_load_PxGetFoundation 00000001801d8b43 f   PhysXFoundation_64:PhysXFoundation_64.dll
 0001:001d7b4f       __imp_load_PxGetBroadcastAllocator 00000001801d8b4f f   PhysXFoundation_64:PhysXFoundation_64.dll
 0001:001d7b5b       __imp_load_?PxAtomicIncrement@physx@@YAHPECH@Z 00000001801d8b5b f   PhysXFoundation_64:PhysXFoundation_64.dll
 0001:001d7b67       __imp_load_??0PxMutexImpl@physx@@QEAA@XZ 00000001801d8b67 f   PhysXFoundation_64:PhysXFoundation_64.dll
 0001:001d7b73       __imp_load_??1PxMutexImpl@physx@@QEAA@XZ 00000001801d8b73 f   PhysXFoundation_64:PhysXFoundation_64.dll
 0001:001d7b7f       __imp_load_?lock@PxMutexImpl@physx@@QEAAXXZ 00000001801d8b7f f   PhysXFoundation_64:PhysXFoundation_64.dll
 0001:001d7b8b       __imp_load_?unlock@PxMutexImpl@physx@@QEAAXXZ 00000001801d8b8b f   PhysXFoundation_64:PhysXFoundation_64.dll
 0001:001d7b97       __imp_load_?getSize@PxMutexImpl@physx@@SAIXZ 00000001801d8b97 f   PhysXFoundation_64:PhysXFoundation_64.dll
 0001:001d7ba3       __imp_load_?PxTransformFromSegment@physx@@YA?AV?$PxTransformT@M@1@AEBV?$PxVec3T@M@1@0PEAM@Z 00000001801d8ba3 f   PhysXFoundation_64:PhysXFoundation_64.dll
 0001:001d7baf       __imp_load_?PxAtomicAdd@physx@@YAHPECHH@Z 00000001801d8baf f   PhysXFoundation_64:PhysXFoundation_64.dll
 0001:001d7bbb       __imp_load_?getDefaultStackSize@PxThreadImpl@physx@@SAIXZ 00000001801d8bbb f   PhysXFoundation_64:PhysXFoundation_64.dll
 0001:001d7bc7       __imp_load_??0PxThreadImpl@physx@@QEAA@P6APEAXPEAX@Z0PEBD@Z 00000001801d8bc7 f   PhysXFoundation_64:PhysXFoundation_64.dll
 0001:001d7bd3       __imp_load_??1PxThreadImpl@physx@@QEAA@XZ 00000001801d8bd3 f   PhysXFoundation_64:PhysXFoundation_64.dll
 0001:001d7bdf       __imp_load_?start@PxThreadImpl@physx@@QEAAXIPEAVPxRunnable@2@@Z 00000001801d8bdf f   PhysXFoundation_64:PhysXFoundation_64.dll
 0001:001d7beb       __imp_load_?waitForQuit@PxThreadImpl@physx@@QEAA_NXZ 00000001801d8beb f   PhysXFoundation_64:PhysXFoundation_64.dll
 0001:001d7bf7       __imp_load_?getSize@PxThreadImpl@physx@@SAIXZ 00000001801d8bf7 f   PhysXFoundation_64:PhysXFoundation_64.dll
 0001:001d7c03       __imp_load_?allocate@PxTempAllocator@physx@@QEAAPEAX_KPEBDH@Z 00000001801d8c03 f   PhysXFoundation_64:PhysXFoundation_64.dll
 0001:001d7c0f       __imp_load_?deallocate@PxTempAllocator@physx@@QEAAXPEAX@Z 00000001801d8c0f f   PhysXFoundation_64:PhysXFoundation_64.dll
 0001:001d7c1b       __imp_load_?PxOptimizeBoundingBox@physx@@YA?AV?$PxVec3T@M@1@AEAV?$PxMat33T@M@1@@Z 00000001801d8c1b f   PhysXFoundation_64:PhysXFoundation_64.dll
 0001:001d7c27       __imp_load_?Pxstrcmp@physx@@YAHPEBD0@Z 00000001801d8c27 f   PhysXFoundation_64:PhysXFoundation_64.dll
 0001:001d7c33       __imp_load_?PxAtomicDecrement@physx@@YAHPECH@Z 00000001801d8c33 f   PhysXFoundation_64:PhysXFoundation_64.dll
 0001:001d7c3f       __imp_load_PxGetProfilerCallback 00000001801d8c3f f   PhysXFoundation_64:PhysXFoundation_64.dll
 0001:001d7c4b       __imp_load_??0PxFPUGuard@physx@@QEAA@XZ 00000001801d8c4b f   PhysXFoundation_64:PhysXFoundation_64.dll
 0001:001d7c57       __imp_load_??1PxFPUGuard@physx@@QEAA@XZ 00000001801d8c57 f   PhysXFoundation_64:PhysXFoundation_64.dll
 0001:001d7c63       __imp_load_?PxDiagonalize@physx@@YA?AV?$PxVec3T@M@1@AEBV?$PxMat33T@M@1@AEAV?$PxQuatT@M@1@@Z 00000001801d8c63 f   PhysXFoundation_64:PhysXFoundation_64.dll
 0001:001d7d5c       ?DloadAcquireSectionWriteAccess@@YAXXZ 00000001801d8d5c f i Delayimp:delayhlp.obj
 0001:001d7e18       ?DloadGetSRWLockFunctionPointers@@YAEXZ 00000001801d8e18 f i Delayimp:delayhlp.obj
 0001:001d7eb8       ?DloadMakePermanentImageCommit@@YAXPEAX_K@Z 00000001801d8eb8 f i Delayimp:delayhlp.obj
 0001:001d7f50       ?DloadObtainSection@@YAPEAXPEAK0@Z 00000001801d8f50 f i Delayimp:delayhlp.obj
 0001:001d7fec       ?DloadProtectSection@@YAXPEAX_KKPEAK@Z 00000001801d8fec f i Delayimp:delayhlp.obj
 0001:001d80e4       ?DloadReleaseSectionWriteAccess@@YAXXZ 00000001801d90e4 f i Delayimp:delayhlp.obj
 0001:001d8190       __delayLoadHelper2         00000001801d9190 f   Delayimp:delayhlp.obj
 0001:001d848c       ??3@YAXPEAX_K@Z            00000001801d948c f   LIBCMT:delete_scalar_size.obj
 0001:001d848c       ??_V@YAXPEAX@Z             00000001801d948c f   LIBCMT:delete_array.obj
 0001:001d8494       ??_Etype_info@@UEAAPEAXI@Z 00000001801d9494 f i LIBCMT:std_type_info_static.obj
 0001:001d8494       ??_Gtype_info@@UEAAPEAXI@Z 00000001801d9494 f i LIBCMT:std_type_info_static.obj
 0001:001d84c0       ?__scrt_initialize_type_info@@YAXXZ 00000001801d94c0 f   LIBCMT:tncleanup.obj
 0001:001d84d0       ?__scrt_uninitialize_type_info@@YAXXZ 00000001801d94d0 f   LIBCMT:tncleanup.obj
 0001:001d84f0       __chkstk                   00000001801d94f0 f   LIBCMT:chkstk.obj
 0001:001d84f0       _alloca_probe              00000001801d94f0 f   LIBCMT:chkstk.obj
 0001:001d8540       __vdecl_sinf4              00000001801d9540 f   LIBCMT:svml_ssinf4_dispatch.obj
 0001:001d8560       __libm_sse2_sincosf_       00000001801d9560 f   LIBCMT:svml_ssinf4_dispatch.obj
 0001:001d85a3       __libm_sse2_sincosf4_      00000001801d95a3 f   LIBCMT:svml_ssinf4_dispatch.obj
 0001:001d85b0       ??3@YAXPEAX@Z              00000001801d95b0 f   LIBCMT:delete_scalar.obj
 0001:001d85b8       __scrt_acquire_startup_lock 00000001801d95b8 f   LIBCMT:utility.obj
 0001:001d85f4       __scrt_dllmain_after_initialize_c 00000001801d95f4 f   LIBCMT:utility.obj
 0001:001d8628       __scrt_dllmain_before_initialize_c 00000001801d9628 f   LIBCMT:utility.obj
 0001:001d8640       __scrt_dllmain_crt_thread_attach 00000001801d9640 f   LIBCMT:utility.obj
 0001:001d8668       __scrt_dllmain_crt_thread_detach 00000001801d9668 f   LIBCMT:utility.obj
 0001:001d8680       __scrt_dllmain_exception_filter 00000001801d9680 f   LIBCMT:utility.obj
 0001:001d86e0       __scrt_dllmain_uninitialize_c 00000001801d96e0 f   LIBCMT:utility.obj
 0001:001d8710       __scrt_dllmain_uninitialize_critical 00000001801d9710 f   LIBCMT:utility.obj
 0001:001d8724       __scrt_initialize_crt      00000001801d9724 f   LIBCMT:utility.obj
 0001:001d8760       __scrt_initialize_onexit_tables 00000001801d9760 f   LIBCMT:utility.obj
 0001:001d87ec       __scrt_is_nonwritable_in_current_image 00000001801d97ec f   LIBCMT:utility.obj
 0001:001d8884       __scrt_release_startup_lock 00000001801d9884 f   LIBCMT:utility.obj
 0001:001d88a8       __scrt_uninitialize_crt    00000001801d98a8 f   LIBCMT:utility.obj
 0001:001d88d4       _onexit                    00000001801d98d4 f   LIBCMT:utility.obj
 0001:001d8910       atexit                     00000001801d9910 f   LIBCMT:utility.obj
 0001:001d8928       __isa_available_init       00000001801d9928 f   LIBCMT:cpu_disp.obj
 0001:001d8ed4       _DllMainCRTStartup         00000001801d9ed4 f   LIBCMT:dll_dllmain.obj
 0001:001d8f20       __sse2_sinf4@@16           00000001801d9f20 f   LIBCMT:svml_ssinf4_sse2.obj
 0001:001d9860       __sse4_sinf4@@16           00000001801da860 f   LIBCMT:svml_ssinf4_sse4.obj
 0001:001d9fd4       __scrt_is_ucrt_dll_in_use  00000001801dafd4 f   LIBCMT:ucrt_detection.obj
 0001:001d9fe0       __crt_debugger_hook        00000001801dafe0 f   LIBCMT:utility_desktop.obj
 0001:001d9fec       __scrt_fastfail            00000001801dafec f   LIBCMT:utility_desktop.obj
 0001:001da138       __security_init_cookie     00000001801db138 f   LIBCMT:gs_support.obj
 0001:001da1e8       __local_stdio_scanf_options 00000001801db1e8 f i LIBCMT:default_local_stdio_options.obj
 0001:001da1f0       __scrt_initialize_default_local_stdio_options 00000001801db1f0 f   LIBCMT:default_local_stdio_options.obj
 0001:001da20c       __scrt_get_dyn_tls_init_callback 00000001801db20c f   LIBCMT:dyn_tls_init.obj
 0001:001da214       _RTC_Initialize            00000001801db214 f   LIBCMT:initsect.obj
 0001:001da250       _RTC_Terminate             00000001801db250 f   LIBCMT:initsect.obj
 0001:001da290       __common_ssin_cout_rare    00000001801db290 f   LIBCMT:svml_s_sin_cout.obj
 0001:001da300       _get_purecall_handler      00000001801db300 f   libvcruntime:purevirt.obj
 0001:001da30c       _purecall                  00000001801db30c f   libvcruntime:purevirt.obj
 0001:001da330       __std_type_info_compare    00000001801db330 f   libvcruntime:std_type_info.obj
 0001:001da348       __std_type_info_destroy_list 00000001801db348 f   libvcruntime:std_type_info.obj
 0001:001da374       __std_type_info_name       00000001801db374 f   libvcruntime:std_type_info.obj
 0001:001da480       strstr                     00000001801db480 f   libvcruntime:strstr.obj
 0001:001da674       __vcrt_initialize          00000001801db674 f   libvcruntime:initialization.obj
 0001:001da69c       __vcrt_thread_attach       00000001801db69c f   libvcruntime:initialization.obj
 0001:001da6b0       __vcrt_thread_detach       00000001801db6b0 f   libvcruntime:initialization.obj
 0001:001da6c0       __vcrt_uninitialize        00000001801db6c0 f   libvcruntime:initialization.obj
 0001:001da6dc       __vcrt_uninitialize_critical 00000001801db6dc f   libvcruntime:initialization.obj
 0001:001da6ec       __C_specific_handler       00000001801db6ec f   libvcruntime:riscchandler.obj
 0001:001da904       __DestructExceptionObject  00000001801db904 f   libvcruntime:ehhelpers.obj
 0001:001da978       ?_CallMemberFunction0@@YAXQEAX0@Z 00000001801db978 f i libvcruntime:ehhelpers.obj
 0001:001da97c       _IsExceptionObjectToBeDestroyed 00000001801db97c f   libvcruntime:ehhelpers.obj
 0001:001da9ac       __AdjustPointer            00000001801db9ac f   libvcruntime:ehhelpers.obj
 0001:001da9d0       __FrameUnwindFilter        00000001801db9d0 f   libvcruntime:ehhelpers.obj
 0001:001daa38       __std_terminate            00000001801dba38 f   libvcruntime:ehhelpers.obj
 0001:001daa44       ??$?0$00@DName@@QEAA@PEAVUnDecorator@@PEBDU?$StringLifeSelector@$00@@@Z 00000001801dba44 f i libvcruntime:undname.obj
 0001:001daa90       ??$?0$01@DName@@QEAA@PEAVUnDecorator@@PEBDU?$StringLifeSelector@$01@@@Z 00000001801dba90 f i libvcruntime:undname.obj
 0001:001daa90       ??$?0$0A@@DName@@QEAA@PEAVUnDecorator@@PEBDU?$StringLifeSelector@$0A@@@@Z 00000001801dba90 f i libvcruntime:undname.obj
 0001:001daadc       ??$?0$01@pcharNode@@QEAA@PEBDHU?$StringLifeSelector@$01@@AEAV_HeapManager@@@Z 00000001801dbadc f i libvcruntime:undname.obj
 0001:001daadc       ??$?0$0A@@pcharNode@@QEAA@PEBDHU?$StringLifeSelector@$0A@@@AEAV_HeapManager@@@Z 00000001801dbadc f i libvcruntime:undname.obj
 0001:001dab44       ??$append@VDNameNode@@@DName@@AEAAXPEBVDNameNode@@@Z 00000001801dbb44 f i libvcruntime:undname.obj
 0001:001dab44       ??$append@VDNameStatusNode@@@DName@@AEAAXPEBVDNameStatusNode@@@Z 00000001801dbb44 f i libvcruntime:undname.obj
 0001:001dab44       ??$append@VcharNode@@@DName@@AEAAXPEBVcharNode@@@Z 00000001801dbb44 f i libvcruntime:undname.obj
 0001:001dab44       ??$append@VpcharNode@@@DName@@AEAAXPEBVpcharNode@@@Z 00000001801dbb44 f i libvcruntime:undname.obj
 0001:001dabac       ??$doPchar@$00@DName@@AEAAXPEBDH@Z 00000001801dbbac f i libvcruntime:undname.obj
 0001:001dac48       ??$doPchar@$01@DName@@AEAAXPEBDH@Z 00000001801dbc48 f i libvcruntime:undname.obj
 0001:001dac48       ??$doPchar@$0A@@DName@@AEAAXPEBDH@Z 00000001801dbc48 f i libvcruntime:undname.obj
 0001:001dad00       ??0DName@@QEAA@PEAVUnDecorator@@AEAPEBDD@Z 00000001801dbd00 f   libvcruntime:undname.obj
 0001:001dadc4       ??0DName@@QEAA@PEAVUnDecorator@@AEBUStringLiteral@@@Z 00000001801dbdc4 f   libvcruntime:undname.obj
 0001:001dadfc       ??0DName@@QEAA@PEAVUnDecorator@@D@Z 00000001801dbdfc f   libvcruntime:undname.obj
 0001:001dae28       ??0DName@@QEAA@PEAVUnDecorator@@PEAV0@@Z 00000001801dbe28 f   libvcruntime:undname.obj
 0001:001daeb0       ??0DName@@QEAA@PEAVUnDecorator@@W4DNameStatus@@@Z 00000001801dbeb0 f   libvcruntime:undname.obj
 0001:001daee4       ??0DName@@QEAA@PEAVUnDecorator@@_J@Z 00000001801dbee4 f   libvcruntime:undname.obj
 0001:001daf90       ??0DName@@QEAA@PEAVUnDecorator@@_K@Z 00000001801dbf90 f   libvcruntime:undname.obj
 0001:001db01c       ??0DNameNode@@IEAA@XZ      00000001801dc01c f i libvcruntime:undname.obj
 0001:001db02c       ??0UnDecorator@@QEAA@PEBDP6APEADJ@ZKP6APEAX_K@ZP6AXPEAX@Z@Z 00000001801dc02c f i libvcruntime:undname.obj
 0001:001db11c       ??2@YAPEAX_KAEAV_HeapManager@@H@Z 00000001801dc11c f   libvcruntime:undname.obj
 0001:001db144       ??4DName@@QEAAAEAV0@AEBUStringLiteral@@@Z 00000001801dc144 f   libvcruntime:undname.obj
 0001:001db170       ??AReplicator@@QEBA?AVDName@@H@Z 00000001801dc170 f   libvcruntime:undname.obj
 0001:001db1cc       ??HDName@@QEBA?AV0@AEBUStringLiteral@@@Z 00000001801dc1cc f   libvcruntime:undname.obj
 0001:001db200       ??HDName@@QEBA?AV0@AEBV0@@Z 00000001801dc200 f   libvcruntime:undname.obj
 0001:001db234       ??HDName@@QEBA?AV0@D@Z     00000001801dc234 f   libvcruntime:undname.obj
 0001:001db268       ??HDName@@QEBA?AV0@W4DNameStatus@@@Z 00000001801dc268 f   libvcruntime:undname.obj
 0001:001db29c       ??YDName@@QEAAAEAV0@AEBUStringLiteral@@@Z 00000001801dc29c f   libvcruntime:undname.obj
 0001:001db314       ??YDName@@QEAAAEAV0@AEBV0@@Z 00000001801dc314 f   libvcruntime:undname.obj
 0001:001db3cc       ??YDName@@QEAAAEAV0@D@Z    00000001801dc3cc f   libvcruntime:undname.obj
 0001:001db444       ??YDName@@QEAAAEAV0@W4DNameStatus@@@Z 00000001801dc444 f   libvcruntime:undname.obj
 0001:001db4b0       ??YReplicator@@QEAAAEAV0@AEBVDName@@@Z 00000001801dc4b0 f   libvcruntime:undname.obj
 0001:001db514       ?UScore@UnDecorator@@QEAA?AUStringLiteral@@W4Tokens@@@Z 00000001801dc514 f   libvcruntime:undname.obj
 0001:001db550       ?composeDeclaration@UnDecorator@@AEAA?AVDName@@AEBV2@@Z 00000001801dc550 f i libvcruntime:undname.obj
 0001:001dc764       ?doPchar@DName@@AEAAXD@Z   00000001801dd764 f   libvcruntime:undname.obj
 0001:001dc7bc       ?getAddressOf@UnDecorator@@AEAA?AVDName@@XZ 00000001801dd7bc f   libvcruntime:undname.obj
 0001:001dc85c       ?getArgumentList@UnDecorator@@AEAA?AVDName@@XZ 00000001801dd85c f   libvcruntime:undname.obj
 0001:001dca08       ?getArgumentTypes@UnDecorator@@AEAA?AVDName@@XZ 00000001801dda08 f   libvcruntime:undname.obj
 0001:001dcb74       ?getArrayAccess@UnDecorator@@AEAA?AVDName@@XZ 00000001801ddb74 f   libvcruntime:undname.obj
 0001:001dcc24       ?getArrayObject@UnDecorator@@AEAA?AVDName@@XZ 00000001801ddc24 f   libvcruntime:undname.obj
 0001:001dcd0c       ?getArrayType@UnDecorator@@AEAA?AVDName@@AEBV2@@Z 00000001801ddd0c f i libvcruntime:undname.obj
 0001:001dcf88       ?getBasedType@UnDecorator@@AEAA?AVDName@@XZ 00000001801ddf88 f   libvcruntime:undname.obj
 0001:001dd09c       ?getBasicDataType@UnDecorator@@AEAA?AVDName@@AEBV2@@Z 00000001801de09c f   libvcruntime:undname.obj
 0001:001dd7e0       ?getCallingConvention@UnDecorator@@AEAA?AVDName@@XZ 00000001801de7e0 f   libvcruntime:undname.obj
 0001:001dd920       ?getDataIndirectType@UnDecorator@@AEAA?AVDName@@AEBV2@W4IndirectionKind@@0H@Z 00000001801de920 f   libvcruntime:undname.obj
 0001:001de3e0       ?getDataType@UnDecorator@@AEAA?AVDName@@PEAV2@@Z 00000001801df3e0 f   libvcruntime:undname.obj
 0001:001de524       ?getDecoratedName@UnDecorator@@AEAA?AVDName@@XZ 00000001801df524 f   libvcruntime:undname.obj
 0001:001de860       ?getDimension@UnDecorator@@AEAA?AVDName@@_N@Z 00000001801df860 f   libvcruntime:undname.obj
 0001:001de9c8       ?getDispatchTarget@UnDecorator@@AEAA?AVDName@@XZ 00000001801df9c8 f   libvcruntime:undname.obj
 0001:001dea40       ?getECSUDataType@UnDecorator@@AEAA?AVDName@@XZ 00000001801dfa40 f   libvcruntime:undname.obj
 0001:001dec80       ?getEnumType@UnDecorator@@AEAA?AVDName@@XZ 00000001801dfc80 f i libvcruntime:undname.obj
 0001:001dede0       ?getExtendedDataIndirectType@UnDecorator@@AEAA?AVDName@@AEAW4IndirectionKind@@AEA_NH@Z 00000001801dfde0 f   libvcruntime:undname.obj
 0001:001df050       ?getExternalDataType@UnDecorator@@AEAA?AVDName@@AEBV2@@Z 00000001801e0050 f i libvcruntime:undname.obj
 0001:001df14c       ?getFloatingPoint@UnDecorator@@AEAA?AVDName@@H@Z 00000001801e014c f   libvcruntime:undname.obj
 0001:001df2b0       ?getFunctionIndirectType@UnDecorator@@AEAA?AVDName@@AEBV2@@Z 00000001801e02b0 f   libvcruntime:undname.obj
 0001:001df844       ?getLastChar@DNameStatusNode@@UEBADXZ 00000001801e0844 f i libvcruntime:undname.obj
 0001:001df850       ?getLastChar@charNode@@UEBADXZ 00000001801e0850 f i libvcruntime:undname.obj
 0001:001df854       ?getLastChar@pDNameNode@@UEBADXZ 00000001801e0854 f i libvcruntime:undname.obj
 0001:001df880       ?getLastChar@pairNode@@UEBADXZ 00000001801e0880 f i libvcruntime:undname.obj
 0001:001df8b8       ?getLastChar@pcharNode@@UEBADXZ 00000001801e08b8 f i libvcruntime:undname.obj
 0001:001df8cc       ?getMemberAccess@UnDecorator@@AEAA?AVDName@@XZ 00000001801e08cc f   libvcruntime:undname.obj
 0001:001df978       ?getMemoryWithBuffer@_HeapManager@@QEAAPEAX_K@Z 00000001801e0978 f   libvcruntime:undname.obj
 0001:001dfa08       ?getNoexcept@UnDecorator@@AEAA?AVDName@@XZ 00000001801e0a08 f   libvcruntime:undname.obj
 0001:001dfa7c       ?getNumberOfDimensions@UnDecorator@@AEAAHXZ 00000001801e0a7c f   libvcruntime:undname.obj
 0001:001dfae8       ?getOperatorName@UnDecorator@@AEAA?AVDName@@_NPEA_N@Z 00000001801e0ae8 f i libvcruntime:undname.obj
 0001:001e0690       ?getPointerToMember@UnDecorator@@AEAA?AVDName@@XZ 00000001801e1690 f   libvcruntime:undname.obj
 0001:001e07a0       ?getPrimaryDataType@UnDecorator@@AEAA?AVDName@@AEBV2@@Z 00000001801e17a0 f   libvcruntime:undname.obj
 0001:001e0ab8       ?getPtrRefDataType@UnDecorator@@AEAA?AVDName@@AEBV2@H@Z 00000001801e1ab8 f   libvcruntime:undname.obj
 0001:001e0cb8       ?getPtrRefType@UnDecorator@@AEAA?AVDName@@AEBV2@0W4IndirectionKind@@@Z 00000001801e1cb8 f   libvcruntime:undname.obj
 0001:001e0e24       ?getRestrictionSpec@UnDecorator@@AEAA?AVDName@@XZ 00000001801e1e24 f   libvcruntime:undname.obj
 0001:001e1084       ?getReturnType@UnDecorator@@AEAA?AVDName@@PEAV2@@Z 00000001801e2084 f   libvcruntime:undname.obj
 0001:001e10c0       ?getScope@UnDecorator@@AEAA?AVDName@@XZ 00000001801e20c0 f   libvcruntime:undname.obj
 0001:001e1588       ?getScopedName@UnDecorator@@AEAA?AVDName@@XZ 00000001801e2588 f   libvcruntime:undname.obj
 0001:001e16fc       ?getSignedDimension@UnDecorator@@AEAA?AVDName@@XZ 00000001801e26fc f   libvcruntime:undname.obj
 0001:001e1780       ?getString@DNameStatusNode@@UEBAPEADPEAD0@Z 00000001801e2780 f i libvcruntime:undname.obj
 0001:001e180c       ?getString@charNode@@UEBAPEADPEAD0@Z 00000001801e280c f i libvcruntime:undname.obj
 0001:001e1820       ?getString@pDNameNode@@UEBAPEADPEAD0@Z 00000001801e2820 f i libvcruntime:undname.obj
 0001:001e1850       ?getString@pairNode@@UEBAPEADPEAD0@Z 00000001801e2850 f i libvcruntime:undname.obj
 0001:001e189c       ?getString@pcharNode@@UEBAPEADPEAD0@Z 00000001801e289c f i libvcruntime:undname.obj
 0001:001e18d8       ?getStringEncoding@UnDecorator@@AEAA?AVDName@@W4PrefixKind@@H@Z 00000001801e28d8 f   libvcruntime:undname.obj
 0001:001e1a08       ?getStringObject@UnDecorator@@AEAA?AVDName@@XZ 00000001801e2a08 f   libvcruntime:undname.obj
 0001:001e1ab0       ?getSymbolName@UnDecorator@@AEAA?AVDName@@XZ 00000001801e2ab0 f i libvcruntime:undname.obj
 0001:001e1b00       ?getTemplateArgumentList@UnDecorator@@AEAA?AVDName@@XZ 00000001801e2b00 f   libvcruntime:undname.obj
 0001:001e1d64       ?getTemplateName@UnDecorator@@AEAA?AVDName@@_N@Z 00000001801e2d64 f   libvcruntime:undname.obj
 0001:001e207c       ?getTemplateNonTypeArgument@UnDecorator@@AEAA?AVDName@@XZ 00000001801e307c f   libvcruntime:undname.obj
 0001:001e2520       ?getTemplateTypeArgument@UnDecorator@@AEAA?AVDName@@XZ 00000001801e3520 f   libvcruntime:undname.obj
 0001:001e269c       ?getThrowTypes@UnDecorator@@AEAA?AVDName@@XZ 00000001801e369c f   libvcruntime:undname.obj
 0001:001e26c8       ?getTypeEncoding@UnDecorator@@AEAAHXZ 00000001801e36c8 f i libvcruntime:undname.obj
 0001:001e2a94       ?getUndecoratedName@UnDecorator@@QEAAPEADPEADH@Z 00000001801e3a94 f i libvcruntime:undname.obj
 0001:001e2bd0       ?getUnionObject@UnDecorator@@AEAA?AVDName@@XZ 00000001801e3bd0 f   libvcruntime:undname.obj
 0001:001e2cc0       ?getVCallThunkType@UnDecorator@@AEAA?AVDName@@XZ 00000001801e3cc0 f i libvcruntime:undname.obj
 0001:001e2d34       ?getValue@UnDecorator@@AEAA?AV?$optional@_K@std@@XZ 00000001801e3d34 f   libvcruntime:undname.obj
 0001:001e2d78       ?getValueObject@UnDecorator@@AEAA?AVDName@@XZ 00000001801e3d78 f   libvcruntime:undname.obj
 0001:001e2f18       ?getVdispMapType@UnDecorator@@AEAA?AVDName@@AEBV2@@Z 00000001801e3f18 f i libvcruntime:undname.obj
 0001:001e2fb0       ?getVfTableType@UnDecorator@@AEAA?AVDName@@AEBV2@@Z 00000001801e3fb0 f i libvcruntime:undname.obj
 0001:001e31ec       ?getZName@UnDecorator@@AEAA?AVDName@@_N0@Z 00000001801e41ec f   libvcruntime:undname.obj
 0001:001e34e8       ?length@pDNameNode@@UEBAHXZ 00000001801e44e8 f i libvcruntime:undname.obj
 0001:001e3510       ?length@pairNode@@UEBAHXZ  00000001801e4510 f i libvcruntime:undname.obj
 0001:001e3564       ?make@DNameStatusNode@@SAPEBV1@W4DNameStatus@@@Z 00000001801e4564 f i libvcruntime:undname.obj
 0001:001e3584       ?parseDecoratedName@UnDecorator@@AEAA?AVDName@@XZ 00000001801e4584 f   libvcruntime:undname.obj
 0001:001e36b8       ?raw_length@pDNameNode@@UEBAHXZ 00000001801e46b8 f i libvcruntime:undname.obj
 0001:001e36bc       ?raw_length@pairNode@@UEBAHXZ 00000001801e46bc f i libvcruntime:undname.obj
 0001:001e3718       __unDName                  00000001801e4718 f   libvcruntime:undname.obj
 0001:001e3744       __unDNameEx                00000001801e4744 f   libvcruntime:undname.obj
 0001:001e3820       snprintf                   00000001801e4820 f i libvcruntime:undname.obj
 0001:001e387c       sprintf_s                  00000001801e487c f i libvcruntime:undname.obj
 0001:001e38d4       __vcrt_freefls             00000001801e48d4 f   libvcruntime:per_thread_data.obj
 0001:001e38f4       __vcrt_freeptd_for_this_thread 00000001801e48f4 f   libvcruntime:per_thread_data.obj
 0001:001e393c       __vcrt_getptd              00000001801e493c f   libvcruntime:per_thread_data.obj
 0001:001e3958       __vcrt_getptd_noexit       00000001801e4958 f   libvcruntime:per_thread_data.obj
 0001:001e3a24       __vcrt_initialize_ptd      00000001801e4a24 f   libvcruntime:per_thread_data.obj
 0001:001e3a6c       __vcrt_uninitialize_ptd    00000001801e4a6c f   libvcruntime:per_thread_data.obj
 0001:001e3a94       __vcrt_initialize_locks    00000001801e4a94 f   libvcruntime:locks.obj
 0001:001e3adc       __vcrt_lock                00000001801e4adc f   libvcruntime:locks.obj
 0001:001e3af8       __vcrt_uninitialize_locks  00000001801e4af8 f   libvcruntime:locks.obj
 0001:001e3b30       __vcrt_unlock              00000001801e4b30 f   libvcruntime:locks.obj
 0001:001e3b80       _NLG_Notify                00000001801e4b80 f   libvcruntime:notify.obj
 0001:001e3ba0       __NLG_Dispatch2            00000001801e4ba0 f   libvcruntime:notify.obj
 0001:001e3bb0       __NLG_Return2              00000001801e4bb0 f   libvcruntime:notify.obj
 0001:001e3bb4       __except_validate_context_record 00000001801e4bb4 f   libvcruntime:jbcxrval.obj
 0001:001e3bec       ??$_CallSETranslator@V__FrameHandler3@@@@YAHPEAUEHExceptionRecord@@PEA_KPEAU_CONTEXT@@PEAU_xDISPATCHER_CONTEXT@@PEBU_s_FuncInfo@@K1H@Z 00000001801e4bec f i libvcruntime:risctrnsctrl.obj
 0001:001e3c40       ??$_CallSETranslator@V__FrameHandler4@@@@YAHPEAUEHExceptionRecord@@PEA_KPEAU_CONTEXT@@PEAU_xDISPATCHER_CONTEXT@@PEAUFuncInfo4@FH4@@K1H@Z 00000001801e4c40 f i libvcruntime:risctrnsctrl.obj
 0001:001e3c94       ?CatchTryBlock@__FrameHandler3@@SAPEBU_s_TryBlockMapEntry@@PEBU_s_FuncInfo@@H@Z 00000001801e4c94 f   libvcruntime:risctrnsctrl.obj
 0001:001e3cf8       ?DecompFuncInfo@FH4@@YA_JPEAEAEAUFuncInfo4@1@_KH_N@Z 00000001801e4cf8 f i libvcruntime:risctrnsctrl.obj
 0001:001e3e24       ?ExecutionInCatch@__FrameHandler3@@SA_NPEAU_xDISPATCHER_CONTEXT@@PEBU_s_FuncInfo@@@Z 00000001801e4e24 f   libvcruntime:risctrnsctrl.obj
 0001:001e3e50       ?ExecutionInCatch@__FrameHandler4@@SA_NPEAU_xDISPATCHER_CONTEXT@@PEAUFuncInfo4@FH4@@@Z 00000001801e4e50 f   libvcruntime:risctrnsctrl.obj
 0001:001e3e58       ?FrameUnwindToEmptyState@__FrameHandler3@@SAXPEA_KPEAU_xDISPATCHER_CONTEXT@@PEBU_s_FuncInfo@@@Z 00000001801e4e58 f   libvcruntime:risctrnsctrl.obj
 0001:001e3ebc       ?FrameUnwindToEmptyState@__FrameHandler4@@SAXPEA_KPEAU_xDISPATCHER_CONTEXT@@PEAUFuncInfo4@FH4@@@Z 00000001801e4ebc f   libvcruntime:risctrnsctrl.obj
 0001:001e3ef0       ?GetEstablisherFrame@__FrameHandler3@@SAPEA_KPEA_KPEAU_xDISPATCHER_CONTEXT@@PEBU_s_FuncInfo@@0@Z 00000001801e4ef0 f   libvcruntime:risctrnsctrl.obj
 0001:001e3fd8       ?GetEstablisherFrame@__FrameHandler4@@SAPEA_KPEA_KPEAU_xDISPATCHER_CONTEXT@@PEAUFuncInfo4@FH4@@0@Z 00000001801e4fd8 f   libvcruntime:risctrnsctrl.obj
 0001:001e3ffc       ?GetRangeOfTrysToCheck@__FrameHandler3@@SA?AU?$pair@Viterator@TryBlockMap@__FrameHandler3@@V123@@std@@AEAVTryBlockMap@1@HPEAU_xDISPATCHER_CONTEXT@@PEBU_s_FuncInfo@@H@Z 00000001801e4ffc f   libvcruntime:risctrnsctrl.obj
 0001:001e4134       ?GetRangeOfTrysToCheck@__FrameHandler4@@SA?AU?$pair@Viterator@TryBlockMap4@FH4@@V123@@std@@AEAVTryBlockMap4@FH4@@HPEAU_xDISPATCHER_CONTEXT@@PEAUFuncInfo4@5@H@Z 00000001801e5134 f   libvcruntime:risctrnsctrl.obj
 0001:001e42b4       ?UnwindNestedFrames@__FrameHandler3@@SAXPEA_KPEAUEHExceptionRecord@@PEAU_CONTEXT@@0PEAXPEBU_s_FuncInfo@@HHPEBU_s_HandlerType@@PEAU_xDISPATCHER_CONTEXT@@E@Z 00000001801e52b4 f   libvcruntime:risctrnsctrl.obj
 0001:001e43b8       ?UnwindNestedFrames@__FrameHandler4@@SAXPEA_KPEAUEHExceptionRecord@@PEAU_CONTEXT@@0PEAXPEAUFuncInfo4@FH4@@HHPEAUHandlerType4@5@PEAU_xDISPATCHER_CONTEXT@@E@Z 00000001801e53b8 f   libvcruntime:risctrnsctrl.obj
 0001:001e44d8       ?setBuffer@TryBlockMap4@FH4@@QEAAXViterator@12@@Z 00000001801e54d8 f i libvcruntime:risctrnsctrl.obj
 0001:001e46c4       _CreateFrameInfo           00000001801e56c4 f   libvcruntime:risctrnsctrl.obj
 0001:001e4700       _FindAndUnlinkFrame        00000001801e5700 f   libvcruntime:risctrnsctrl.obj
 0001:001e4754       _GetImageBase              00000001801e5754 f   libvcruntime:risctrnsctrl.obj
 0001:001e4768       _GetThrowImageBase         00000001801e5768 f   libvcruntime:risctrnsctrl.obj
 0001:001e477c       _SetImageBase              00000001801e577c f   libvcruntime:risctrnsctrl.obj
 0001:001e4794       _SetThrowImageBase         00000001801e5794 f   libvcruntime:risctrnsctrl.obj
 0001:001e47ac       __CxxFrameHandler3         00000001801e57ac f   libvcruntime:risctrnsctrl.obj
 0001:001e4834       __CxxFrameHandler4         00000001801e5834 f   libvcruntime:risctrnsctrl.obj
 0001:001e4a4c       __vcrt_FlsAlloc            00000001801e5a4c f   libvcruntime:winapi_downlevel.obj
 0001:001e4a94       __vcrt_FlsFree             00000001801e5a94 f   libvcruntime:winapi_downlevel.obj
 0001:001e4adc       __vcrt_FlsGetValue         00000001801e5adc f   libvcruntime:winapi_downlevel.obj
 0001:001e4b24       __vcrt_FlsSetValue         00000001801e5b24 f   libvcruntime:winapi_downlevel.obj
 0001:001e4b78       __vcrt_InitializeCriticalSectionEx 00000001801e5b78 f   libvcruntime:winapi_downlevel.obj
 0001:001e4bdc       ?GetCurrentState@__FrameHandler3@@SAHPEA_KPEAU_xDISPATCHER_CONTEXT@@PEBU_s_FuncInfo@@@Z 00000001801e5bdc f   libvcruntime:ehstate.obj
 0001:001e4c04       ?GetUnwindTryBlock@__FrameHandler3@@SAHPEA_KPEAU_xDISPATCHER_CONTEXT@@PEBU_s_FuncInfo@@@Z 00000001801e5c04 f   libvcruntime:ehstate.obj
 0001:001e4c30       ?SetState@__FrameHandler3@@SAXPEA_KPEBU_s_FuncInfo@@H@Z 00000001801e5c30 f   libvcruntime:ehstate.obj
 0001:001e4c3c       ?SetUnwindTryBlock@__FrameHandler3@@SAXPEA_KPEAU_xDISPATCHER_CONTEXT@@PEBU_s_FuncInfo@@H@Z 00000001801e5c3c f   libvcruntime:ehstate.obj
 0001:001e4c78       ?StateFromControlPc@__FrameHandler3@@SAHPEBU_s_FuncInfo@@PEAU_xDISPATCHER_CONTEXT@@@Z 00000001801e5c78 f   libvcruntime:ehstate.obj
 0001:001e4c80       ?StateFromControlPc@__FrameHandler4@@SAHPEAUFuncInfo4@FH4@@PEAU_xDISPATCHER_CONTEXT@@@Z 00000001801e5c80 f   libvcruntime:ehstate.obj
 0001:001e4c88       ?StateFromIp@__FrameHandler3@@SAHPEBU_s_FuncInfo@@PEAU_xDISPATCHER_CONTEXT@@_K@Z 00000001801e5c88 f   libvcruntime:ehstate.obj
 0001:001e4cf0       ?StateFromIp@__FrameHandler4@@SAHPEAUFuncInfo4@FH4@@PEAU_xDISPATCHER_CONTEXT@@_K@Z 00000001801e5cf0 f   libvcruntime:ehstate.obj
 0001:001e6494       ??$TypeMatchHelper@V__FrameHandler3@@@@YAHPEBU_s_HandlerType@@PEBU_s_CatchableType@@PEBU_s_ThrowInfo@@@Z 00000001801e7494 f i libvcruntime:frame.obj
 0001:001e65b4       ??$TypeMatchHelper@V__FrameHandler4@@@@YAHPEAUHandlerType4@FH4@@PEBU_s_CatchableType@@PEBU_s_ThrowInfo@@@Z 00000001801e75b4 f i libvcruntime:frame.obj
 0001:001e66f4       ??$__InternalCxxFrameHandler@V__FrameHandler3@@@@YA?AW4_EXCEPTION_DISPOSITION@@PEAUEHExceptionRecord@@PEA_KPEAU_CONTEXT@@PEAU_xDISPATCHER_CONTEXT@@PEBU_s_FuncInfo@@H1E@Z 00000001801e76f4 f i libvcruntime:frame.obj
 0001:001e6924       ??$__InternalCxxFrameHandler@V__FrameHandler4@@@@YA?AW4_EXCEPTION_DISPOSITION@@PEAUEHExceptionRecord@@PEA_KPEAU_CONTEXT@@PEAU_xDISPATCHER_CONTEXT@@PEAUFuncInfo4@FH4@@H1E@Z 00000001801e7924 f i libvcruntime:frame.obj
 0001:001e6bcc       ??$__InternalCxxFrameHandlerWrapper@V__FrameHandler3@@@@YA?AW4_EXCEPTION_DISPOSITION@@PEAUEHExceptionRecord@@PEA_KPEAU_CONTEXT@@PEAU_xDISPATCHER_CONTEXT@@PEBU_s_FuncInfo@@H1E@Z 00000001801e7bcc f i libvcruntime:frame.obj
 0001:001e6bd4       ??$__InternalCxxFrameHandlerWrapper@V__FrameHandler4@@@@YA?AW4_EXCEPTION_DISPOSITION@@PEAUEHExceptionRecord@@PEA_KPEAU_CONTEXT@@PEAU_xDISPATCHER_CONTEXT@@PEAUFuncInfo4@FH4@@H1E@Z 00000001801e7bd4 f i libvcruntime:frame.obj
 0001:001e6c20       ??0HandlerMap4@FH4@@QEAA@PEBUTryBlockMapEntry4@1@_KH@Z 00000001801e7c20 f i libvcruntime:frame.obj
 0001:001e6ca4       ??0TryBlockMap4@FH4@@QEAA@PEBUFuncInfo4@1@_K@Z 00000001801e7ca4 f i libvcruntime:frame.obj
 0001:001e6d88       ??0bad_exception@std@@QEAA@AEBV01@@Z 00000001801e7d88 f i libvcruntime:frame.obj
 0001:001e6dc4       ??0bad_exception@std@@QEAA@XZ 00000001801e7dc4 f i libvcruntime:frame.obj
 0001:001e6de8       ??0exception@std@@QEAA@AEBV01@@Z 00000001801e7de8 f i libvcruntime:frame.obj
 0001:001e6e1c       ??1bad_exception@std@@UEAA@XZ 00000001801e7e1c f i libvcruntime:frame.obj
 0001:001e6e30       ??_Ebad_exception@std@@UEAAPEAXI@Z 00000001801e7e30 f i libvcruntime:frame.obj
 0001:001e6e30       ??_Eexception@std@@UEAAPEAXI@Z 00000001801e7e30 f i libvcruntime:frame.obj
 0001:001e6e30       ??_Gbad_exception@std@@UEAAPEAXI@Z 00000001801e7e30 f i libvcruntime:frame.obj
 0001:001e6e30       ??_Gexception@std@@UEAAPEAXI@Z 00000001801e7e30 f i libvcruntime:frame.obj
 0001:001e6e74       ?CxxCallCatchBlock@__FrameHandler3@@SAPEAXPEAU_EXCEPTION_RECORD@@@Z 00000001801e7e74 f   libvcruntime:frame.obj
 0001:001e7060       ?CxxCallCatchBlock@__FrameHandler4@@SAPEAXPEAU_EXCEPTION_RECORD@@@Z 00000001801e8060 f   libvcruntime:frame.obj
 0001:001e72a0       ?DecompHandler@HandlerMap4@FH4@@AEAAXXZ 00000001801e82a0 f i libvcruntime:frame.obj
 0001:001e74f0       ?FrameUnwindToState@__FrameHandler3@@SAXPEA_KPEAU_xDISPATCHER_CONTEXT@@PEBU_s_FuncInfo@@H@Z 00000001801e84f0 f   libvcruntime:frame.obj
 0001:001e767c       ?FrameUnwindToState@__FrameHandler4@@SAXPEA_KPEAU_xDISPATCHER_CONTEXT@@PEAUFuncInfo4@FH4@@H@Z 00000001801e867c f   libvcruntime:frame.obj
 0001:001e7988       ?GetHandlerSearchState@__FrameHandler3@@SAHPEA_KPEAU_xDISPATCHER_CONTEXT@@PEBU_s_FuncInfo@@@Z 00000001801e8988 f i libvcruntime:frame.obj
 0001:001e7b90       ?ReadEntry@UWMap4@FH4@@AEAAXPEAPEAE@Z 00000001801e8b90 f i libvcruntime:frame.obj
 0001:001e7c30       ?_CallMemberFunction1@@YAXQEAX00@Z 00000001801e8c30 f i libvcruntime:frame.obj
 0001:001e7c3c       ?_CallMemberFunction2@@YAXQEAX00H@Z 00000001801e8c3c f i libvcruntime:frame.obj
 0001:001e7c4c       ?getStartStop@UWMap4@FH4@@QEAAXHHAEAViterator@12@0@Z 00000001801e8c4c f i libvcruntime:frame.obj
 0001:001e7d1c       ?getStateFromIterators@UWMap4@FH4@@SAHAEBViterator@12@H0H0@Z 00000001801e8d1c f i libvcruntime:frame.obj
 0001:001e7dcc       ?what@exception@std@@UEBAPEBDXZ 00000001801e8dcc f i libvcruntime:frame.obj
 0001:001e7e20       _CallSettingFrame          00000001801e8e20 f   libvcruntime:handlers.obj
 0001:001e7e60       _CallSettingFrame_LookupContinuationIndex 00000001801e8e60 f   libvcruntime:handlers.obj
 0001:001e7e90       _CallSettingFrame_NotifyContinuationAddr 00000001801e8e90 f   libvcruntime:handlers.obj
 0001:001e7ec0       _CallSettingFrameEncoded   00000001801e8ec0 f   libvcruntime:handlers.obj
 0001:001e7f08       __std_exception_copy       00000001801e8f08 f   libvcruntime:std_exception.obj
 0001:001e7f88       __std_exception_destroy    00000001801e8f88 f   libvcruntime:std_exception.obj
 0001:001e7fb0       _CxxThrowException         00000001801e8fb0 f   libvcruntime:throw.obj
 0001:001e8060       cosf_sse2                  00000001801e9060 f   libucrt:cosf.obj
 0001:001e8300       cosf                       00000001801e9300 f   libucrt:cosf.obj
 0001:001e8520       sinf_sse2                  00000001801e9520 f   libucrt:sinf.obj
 0001:001e8890       sinf                       00000001801e9890 f   libucrt:sinf.obj
 0001:001e8be0       tanf_sse2                  00000001801e9be0 f   libucrt:tanf.obj
 0001:001e8f00       tanf                       00000001801e9f00 f   libucrt:tanf.obj
 0001:001e91dc       __acrt_initialize_stdio    00000001801ea1dc f   libucrt:_file.obj
 0001:001e92fc       __acrt_iob_func            00000001801ea2fc f   libucrt:_file.obj
 0001:001e9310       __acrt_uninitialize_stdio  00000001801ea310 f   libucrt:_file.obj
 0001:001e936c       _lock_file                 00000001801ea36c f   libucrt:_file.obj
 0001:001e9378       _unlock_file               00000001801ea378 f   libucrt:_file.obj
 0001:001e9574       ??$ensure_buffer_is_big_enough@D@formatting_buffer@__crt_stdio_output@@QEAA_N_KAEAV__crt_cached_ptd_host@@@Z 00000001801ea574 f i libucrt:output.obj
 0001:001e961c       ??$parse_integer@KV?$c_string_character_source@D@__crt_strtox@@$0A@@__crt_strtox@@YAKAEAV__crt_cached_ptd_host@@V?$c_string_character_source@D@0@H_N@Z 00000001801ea61c f i libucrt:output.obj
 0001:001e98d0       ??$type_case_integer@$07@?$output_processor@DV?$stream_output_adapter@D@__crt_stdio_output@@V?$standard_base@DV?$stream_output_adapter@D@__crt_stdio_output@@@2@@__crt_stdio_output@@AEAA_N_N@Z 00000001801ea8d0 f i libucrt:output.obj
 0001:001e98d0       ??$type_case_integer@$07@?$output_processor@DV?$string_output_adapter@D@__crt_stdio_output@@V?$format_validation_base@DV?$string_output_adapter@D@__crt_stdio_output@@@2@@__crt_stdio_output@@AEAA_N_N@Z 00000001801ea8d0 f i libucrt:output.obj
 0001:001e98d0       ??$type_case_integer@$07@?$output_processor@DV?$string_output_adapter@D@__crt_stdio_output@@V?$standard_base@DV?$string_output_adapter@D@__crt_stdio_output@@@2@@__crt_stdio_output@@AEAA_N_N@Z 00000001801ea8d0 f i libucrt:output.obj
 0001:001e9ad4       ??$type_case_integer@$09@?$output_processor@DV?$stream_output_adapter@D@__crt_stdio_output@@V?$standard_base@DV?$stream_output_adapter@D@__crt_stdio_output@@@2@@__crt_stdio_output@@AEAA_N_N@Z 00000001801eaad4 f i libucrt:output.obj
 0001:001e9ad4       ??$type_case_integer@$09@?$output_processor@DV?$string_output_adapter@D@__crt_stdio_output@@V?$format_validation_base@DV?$string_output_adapter@D@__crt_stdio_output@@@2@@__crt_stdio_output@@AEAA_N_N@Z 00000001801eaad4 f i libucrt:output.obj
 0001:001e9ad4       ??$type_case_integer@$09@?$output_processor@DV?$string_output_adapter@D@__crt_stdio_output@@V?$standard_base@DV?$string_output_adapter@D@__crt_stdio_output@@@2@@__crt_stdio_output@@AEAA_N_N@Z 00000001801eaad4 f i libucrt:output.obj
 0001:001e9cd8       ??$type_case_integer@$0BA@@?$output_processor@DV?$stream_output_adapter@D@__crt_stdio_output@@V?$standard_base@DV?$stream_output_adapter@D@__crt_stdio_output@@@2@@__crt_stdio_output@@AEAA_N_N@Z 00000001801eacd8 f i libucrt:output.obj
 0001:001e9cd8       ??$type_case_integer@$0BA@@?$output_processor@DV?$string_output_adapter@D@__crt_stdio_output@@V?$format_validation_base@DV?$string_output_adapter@D@__crt_stdio_output@@@2@@__crt_stdio_output@@AEAA_N_N@Z 00000001801eacd8 f i libucrt:output.obj
 0001:001e9cd8       ??$type_case_integer@$0BA@@?$output_processor@DV?$string_output_adapter@D@__crt_stdio_output@@V?$standard_base@DV?$string_output_adapter@D@__crt_stdio_output@@@2@@__crt_stdio_output@@AEAA_N_N@Z 00000001801eacd8 f i libucrt:output.obj
 0001:001e9edc       ??$type_case_integer_parse_into_buffer@I$07@?$output_processor@DV?$stream_output_adapter@D@__crt_stdio_output@@V?$standard_base@DV?$stream_output_adapter@D@__crt_stdio_output@@@2@@__crt_stdio_output@@AEAAXI_N@Z 00000001801eaedc f i libucrt:output.obj
 0001:001e9edc       ??$type_case_integer_parse_into_buffer@I$07@?$output_processor@DV?$string_output_adapter@D@__crt_stdio_output@@V?$format_validation_base@DV?$string_output_adapter@D@__crt_stdio_output@@@2@@__crt_stdio_output@@AEAAXI_N@Z 00000001801eaedc f i libucrt:output.obj
 0001:001e9edc       ??$type_case_integer_parse_into_buffer@I$07@?$output_processor@DV?$string_output_adapter@D@__crt_stdio_output@@V?$standard_base@DV?$string_output_adapter@D@__crt_stdio_output@@@2@@__crt_stdio_output@@AEAAXI_N@Z 00000001801eaedc f i libucrt:output.obj
 0001:001e9f4c       ??$type_case_integer_parse_into_buffer@I$09@?$output_processor@DV?$stream_output_adapter@D@__crt_stdio_output@@V?$standard_base@DV?$stream_output_adapter@D@__crt_stdio_output@@@2@@__crt_stdio_output@@AEAAXI_N@Z 00000001801eaf4c f i libucrt:output.obj
 0001:001e9f4c       ??$type_case_integer_parse_into_buffer@I$09@?$output_processor@DV?$string_output_adapter@D@__crt_stdio_output@@V?$format_validation_base@DV?$string_output_adapter@D@__crt_stdio_output@@@2@@__crt_stdio_output@@AEAAXI_N@Z 00000001801eaf4c f i libucrt:output.obj
 0001:001e9f4c       ??$type_case_integer_parse_into_buffer@I$09@?$output_processor@DV?$string_output_adapter@D@__crt_stdio_output@@V?$standard_base@DV?$string_output_adapter@D@__crt_stdio_output@@@2@@__crt_stdio_output@@AEAAXI_N@Z 00000001801eaf4c f i libucrt:output.obj
 0001:001e9ff8       ??$type_case_integer_parse_into_buffer@I$0BA@@?$output_processor@DV?$stream_output_adapter@D@__crt_stdio_output@@V?$standard_base@DV?$stream_output_adapter@D@__crt_stdio_output@@@2@@__crt_stdio_output@@AEAAXI_N@Z 00000001801eaff8 f i libucrt:output.obj
 0001:001e9ff8       ??$type_case_integer_parse_into_buffer@I$0BA@@?$output_processor@DV?$string_output_adapter@D@__crt_stdio_output@@V?$format_validation_base@DV?$string_output_adapter@D@__crt_stdio_output@@@2@@__crt_stdio_output@@AEAAXI_N@Z 00000001801eaff8 f i libucrt:output.obj
 0001:001e9ff8       ??$type_case_integer_parse_into_buffer@I$0BA@@?$output_processor@DV?$string_output_adapter@D@__crt_stdio_output@@V?$standard_base@DV?$string_output_adapter@D@__crt_stdio_output@@@2@@__crt_stdio_output@@AEAAXI_N@Z 00000001801eaff8 f i libucrt:output.obj
 0001:001ea07c       ??$type_case_integer_parse_into_buffer@_K$07@?$output_processor@DV?$stream_output_adapter@D@__crt_stdio_output@@V?$standard_base@DV?$stream_output_adapter@D@__crt_stdio_output@@@2@@__crt_stdio_output@@AEAAX_K_N@Z 00000001801eb07c f i libucrt:output.obj
 0001:001ea07c       ??$type_case_integer_parse_into_buffer@_K$07@?$output_processor@DV?$string_output_adapter@D@__crt_stdio_output@@V?$format_validation_base@DV?$string_output_adapter@D@__crt_stdio_output@@@2@@__crt_stdio_output@@AEAAX_K_N@Z 00000001801eb07c f i libucrt:output.obj
 0001:001ea07c       ??$type_case_integer_parse_into_buffer@_K$07@?$output_processor@DV?$string_output_adapter@D@__crt_stdio_output@@V?$standard_base@DV?$string_output_adapter@D@__crt_stdio_output@@@2@@__crt_stdio_output@@AEAAX_K_N@Z 00000001801eb07c f i libucrt:output.obj
 0001:001ea0ec       ??$type_case_integer_parse_into_buffer@_K$09@?$output_processor@DV?$stream_output_adapter@D@__crt_stdio_output@@V?$standard_base@DV?$stream_output_adapter@D@__crt_stdio_output@@@2@@__crt_stdio_output@@AEAAX_K_N@Z 00000001801eb0ec f i libucrt:output.obj
 0001:001ea0ec       ??$type_case_integer_parse_into_buffer@_K$09@?$output_processor@DV?$string_output_adapter@D@__crt_stdio_output@@V?$format_validation_base@DV?$string_output_adapter@D@__crt_stdio_output@@@2@@__crt_stdio_output@@AEAAX_K_N@Z 00000001801eb0ec f i libucrt:output.obj
 0001:001ea0ec       ??$type_case_integer_parse_into_buffer@_K$09@?$output_processor@DV?$string_output_adapter@D@__crt_stdio_output@@V?$standard_base@DV?$string_output_adapter@D@__crt_stdio_output@@@2@@__crt_stdio_output@@AEAAX_K_N@Z 00000001801eb0ec f i libucrt:output.obj
 0001:001ea19c       ??$type_case_integer_parse_into_buffer@_K$0BA@@?$output_processor@DV?$stream_output_adapter@D@__crt_stdio_output@@V?$standard_base@DV?$stream_output_adapter@D@__crt_stdio_output@@@2@@__crt_stdio_output@@AEAAX_K_N@Z 00000001801eb19c f i libucrt:output.obj
 0001:001ea19c       ??$type_case_integer_parse_into_buffer@_K$0BA@@?$output_processor@DV?$string_output_adapter@D@__crt_stdio_output@@V?$format_validation_base@DV?$string_output_adapter@D@__crt_stdio_output@@@2@@__crt_stdio_output@@AEAAX_K_N@Z 00000001801eb19c f i libucrt:output.obj
 0001:001ea19c       ??$type_case_integer_parse_into_buffer@_K$0BA@@?$output_processor@DV?$string_output_adapter@D@__crt_stdio_output@@V?$standard_base@DV?$string_output_adapter@D@__crt_stdio_output@@@2@@__crt_stdio_output@@AEAAX_K_N@Z 00000001801eb19c f i libucrt:output.obj
 0001:001ea33c       ?crop_zeroes@__crt_stdio_output@@YAXPEADQEAU__crt_locale_pointers@@@Z 00000001801eb33c f i libucrt:output.obj
 0001:001ea3b0       ?get_raw_ptd@__crt_cached_ptd_host@@QEAAPEAU__acrt_ptd@@XZ 00000001801eb3b0 f i libucrt:output.obj
 0001:001ea418       ?parse_int_from_format_string@?$output_processor@DV?$stream_output_adapter@D@__crt_stdio_output@@V?$standard_base@DV?$stream_output_adapter@D@__crt_stdio_output@@@2@@__crt_stdio_output@@AEAA_NQEAH@Z 00000001801eb418 f i libucrt:output.obj
 0001:001ea418       ?parse_int_from_format_string@?$output_processor@DV?$string_output_adapter@D@__crt_stdio_output@@V?$format_validation_base@DV?$string_output_adapter@D@__crt_stdio_output@@@2@@__crt_stdio_output@@AEAA_NQEAH@Z 00000001801eb418 f i libucrt:output.obj
 0001:001ea418       ?parse_int_from_format_string@?$output_processor@DV?$string_output_adapter@D@__crt_stdio_output@@V?$standard_base@DV?$string_output_adapter@D@__crt_stdio_output@@@2@@__crt_stdio_output@@AEAA_NQEAH@Z 00000001801eb418 f i libucrt:output.obj
 0001:001ea4a8       ?process@?$output_processor@DV?$stream_output_adapter@D@__crt_stdio_output@@V?$standard_base@DV?$stream_output_adapter@D@__crt_stdio_output@@@2@@__crt_stdio_output@@QEAAHXZ 00000001801eb4a8 f i libucrt:output.obj
 0001:001ea82c       ?process@?$output_processor@DV?$string_output_adapter@D@__crt_stdio_output@@V?$format_validation_base@DV?$string_output_adapter@D@__crt_stdio_output@@@2@@__crt_stdio_output@@QEAAHXZ 00000001801eb82c f i libucrt:output.obj
 0001:001eab94       ?process@?$output_processor@DV?$string_output_adapter@D@__crt_stdio_output@@V?$standard_base@DV?$string_output_adapter@D@__crt_stdio_output@@@2@@__crt_stdio_output@@QEAAHXZ 00000001801ebb94 f i libucrt:output.obj
 0001:001eaf04       ?state_case_size@?$output_processor@DV?$stream_output_adapter@D@__crt_stdio_output@@V?$standard_base@DV?$stream_output_adapter@D@__crt_stdio_output@@@2@@__crt_stdio_output@@AEAA_NXZ 00000001801ebf04 f i libucrt:output.obj
 0001:001eb08c       ?state_case_size@?$output_processor@DV?$string_output_adapter@D@__crt_stdio_output@@V?$format_validation_base@DV?$string_output_adapter@D@__crt_stdio_output@@@2@@__crt_stdio_output@@AEAA_NXZ 00000001801ec08c f i libucrt:output.obj
 0001:001eb08c       ?state_case_size@?$output_processor@DV?$string_output_adapter@D@__crt_stdio_output@@V?$standard_base@DV?$string_output_adapter@D@__crt_stdio_output@@@2@@__crt_stdio_output@@AEAA_NXZ 00000001801ec08c f i libucrt:output.obj
 0001:001eb214       ?state_case_type@?$output_processor@DV?$stream_output_adapter@D@__crt_stdio_output@@V?$standard_base@DV?$stream_output_adapter@D@__crt_stdio_output@@@2@@__crt_stdio_output@@AEAA_NXZ 00000001801ec214 f i libucrt:output.obj
 0001:001eb74c       ?state_case_type@?$output_processor@DV?$string_output_adapter@D@__crt_stdio_output@@V?$format_validation_base@DV?$string_output_adapter@D@__crt_stdio_output@@@2@@__crt_stdio_output@@AEAA_NXZ 00000001801ec74c f i libucrt:output.obj
 0001:001eb74c       ?state_case_type@?$output_processor@DV?$string_output_adapter@D@__crt_stdio_output@@V?$standard_base@DV?$string_output_adapter@D@__crt_stdio_output@@@2@@__crt_stdio_output@@AEAA_NXZ 00000001801ec74c f i libucrt:output.obj
 0001:001ebbbc       ?type_case_Z@?$output_processor@DV?$stream_output_adapter@D@__crt_stdio_output@@V?$standard_base@DV?$stream_output_adapter@D@__crt_stdio_output@@@2@@__crt_stdio_output@@AEAA_NXZ 00000001801ecbbc f i libucrt:output.obj
 0001:001ebbbc       ?type_case_Z@?$output_processor@DV?$string_output_adapter@D@__crt_stdio_output@@V?$format_validation_base@DV?$string_output_adapter@D@__crt_stdio_output@@@2@@__crt_stdio_output@@AEAA_NXZ 00000001801ecbbc f i libucrt:output.obj
 0001:001ebbbc       ?type_case_Z@?$output_processor@DV?$string_output_adapter@D@__crt_stdio_output@@V?$standard_base@DV?$string_output_adapter@D@__crt_stdio_output@@@2@@__crt_stdio_output@@AEAA_NXZ 00000001801ecbbc f i libucrt:output.obj
 0001:001ebc38       ?type_case_a@?$output_processor@DV?$stream_output_adapter@D@__crt_stdio_output@@V?$standard_base@DV?$stream_output_adapter@D@__crt_stdio_output@@@2@@__crt_stdio_output@@AEAA_NXZ 00000001801ecc38 f i libucrt:output.obj
 0001:001ebc38       ?type_case_a@?$output_processor@DV?$string_output_adapter@D@__crt_stdio_output@@V?$format_validation_base@DV?$string_output_adapter@D@__crt_stdio_output@@@2@@__crt_stdio_output@@AEAA_NXZ 00000001801ecc38 f i libucrt:output.obj
 0001:001ebc38       ?type_case_a@?$output_processor@DV?$string_output_adapter@D@__crt_stdio_output@@V?$standard_base@DV?$string_output_adapter@D@__crt_stdio_output@@@2@@__crt_stdio_output@@AEAA_NXZ 00000001801ecc38 f i libucrt:output.obj
 0001:001ebe94       ?type_case_c_tchar@?$output_processor@DV?$stream_output_adapter@D@__crt_stdio_output@@V?$standard_base@DV?$stream_output_adapter@D@__crt_stdio_output@@@2@@__crt_stdio_output@@AEAA_ND@Z 00000001801ece94 f i libucrt:output.obj
 0001:001ebe94       ?type_case_c_tchar@?$output_processor@DV?$string_output_adapter@D@__crt_stdio_output@@V?$format_validation_base@DV?$string_output_adapter@D@__crt_stdio_output@@@2@@__crt_stdio_output@@AEAA_ND@Z 00000001801ece94 f i libucrt:output.obj
 0001:001ebe94       ?type_case_c_tchar@?$output_processor@DV?$string_output_adapter@D@__crt_stdio_output@@V?$standard_base@DV?$string_output_adapter@D@__crt_stdio_output@@@2@@__crt_stdio_output@@AEAA_ND@Z 00000001801ece94 f i libucrt:output.obj
 0001:001ebf68       ?type_case_n@?$output_processor@DV?$stream_output_adapter@D@__crt_stdio_output@@V?$standard_base@DV?$stream_output_adapter@D@__crt_stdio_output@@@2@@__crt_stdio_output@@AEAA_NXZ 00000001801ecf68 f i libucrt:output.obj
 0001:001ebf68       ?type_case_n@?$output_processor@DV?$string_output_adapter@D@__crt_stdio_output@@V?$format_validation_base@DV?$string_output_adapter@D@__crt_stdio_output@@@2@@__crt_stdio_output@@AEAA_NXZ 00000001801ecf68 f i libucrt:output.obj
 0001:001ebf68       ?type_case_n@?$output_processor@DV?$string_output_adapter@D@__crt_stdio_output@@V?$standard_base@DV?$string_output_adapter@D@__crt_stdio_output@@@2@@__crt_stdio_output@@AEAA_NXZ 00000001801ecf68 f i libucrt:output.obj
 0001:001ec020       ?type_case_s@?$output_processor@DV?$stream_output_adapter@D@__crt_stdio_output@@V?$standard_base@DV?$stream_output_adapter@D@__crt_stdio_output@@@2@@__crt_stdio_output@@AEAA_NXZ 00000001801ed020 f i libucrt:output.obj
 0001:001ec020       ?type_case_s@?$output_processor@DV?$string_output_adapter@D@__crt_stdio_output@@V?$format_validation_base@DV?$string_output_adapter@D@__crt_stdio_output@@@2@@__crt_stdio_output@@AEAA_NXZ 00000001801ed020 f i libucrt:output.obj
 0001:001ec020       ?type_case_s@?$output_processor@DV?$string_output_adapter@D@__crt_stdio_output@@V?$standard_base@DV?$string_output_adapter@D@__crt_stdio_output@@@2@@__crt_stdio_output@@AEAA_NXZ 00000001801ed020 f i libucrt:output.obj
 0001:001ec0c0       ?update_locale_slow@__crt_cached_ptd_host@@AEAAXXZ 00000001801ed0c0 f i libucrt:output.obj
 0001:001ec138       ?validate_stream_is_ansi_if_required@?$__acrt_stdio_char_traits@D@@SA_NQEAU_iobuf@@@Z 00000001801ed138 f i libucrt:output.obj
 0001:001ec1d4       ?write_string@?$string_output_adapter@D@__crt_stdio_output@@QEBAXQEBDHQEAHAEAV__crt_cached_ptd_host@@@Z 00000001801ed1d4 f i libucrt:output.obj
 0001:001ec278       ?write_string_impl@?$output_adapter_common@DV?$stream_output_adapter@D@__crt_stdio_output@@@__crt_stdio_output@@IEBAXQEBDHQEAHAEAV__crt_cached_ptd_host@@@Z 00000001801ed278 f i libucrt:output.obj
 0001:001ec348       __stdio_common_vfprintf    00000001801ed348 f   libucrt:output.obj
 0001:001ec46c       __stdio_common_vsprintf    00000001801ed46c f   libucrt:output.obj
 0001:001ec6c0       __stdio_common_vsprintf_s  00000001801ed6c0 f   libucrt:output.obj
 0001:001ec7e0       _fpclass                   00000001801ed7e0 f   libucrt:ieeemisc.obj
 0001:001ec880       acosf                      00000001801ed880 f   libucrt:acosf.obj
 0001:001ecac0       powf                       00000001801edac0 f   libucrt:powf.obj
 0001:001ed980       atan2f                     00000001801ee980 f   libucrt:atan2f.obj
 0001:001edda0       free                       00000001801eeda0 f   libucrt:free.obj
 0001:001edda8       _seh_filter_dll            00000001801eeda8 f   libucrt:exception_filter.obj
 0001:001eddbc       _seh_filter_exe            00000001801eedbc f   libucrt:exception_filter.obj
 0001:001ee198       __acrt_initialize_thread_local_exit_callback 00000001801ef198 f   libucrt:exit.obj
 0001:001ee1a0       _cexit                     00000001801ef1a0 f   libucrt:exit.obj
 0001:001ee1b0       _exit                      00000001801ef1b0 f   libucrt:exit.obj
 0001:001ee1bc       _is_c_termination_complete 00000001801ef1bc f   libucrt:exit.obj
 0001:001ee384       __acrt_allocate_buffer_for_argv 00000001801ef384 f   libucrt:argv_parsing.obj
 0001:001ee3e4       _configure_narrow_argv     00000001801ef3e4 f   libucrt:argv_parsing.obj
 0001:001ee768       __dcrt_uninitialize_environments_nolock 00000001801ef768 f   libucrt:environment_initialization.obj
 0001:001ee7ac       _initialize_narrow_environment 00000001801ef7ac f   libucrt:environment_initialization.obj
 0001:001eeaf4       _crt_atexit                00000001801efaf4 f   libucrt:onexit.obj
 0001:001eeb04       _execute_onexit_table      00000001801efb04 f   libucrt:onexit.obj
 0001:001eeb48       _initialize_onexit_table   00000001801efb48 f   libucrt:onexit.obj
 0001:001eeb70       _register_onexit_function  00000001801efb70 f   libucrt:onexit.obj
 0001:001eebf0       __acrt_uninitialize_command_line 00000001801efbf0 f   libucrt:argv_data.obj
 0001:001eece8       __acrt_initialize          00000001801efce8 f   libucrt:initialization.obj
 0001:001eecfc       __acrt_thread_attach       00000001801efcfc f   libucrt:initialization.obj
 0001:001eed10       __acrt_thread_detach       00000001801efd10 f   libucrt:initialization.obj
 0001:001eed20       __acrt_uninitialize        00000001801efd20 f   libucrt:initialization.obj
 0001:001eed58       __acrt_uninitialize_critical 00000001801efd58 f   libucrt:initialization.obj
 0001:001eed68       _initterm                  00000001801efd68 f   libucrt:initterm.obj
 0001:001eeda0       _initterm_e                00000001801efda0 f   libucrt:initterm.obj
 0001:001eeddc       terminate                  00000001801efddc f   libucrt:terminate.obj
 0001:001eedfc       abort                      00000001801efdfc f   libucrt:abort.obj
 0001:001eee60       malloc                     00000001801efe60 f   libucrt:malloc.obj
 0001:001eee70       strcpy_s                   00000001801efe70 f   libucrt:strcpy_s.obj
 0001:001eeef0       ??$parse_integer@KV?$c_string_character_source@D@__crt_strtox@@$00@__crt_strtox@@YAKAEAV__crt_cached_ptd_host@@V?$c_string_character_source@D@0@H_N@Z 00000001801efef0 f i libucrt:atox.obj
 0001:001ef1cc       _ischartype_l              00000001801f01cc f i libucrt:atox.obj
 0001:001ef244       atol                       00000001801f0244 f   libucrt:atox.obj
 0001:001ef300       calloc                     00000001801f0300 f   libucrt:calloc.obj
 0001:001ef310       wcsncmp                    00000001801f0310 f   libucrt:wcsncmp.obj
 0001:001ef350       __remainder_piby2d2f_forAsm 00000001801f0350 f   libucrt:remainder_piby2f_forasm.obj
 0001:001ef4a0       __remainder_piby2_fma3     00000001801f04a0 f   libucrt:remainder_piby2_forfma3.obj
 0001:001ef690       __remainder_piby2_fma3_bdl 00000001801f0690 f   libucrt:remainder_piby2_forfma3.obj
 0001:001ef710       _cosf_special              00000001801f0710 f   libucrt:sincos_special.obj
 0001:001ef7a0       _sinf_special              00000001801f07a0 f   libucrt:sincos_special.obj
 0001:001ef830       _tanf_special              00000001801f0830 f   libucrt:sincos_special.obj
 0001:001ef8c0       _clrfp                     00000001801f08c0 f   libucrt:fpctrl.obj
 0001:001ef8e0       _ctrlfp                    00000001801f08e0 f   libucrt:fpctrl.obj
 0001:001ef960       _get_fpcsr                 00000001801f0960 f   libucrt:fpctrl.obj
 0001:001ef960       _get_fpsr                  00000001801f0960 f   libucrt:fpctrl.obj
 0001:001ef970       _set_fpcsr                 00000001801f0970 f   libucrt:fpctrl.obj
 0001:001ef970       _set_fpsr                  00000001801f0970 f   libucrt:fpctrl.obj
 0001:001ef980       _set_statfp                00000001801f0980 f   libucrt:fpctrl.obj
 0001:001ef9a0       _statfp                    00000001801f09a0 f   libucrt:fpctrl.obj
 0001:001ef9b0       __acrt_initialize_fma3     00000001801f09b0 f   libucrt:fma3_available.obj
 0001:001efa70       __remainder_piby2d2f_forC  00000001801f0a70 f   libucrt:remainder_piby2f_forc.obj
 0001:001efbfc       ?get_raw_ptd_noexit@__crt_cached_ptd_host@@QEAAPEAU__acrt_ptd@@XZ 00000001801f0bfc f i libucrt:invalid_parameter.obj
 0001:001efc68       ?value@?$dual_state_global@P6AXPEB_W00I_K@Z@__crt_state_management@@QEAAAEAP6AXPEB_W00I_K@ZAEAV__crt_cached_ptd_host@@@Z 00000001801f0c68 f i libucrt:invalid_parameter.obj
 0001:001efcb4       __acrt_call_reportfault    00000001801f0cb4 f   libucrt:invalid_parameter.obj
 0001:001efe24       __acrt_initialize_invalid_parameter_handler 00000001801f0e24 f   libucrt:invalid_parameter.obj
 0001:001efe2c       _invalid_parameter         00000001801f0e2c f   libucrt:invalid_parameter.obj
 0001:001efec8       _invalid_parameter_internal 00000001801f0ec8 f   libucrt:invalid_parameter.obj
 0001:001eff80       _invalid_parameter_noinfo  00000001801f0f80 f   libucrt:invalid_parameter.obj
 0001:001effa0       _invoke_watson             00000001801f0fa0 f   libucrt:invalid_parameter.obj
 0001:001effe8       __acrt_errno_from_os_error 00000001801f0fe8 f   libucrt:errno.obj
 0001:001f00b8       __acrt_errno_map_os_error  00000001801f10b8 f   libucrt:errno.obj
 0001:001f00e0       __acrt_errno_map_os_error_ptd 00000001801f10e0 f   libucrt:errno.obj
 0001:001f0104       __doserrno                 00000001801f1104 f   libucrt:errno.obj
 0001:001f0128       _errno                     00000001801f1128 f   libucrt:errno.obj
 0001:001f0150       _calloc_base               00000001801f1150 f   libucrt:calloc_base.obj
 0001:001f01d0       _free_base                 00000001801f11d0 f   libucrt:free_base.obj
 0001:001f03dc       __acrt_AppPolicyGetProcessTerminationMethodInternal 00000001801f13dc f   libucrt:winapi_thunks.obj
 0001:001f0438       __acrt_AreFileApisANSI     00000001801f1438 f   libucrt:winapi_thunks.obj
 0001:001f0484       __acrt_FlsAlloc            00000001801f1484 f   libucrt:winapi_thunks.obj
 0001:001f048c       __acrt_FlsFree             00000001801f148c f   libucrt:winapi_thunks.obj
 0001:001f0494       __acrt_FlsGetValue         00000001801f1494 f   libucrt:winapi_thunks.obj
 0001:001f049c       __acrt_FlsGetValue2        00000001801f149c f   libucrt:winapi_thunks.obj
 0001:001f04a8       __acrt_FlsSetValue         00000001801f14a8 f   libucrt:winapi_thunks.obj
 0001:001f04b0       __acrt_InitializeCriticalSectionEx 00000001801f14b0 f   libucrt:winapi_thunks.obj
 0001:001f04b8       __acrt_LCMapStringEx       00000001801f14b8 f   libucrt:winapi_thunks.obj
 0001:001f05ac       __acrt_LocaleNameToLCID    00000001801f15ac f   libucrt:winapi_thunks.obj
 0001:001f0610       __acrt_initialize_winapi_thunks 00000001801f1610 f   libucrt:winapi_thunks.obj
 0001:001f0640       __acrt_tls2_supported      00000001801f1640 f   libucrt:winapi_thunks.obj
 0001:001f0684       __acrt_uninitialize_winapi_thunks 00000001801f1684 f   libucrt:winapi_thunks.obj
 0001:001f06c8       _fcloseall                 00000001801f16c8 f   libucrt:closeall.obj
 0001:001f095c       __acrt_stdio_flush_nolock  00000001801f195c f   libucrt:fflush.obj
 0001:001f09e8       _fflush_nolock             00000001801f19e8 f   libucrt:fflush.obj
 0001:001f0abc       _flushall                  00000001801f1abc f   libucrt:fflush.obj
 0001:001f0ac4       __acrt_stdio_free_buffer_nolock 00000001801f1ac4 f   libucrt:_freebuf.obj
 0001:001f0d10       __acrt_initialize_lowio    00000001801f1d10 f   libucrt:ioinit.obj
 0001:001f0d4c       __acrt_uninitialize_lowio  00000001801f1d4c f   libucrt:ioinit.obj
 0001:001f0d90       _malloc_base               00000001801f1d90 f   libucrt:malloc_base.obj
 0001:001f0df0       strnlen                    00000001801f1df0 f   libucrt:strnlen.obj
 0001:001f0f80       wcsnlen                    00000001801f1f80 f   libucrt:strnlen.obj
 0001:001f1188       __acrt_update_locale_info  00000001801f2188 f   libucrt:locale_update.obj
 0001:001f11bc       __acrt_update_locale_info_explicit 00000001801f21bc f   libucrt:locale_update.obj
 0001:001f11f4       __acrt_update_multibyte_info 00000001801f21f4 f   libucrt:locale_update.obj
 0001:001f1228       __acrt_update_multibyte_info_explicit 00000001801f2228 f   libucrt:locale_update.obj
 0001:001f1d70       __acrt_fp_format           00000001801f2d70 f   libucrt:cvt.obj
 0001:001f2058       _wctomb_internal           00000001801f3058 f   libucrt:wctomb.obj
 0001:001f2208       _mbtowc_internal           00000001801f3208 f   libucrt:mbtowc.obj
 0001:001f2380       ?__mblen_utf8@__crt_mbstring@@YAHPEBD@Z 00000001801f3380 f   libucrt:mbrtoc32.obj
 0001:001f23b8       ?__mbrtoc32_utf8@__crt_mbstring@@YA_KPEA_UPEBD_KPEAU_Mbstatet@@AEAV__crt_cached_ptd_host@@@Z 00000001801f33b8 f   libucrt:mbrtoc32.obj
 0001:001f2578       ?__c16rtomb_utf8@__crt_mbstring@@YA_KPEAD_SPEAU_Mbstatet@@AEAV__crt_cached_ptd_host@@@Z 00000001801f3578 f   libucrt:c16rtomb.obj
 0001:001f261c       ?__mbrtowc_utf8@__crt_mbstring@@YA_KPEA_WPEBD_KPEAU_Mbstatet@@AEAV__crt_cached_ptd_host@@@Z 00000001801f361c f   libucrt:mbrtowc.obj
 0001:001f2664       ?__mbsrtowcs_utf8@__crt_mbstring@@YA_KPEA_WPEAPEBD_KPEAU_Mbstatet@@AEAV__crt_cached_ptd_host@@@Z 00000001801f3664 f   libucrt:mbrtowc.obj
 0001:001f281c       _fileno                    00000001801f381c f   libucrt:fileno.obj
 0001:001f2844       _get_printf_count_output   00000001801f3844 f   libucrt:printf_count_output.obj
 0001:001f285c       _fputc_nolock_internal     00000001801f385c f   libucrt:fputc.obj
 0001:001f2874       __acrt_should_use_temporary_buffer 00000001801f3874 f   libucrt:_sftbuf.obj
 0001:001f28c0       __acrt_stdio_begin_temporary_buffering_nolock 00000001801f38c0 f   libucrt:_sftbuf.obj
 0001:001f2988       __acrt_stdio_end_temporary_buffering_nolock 00000001801f3988 f   libucrt:_sftbuf.obj
 0001:001f2cd8       ?internal_get_ptd_head_slow@@YAPEAU__acrt_ptd@@XZ 00000001801f3cd8 f   libucrt:per_thread_data.obj
 0001:001f2df8       __acrt_freeptd             00000001801f3df8 f   libucrt:per_thread_data.obj
 0001:001f2e48       __acrt_getptd              00000001801f3e48 f   libucrt:per_thread_data.obj
 0001:001f2e64       __acrt_getptd_head         00000001801f3e64 f   libucrt:per_thread_data.obj
 0001:001f2ea8       __acrt_getptd_noexit       00000001801f3ea8 f   libucrt:per_thread_data.obj
 0001:001f2f38       __acrt_getptd_noexit_explicit 00000001801f3f38 f   libucrt:per_thread_data.obj
 0001:001f2f94       __acrt_initialize_ptd      00000001801f3f94 f   libucrt:per_thread_data.obj
 0001:001f2fd8       __acrt_uninitialize_ptd    00000001801f3fd8 f   libucrt:per_thread_data.obj
 0001:001f306c       __acrt_set_locale_changed  00000001801f406c f   libucrt:wsetlocale.obj
 0001:001f3078       __acrt_uninitialize_locale 00000001801f4078 f   libucrt:wsetlocale.obj
 0001:001f31c0       _handle_error              00000001801f41c0 f   libucrt:libm_error.obj
 0001:001f3300       _handle_errorf             00000001801f4300 f   libucrt:libm_error.obj
 0001:001f3440       _handle_nan                00000001801f4440 f   libucrt:libm_error.obj
 0001:001f3460       _handle_nanf               00000001801f4460 f   libucrt:libm_error.obj
 0001:001f3470       acosf_fma                  00000001801f4470 f   libucrt:acosf.obj
 0001:001f3670       _powf_special              00000001801f4670 f   libucrt:pow_special.obj
 0001:001f37e0       atan2f_fma                 00000001801f47e0 f   libucrt:atan2f.obj
 0001:001f3bc0       __acrt_initialize_locks    00000001801f4bc0 f   libucrt:locks.obj
 0001:001f3c08       __acrt_lock                00000001801f4c08 f   libucrt:locks.obj
 0001:001f3c24       __acrt_uninitialize_locks  00000001801f4c24 f   libucrt:locks.obj
 0001:001f3c5c       __acrt_unlock              00000001801f4c5c f   libucrt:locks.obj
 0001:001f3c78       __acrt_app_verifier_enabled 00000001801f4c78 f   libucrt:peb_access.obj
 0001:001f3c94       __acrt_is_secure_process   00000001801f4c94 f   libucrt:peb_access.obj
 0001:001f3cac       __acrt_get_process_end_policy 00000001801f4cac f   libucrt:win_policies.obj
 0001:001f3cf0       ??$__acrt_convert_wcs_mbs_cp@D_WV<lambda_7c9dea7b4ca7285d2cdb541a38da6275>@@U__crt_win32_buffer_internal_dynamic_resizing@@@@YAHQEBDAEAV?$__crt_win32_buffer@_WU__crt_win32_buffer_internal_dynamic_resizing@@@@AEBV<lambda_7c9dea7b4ca7285d2cdb541a38da6275>@@I@Z 00000001801f4cf0 f i libucrt:argv_wildcards.obj
 0001:001f3e90       ??$__acrt_convert_wcs_mbs_cp@_WDV<lambda_d8593a27d1aa8c02be35c86a17d324c4>@@U__crt_win32_buffer_internal_dynamic_resizing@@@@YAHQEB_WAEAV?$__crt_win32_buffer@DU__crt_win32_buffer_internal_dynamic_resizing@@@@AEBV<lambda_d8593a27d1aa8c02be35c86a17d324c4>@@I@Z 00000001801f4e90 f i libucrt:argv_wildcards.obj
 0001:001f475c       ??0_LocaleUpdate@@QEAA@QEAU__crt_locale_pointers@@@Z 00000001801f575c f i libucrt:argv_wildcards.obj
 0001:001f47f8       __acrt_expand_narrow_argv_wildcards 00000001801f57f8 f   libucrt:argv_wildcards.obj
 0001:001f4800       ??$__acrt_convert_wcs_mbs_cp@_WDV<lambda_f788ae46380686e8b737efdd8c720d07>@@U__crt_win32_buffer_no_resizing@@@@YAHQEB_WAEAV?$__crt_win32_buffer@DU__crt_win32_buffer_no_resizing@@@@AEBV<lambda_f788ae46380686e8b737efdd8c720d07>@@I@Z 00000001801f5800 f i libucrt:getmodulefilenamea.obj
 0001:001f491c       __acrt_GetModuleFileNameA  00000001801f591c f   libucrt:getmodulefilenamea.obj
 0001:001f5248       __acrt_initialize_multibyte 00000001801f6248 f   libucrt:mbctype.obj
 0001:001f52a8       __acrt_update_thread_multibyte_data 00000001801f62a8 f   libucrt:mbctype.obj
 0001:001f52c4       _setmbcp_nolock            00000001801f62c4 f   libucrt:mbctype.obj
 0001:001f5600       _ismbblead                 00000001801f6600 f   libucrt:ismbbyte.obj
 0001:001f5614       __acrt_initialize_command_line 00000001801f6614 f   libucrt:argv_data.obj
 0001:001f563c       __acrt_MultiByteToWideChar 00000001801f663c f   libucrt:multibytetowidechar.obj
 0001:001f56cc       __acrt_WideCharToMultiByte 00000001801f66cc f   libucrt:widechartomultibyte.obj
 0001:001f57ac       __dcrt_get_narrow_environment_from_os 00000001801f67ac f   libucrt:get_environment_from_os.obj
 0001:001f58c0       _recalloc_base             00000001801f68c0 f   libucrt:recalloc.obj
 0001:001f5960       _recalloc                  00000001801f6960 f   libucrt:recalloc.obj
 0001:001f5970       _get_heap_handle           00000001801f6970 f   libucrt:heap_handle.obj
 0001:001f5980       __acrt_initialize_heap     00000001801f6980 f   libucrt:heap_handle.obj
 0001:001f59b0       __acrt_uninitialize_heap   00000001801f69b0 f   libucrt:heap_handle.obj
 0001:001f59d0       __acrt_getheap             00000001801f69d0 f   libucrt:heap_handle.obj
 0001:001f59d8       __acrt_execute_initializers 00000001801f69d8 f   libucrt:shared_initialization.obj
 0001:001f5a58       __acrt_execute_uninitializers 00000001801f6a58 f   libucrt:shared_initialization.obj
 0001:001f5aa0       _callnewh                  00000001801f6aa0 f   libucrt:new_handler.obj
 0001:001f5ae0       __acrt_initialize_new_handler 00000001801f6ae0 f   libucrt:new_handler.obj
 0001:001f5af0       _query_new_handler         00000001801f6af0 f   libucrt:new_handler.obj
 0001:001f5b30       _set_new_handler           00000001801f6b30 f   libucrt:new_handler.obj
 0001:001f5b90       ?_set_new_handler@@YAP6AH_K@ZH@Z 00000001801f6b90 f   libucrt:new_handler.obj
 0001:001f5be4       __acrt_get_sigabrt_handler 00000001801f6be4 f   libucrt:signal.obj
 0001:001f5c14       __acrt_initialize_signal_handlers 00000001801f6c14 f   libucrt:signal.obj
 0001:001f5c34       raise                      00000001801f6c34 f   libucrt:signal.obj
 0001:001f5e90       __acrt_has_user_matherr    00000001801f6e90 f   libucrt:matherr.obj
 0001:001f5eb0       __acrt_initialize_user_matherr 00000001801f6eb0 f   libucrt:matherr.obj
 0001:001f5ec0       __acrt_invoke_user_matherr 00000001801f6ec0 f   libucrt:matherr.obj
 0001:001f5ef0       __pctype_func              00000001801f6ef0 f   libucrt:ctype.obj
 0001:001f5f20       _isctype_l                 00000001801f6f20 f   libucrt:isctype.obj
 0001:001f6030       _query_new_mode            00000001801f7030 f   libucrt:new_mode.obj
 0001:001f6040       _set_new_mode              00000001801f7040 f   libucrt:new_mode.obj
 0001:001f606c       __acrt_DownlevelLocaleNameToLCID 00000001801f706c f   libucrt:lcidtoname_downlevel.obj
 0001:001f6238       fclose                     00000001801f7238 f   libucrt:fclose.obj
 0001:001f635c       _commit                    00000001801f735c f   libucrt:commit.obj
 0001:001f6c1c       _write_internal            00000001801f7c1c f   libucrt:write.obj
 0001:001f6d3c       _write_nolock              00000001801f7d3c f   libucrt:write.obj
 0001:001f706c       __acrt_lowio_create_handle_array 00000001801f806c f   libucrt:osfinfo.obj
 0001:001f7114       __acrt_lowio_destroy_handle_array 00000001801f8114 f   libucrt:osfinfo.obj
 0001:001f7164       __acrt_lowio_ensure_fh_exists 00000001801f8164 f   libucrt:osfinfo.obj
 0001:001f720c       __acrt_lowio_lock_fh       00000001801f820c f   libucrt:osfinfo.obj
 0001:001f7234       __acrt_lowio_unlock_fh     00000001801f8234 f   libucrt:osfinfo.obj
 0001:001f725c       _free_osfhnd               00000001801f825c f   libucrt:osfinfo.obj
 0001:001f7318       _get_osfhandle             00000001801f8318 f   libucrt:osfinfo.obj
 0001:001f7390       __acrt_add_locale_ref      00000001801f8390 f   libucrt:locale_refcounting.obj
 0001:001f741c       __acrt_free_locale         00000001801f841c f   libucrt:locale_refcounting.obj
 0001:001f7594       __acrt_locale_add_lc_time_reference 00000001801f8594 f   libucrt:locale_refcounting.obj
 0001:001f75bc       __acrt_locale_free_lc_time_if_unreferenced 00000001801f85bc f   libucrt:locale_refcounting.obj
 0001:001f75f4       __acrt_locale_release_lc_time_reference 00000001801f85f4 f   libucrt:locale_refcounting.obj
 0001:001f761c       __acrt_release_locale_ref  00000001801f861c f   libucrt:locale_refcounting.obj
 0001:001f76c4       __acrt_update_thread_locale_data 00000001801f86c4 f   libucrt:locale_refcounting.obj
 0001:001f7734       _updatetlocinfoEx_nolock   00000001801f8734 f   libucrt:locale_refcounting.obj
 0001:001f786c       __acrt_fp_strflt_to_string 00000001801f886c f   libucrt:_fptostr.obj
 0001:001f7980       ?divide@__crt_strtox@@YA_KAEAUbig_integer@1@AEBU21@@Z 00000001801f8980 f i libucrt:cfout.obj
 0001:001f7e0c       __acrt_fltout              00000001801f8e0c f   libucrt:cfout.obj
 0001:001f9120       fegetround                 00000001801fa120 f   libucrt:fegetround.obj
 0001:001f9134       ?__c32rtomb_utf8@__crt_mbstring@@YA_KPEAD_UPEAU_Mbstatet@@AEAV__crt_cached_ptd_host@@@Z 00000001801fa134 f   libucrt:c32rtomb.obj
 0001:001f91d8       ?reset_and_return@__crt_mbstring@@YA_K_KPEAU_Mbstatet@@@Z 00000001801fa1d8 f   libucrt:common_utf8.obj
 0001:001f91e0       ?return_illegal_sequence@__crt_mbstring@@YA_KPEAU_Mbstatet@@AEAV__crt_cached_ptd_host@@@Z 00000001801fa1e0 f   libucrt:common_utf8.obj
 0001:001f9374       __acrt_stdio_flush_and_write_narrow_nolock 00000001801fa374 f   libucrt:_flsbuf.obj
 0001:001f9440       _isatty                    00000001801fa440 f   libucrt:isatty.obj
 0001:001f94a0       __acrt_locale_free_monetary 00000001801fa4a0 f   libucrt:initmon.obj
 0001:001f95ac       __acrt_locale_free_numeric 00000001801fa5ac f   libucrt:initnum.obj
 0001:001f964c       __acrt_locale_free_time    00000001801fa64c f   libucrt:inittime.obj
 0001:001f9754       __acrt_GetStringTypeA      00000001801fa754 f   libucrt:getstringtypea.obj
 0001:001f98f0       _raise_exc                 00000001801fa8f0 f   libucrt:fpexcept.obj
 0001:001f9920       _raise_exc_ex              00000001801fa920 f   libucrt:fpexcept.obj
 0001:001f9c30       _raise_excf                00000001801fac30 f   libucrt:fpexcept.obj
 0001:001f9c60       _set_errno_from_matherr    00000001801fac60 f   libucrt:fpexcept.obj
 0001:001f9ca0       _handle_nanf_fma           00000001801faca0 f   libucrt:libm_error.obj
 0001:001f9cb0       qsort                      00000001801facb0 f   libucrt:qsort.obj
 0001:001fa050       strncpy_s                  00000001801fb050 f   libucrt:strncpy_s.obj
 0001:001fa220       strpbrk                    00000001801fb220 f   libucrt:strpbrk.obj
 0001:001fa5d8       _mbsdec                    00000001801fb5d8 f   libucrt:mbsdec.obj
 0001:001fa5e0       _mbsdec_l                  00000001801fb5e0 f   libucrt:mbsdec.obj
 0001:001fa9a8       __acrt_LCMapStringA        00000001801fb9a8 f   libucrt:lcmapstringa.obj
 0001:001faa60       _msize_base                00000001801fba60 f   libucrt:msize.obj
 0001:001faaa0       _msize                     00000001801fbaa0 f   libucrt:msize.obj
 0001:001faab0       _realloc_base              00000001801fbab0 f   libucrt:realloc_base.obj
 0001:001fab30       __ascii_wcsnicmp           00000001801fbb30 f   libucrt:wcsnicmp.obj
 0001:001fac10       _close_internal            00000001801fbc10 f   libucrt:close.obj
 0001:001facd4       _close_nolock_internal     00000001801fbcd4 f   libucrt:close.obj
 0001:001fada4       ?__acrt_stdio_free_stream@@YAXV__crt_stdio_stream@@@Z 00000001801fbda4 f   libucrt:stream.obj
 0001:001faf90       _lseeki64                  00000001801fbf90 f   libucrt:lseek.obj
 0001:001fb02c       _lseeki64_nolock_internal  00000001801fc02c f   libucrt:lseek.obj
 0001:001fb034       _putwch_nolock             00000001801fc034 f   libucrt:putwch.obj
 0001:001fb074       _query_app_type            00000001801fc074 f   libucrt:report_runtime_error.obj
 0001:001fb080       _controlfp_s               00000001801fc080 f   libucrt:contrlfp.obj
 0001:001fb0f0       fegetenv                   00000001801fc0f0 f   libucrt:fegetenv.obj
 0001:001fb110       fesetenv                   00000001801fc110 f   libucrt:fesetenv.obj
 0001:001fb180       feholdexcept               00000001801fc180 f   libucrt:feholdexcept.obj
 0001:001fb1e0       ceil                       00000001801fc1e0 f   libucrt:ceil.obj
 0001:001fb2b0       log10                      00000001801fc2b0 f   libucrt:log10.obj
 0001:001fb860       __acrt_fenv_get_common_round_control 00000001801fc860 f   libucrt:_fenvutils.obj
 0001:001fb870       __acrt_fenv_get_control    00000001801fc870 f   libucrt:_fenvutils.obj
 0001:001fb950       __acrt_fenv_get_status     00000001801fc950 f   libucrt:_fenvutils.obj
 0001:001fb9b0       __acrt_fenv_set_control    00000001801fc9b0 f   libucrt:_fenvutils.obj
 0001:001fbae0       __acrt_fenv_set_status     00000001801fcae0 f   libucrt:_fenvutils.obj
 0001:001fbb54       __acrt_stdio_allocate_buffer_nolock 00000001801fcb54 f   libucrt:_getbuf.obj
 0001:001fbbc0       _guard_check_icall         00000001801fcbc0 f i libucrt:checkcfg.obj
 0001:001fbbe0       __strncnt                  00000001801fcbe0 f   libucrt:strncnt.obj
 0001:001fbbf8       __dcrt_lowio_ensure_console_output_initialized 00000001801fcbf8 f   libucrt:initcon.obj
 0001:001fbc4c       __dcrt_terminate_console_output 00000001801fcc4c f   libucrt:initcon.obj
 0001:001fbc68       __dcrt_write_console       00000001801fcc68 f   libucrt:initcon.obj
 0001:001fbd30       _clearfp                   00000001801fcd30 f   libucrt:ieee.obj
 0001:001fbda0       _control87                 00000001801fcda0 f   libucrt:ieee.obj
 0001:001fc050       ceil_sse41                 00000001801fd050 f   libucrt:floorceil_sse41.obj
 0001:001fc060       _log10_special             00000001801fd060 f   libucrt:log_special.obj
 0001:001fc120       _FindPESection             00000001801fd120 f   LIBCMT:pesect.obj
 0001:001fc170       _IsNonwritableInCurrentImage 00000001801fd170 f   LIBCMT:pesect.obj
 0001:001fc1c0       _ValidateImageBase         00000001801fd1c0 f   LIBCMT:pesect.obj
 0001:001fc1ec       __GSHandlerCheck           00000001801fd1ec f   LIBCMT:gshandler.obj
 0001:001fc20c       __GSHandlerCheckCommon     00000001801fd20c f   LIBCMT:gshandler.obj
 0001:001fc280       __security_check_cookie    00000001801fd280 f   LIBCMT:amdsecgs.obj
 0001:001fc2a0       __GSHandlerCheck_SEH       00000001801fd2a0 f   LIBCMT:gshandlerseh.obj
 0001:001fc328       __GSHandlerCheck_EH        00000001801fd328 f   LIBCMT:gshandlereh.obj
 0001:001fc3a8       __raise_securityfailure    00000001801fd3a8 f   LIBCMT:gs_report.obj
 0001:001fc3dc       __report_gsfailure         00000001801fd3dc f   LIBCMT:gs_report.obj
 0001:001fc524       __C_specific_handler_noexcept 00000001801fd524 f   libvcruntime:chandler_noexcept.obj
 0001:001fc570       strrchr                    00000001801fd570 f   libvcruntime:strrchr.obj
 0001:001fc6b0       _guard_dispatch_icall_nop  00000001801fd6b0 f   LIBCMT:guard_dispatch.obj
 0001:001fc6d0       _guard_xfg_dispatch_icall_nop 00000001801fd6d0 f   LIBCMT:guard_xfg_dispatch.obj
 0001:001fc6f0       _guard_dispatch_icall      00000001801fd6f0 f   libucrt:dispatchcfg.obj
 0001:001fc6f0       _guard_dispatch_icall_$fo_default$ 00000001801fd6f0     libucrt:dispatchcfg.obj
 0001:001fc720       memcpy_repmovs             00000001801fd720 f   libvcruntime:memcpy.obj
 0001:001fc730       memcpy                     00000001801fd730 f   libvcruntime:memcpy.obj
 0001:001fc730       memcpy_$fo_default$        00000001801fd730     libvcruntime:memcpy.obj
 0001:001fc730       memmove                    00000001801fd730 f   libvcruntime:memcpy.obj
 0001:001fcdc0       memset_repstos             00000001801fddc0 f   libvcruntime:memset.obj
 0001:001fcdd0       memset                     00000001801fddd0 f   libvcruntime:memset.obj
 0001:001fd170       strcmp                     00000001801fe170 f   libucrt:strcmp.obj
 0001:001fd1f0       strlen                     00000001801fe1f0 f   libucrt:strlen.obj
 0001:001fd2b0       strncmp                    00000001801fe2b0 f   libucrt:strncmp.obj
 0002:00000000       __imp_GetLastError         00000001801ff000     kernel32:KERNEL32.dll
 0002:00000008       __imp_FreeLibrary          00000001801ff008     kernel32:KERNEL32.dll
 0002:00000010       __imp_GetProcAddress       00000001801ff010     kernel32:KERNEL32.dll
 0002:00000018       __imp_LoadLibraryA         00000001801ff018     kernel32:KERNEL32.dll
 0002:00000020       __imp_RaiseException       00000001801ff020     kernel32:KERNEL32.dll
 0002:00000028       __imp_GetSystemInfo        00000001801ff028     kernel32:KERNEL32.dll
 0002:00000030       __imp_VirtualProtect       00000001801ff030     kernel32:KERNEL32.dll
 0002:00000038       __imp_VirtualQuery         00000001801ff038     kernel32:KERNEL32.dll
 0002:00000040       __imp_GetModuleHandleW     00000001801ff040     kernel32:KERNEL32.dll
 0002:00000048       __imp_LoadLibraryExA       00000001801ff048     kernel32:KERNEL32.dll
 0002:00000050       __imp_InitializeSListHead  00000001801ff050     kernel32:KERNEL32.dll
 0002:00000058       __imp_RtlCaptureContext    00000001801ff058     kernel32:KERNEL32.dll
 0002:00000060       __imp_RtlLookupFunctionEntry 00000001801ff060     kernel32:KERNEL32.dll
 0002:00000068       __imp_RtlVirtualUnwind     00000001801ff068     kernel32:KERNEL32.dll
 0002:00000070       __imp_IsDebuggerPresent    00000001801ff070     kernel32:KERNEL32.dll
 0002:00000078       __imp_UnhandledExceptionFilter 00000001801ff078     kernel32:KERNEL32.dll
 0002:00000080       __imp_SetUnhandledExceptionFilter 00000001801ff080     kernel32:KERNEL32.dll
 0002:00000088       __imp_GetStartupInfoW      00000001801ff088     kernel32:KERNEL32.dll
 0002:00000090       __imp_IsProcessorFeaturePresent 00000001801ff090     kernel32:KERNEL32.dll
 0002:00000098       __imp_QueryPerformanceCounter 00000001801ff098     kernel32:KERNEL32.dll
 0002:000000a0       __imp_GetCurrentProcessId  00000001801ff0a0     kernel32:KERNEL32.dll
 0002:000000a8       __imp_GetCurrentThreadId   00000001801ff0a8     kernel32:KERNEL32.dll
 0002:000000b0       __imp_GetSystemTimeAsFileTime 00000001801ff0b0     kernel32:KERNEL32.dll
 0002:000000b8       __imp_InterlockedPushEntrySList 00000001801ff0b8     kernel32:KERNEL32.dll
 0002:000000c0       __imp_InterlockedFlushSList 00000001801ff0c0     kernel32:KERNEL32.dll
 0002:000000c8       __imp_RtlUnwindEx          00000001801ff0c8     kernel32:KERNEL32.dll
 0002:000000d0       __imp_SetLastError         00000001801ff0d0     kernel32:KERNEL32.dll
 0002:000000d8       __imp_EnterCriticalSection 00000001801ff0d8     kernel32:KERNEL32.dll
 0002:000000e0       __imp_LeaveCriticalSection 00000001801ff0e0     kernel32:KERNEL32.dll
 0002:000000e8       __imp_DeleteCriticalSection 00000001801ff0e8     kernel32:KERNEL32.dll
 0002:000000f0       __imp_InitializeCriticalSectionAndSpinCount 00000001801ff0f0     kernel32:KERNEL32.dll
 0002:000000f8       __imp_TlsAlloc             00000001801ff0f8     kernel32:KERNEL32.dll
 0002:00000100       __imp_TlsGetValue          00000001801ff100     kernel32:KERNEL32.dll
 0002:00000108       __imp_TlsSetValue          00000001801ff108     kernel32:KERNEL32.dll
 0002:00000110       __imp_TlsFree              00000001801ff110     kernel32:KERNEL32.dll
 0002:00000118       __imp_LoadLibraryExW       00000001801ff118     kernel32:KERNEL32.dll
 0002:00000120       __imp_EncodePointer        00000001801ff120     kernel32:KERNEL32.dll
 0002:00000128       __imp_RtlPcToFileHeader    00000001801ff128     kernel32:KERNEL32.dll
 0002:00000130       __imp_GetCurrentProcess    00000001801ff130     kernel32:KERNEL32.dll
 0002:00000138       __imp_ExitProcess          00000001801ff138     kernel32:KERNEL32.dll
 0002:00000140       __imp_TerminateProcess     00000001801ff140     kernel32:KERNEL32.dll
 0002:00000148       __imp_GetModuleHandleExW   00000001801ff148     kernel32:KERNEL32.dll
 0002:00000150       __imp_GetModuleFileNameW   00000001801ff150     kernel32:KERNEL32.dll
 0002:00000158       __imp_HeapAlloc            00000001801ff158     kernel32:KERNEL32.dll
 0002:00000160       __imp_HeapFree             00000001801ff160     kernel32:KERNEL32.dll
 0002:00000168       __imp_FlsAlloc             00000001801ff168     kernel32:KERNEL32.dll
 0002:00000170       __imp_FlsGetValue          00000001801ff170     kernel32:KERNEL32.dll
 0002:00000178       __imp_FlsSetValue          00000001801ff178     kernel32:KERNEL32.dll
 0002:00000180       __imp_FlsFree              00000001801ff180     kernel32:KERNEL32.dll
 0002:00000188       __imp_InitializeCriticalSectionEx 00000001801ff188     kernel32:KERNEL32.dll
 0002:00000190       __imp_LCMapStringW         00000001801ff190     kernel32:KERNEL32.dll
 0002:00000198       __imp_GetStdHandle         00000001801ff198     kernel32:KERNEL32.dll
 0002:000001a0       __imp_GetFileType          00000001801ff1a0     kernel32:KERNEL32.dll
 0002:000001a8       __imp_FindClose            00000001801ff1a8     kernel32:KERNEL32.dll
 0002:000001b0       __imp_FindFirstFileExW     00000001801ff1b0     kernel32:KERNEL32.dll
 0002:000001b8       __imp_FindNextFileW        00000001801ff1b8     kernel32:KERNEL32.dll
 0002:000001c0       __imp_IsValidCodePage      00000001801ff1c0     kernel32:KERNEL32.dll
 0002:000001c8       __imp_GetACP               00000001801ff1c8     kernel32:KERNEL32.dll
 0002:000001d0       __imp_GetOEMCP             00000001801ff1d0     kernel32:KERNEL32.dll
 0002:000001d8       __imp_GetCPInfo            00000001801ff1d8     kernel32:KERNEL32.dll
 0002:000001e0       __imp_GetCommandLineA      00000001801ff1e0     kernel32:KERNEL32.dll
 0002:000001e8       __imp_GetCommandLineW      00000001801ff1e8     kernel32:KERNEL32.dll
 0002:000001f0       __imp_MultiByteToWideChar  00000001801ff1f0     kernel32:KERNEL32.dll
 0002:000001f8       __imp_WideCharToMultiByte  00000001801ff1f8     kernel32:KERNEL32.dll
 0002:00000200       __imp_GetEnvironmentStringsW 00000001801ff200     kernel32:KERNEL32.dll
 0002:00000208       __imp_FreeEnvironmentStringsW 00000001801ff208     kernel32:KERNEL32.dll
 0002:00000210       __imp_GetProcessHeap       00000001801ff210     kernel32:KERNEL32.dll
 0002:00000218       __imp_FlushFileBuffers     00000001801ff218     kernel32:KERNEL32.dll
 0002:00000220       __imp_WriteFile            00000001801ff220     kernel32:KERNEL32.dll
 0002:00000228       __imp_GetConsoleOutputCP   00000001801ff228     kernel32:KERNEL32.dll
 0002:00000230       __imp_GetConsoleMode       00000001801ff230     kernel32:KERNEL32.dll
 0002:00000238       __imp_SetStdHandle         00000001801ff238     kernel32:KERNEL32.dll
 0002:00000240       __imp_GetFileSizeEx        00000001801ff240     kernel32:KERNEL32.dll
 0002:00000248       __imp_SetFilePointerEx     00000001801ff248     kernel32:KERNEL32.dll
 0002:00000250       __imp_GetStringTypeW       00000001801ff250     kernel32:KERNEL32.dll
 0002:00000258       __imp_HeapSize             00000001801ff258     kernel32:KERNEL32.dll
 0002:00000260       __imp_HeapReAlloc          00000001801ff260     kernel32:KERNEL32.dll
 0002:00000268       __imp_CloseHandle          00000001801ff268     kernel32:KERNEL32.dll
 0002:00000270       __imp_CreateFileW          00000001801ff270     kernel32:KERNEL32.dll
 0002:00000278       __imp_WriteConsoleW        00000001801ff278     kernel32:KERNEL32.dll
 0002:00000280       \177KERNEL32_NULL_THUNK_DATA 00000001801ff280     kernel32:KERNEL32.dll
 0002:00000288       __guard_check_icall_fptr   00000001801ff288     LIBCMT:guard_support.obj
 0002:00000290       __guard_xfg_check_icall_fptr 00000001801ff290     LIBCMT:guard_support.obj
 0002:00000298       __guard_dispatch_icall_fptr 00000001801ff298     LIBCMT:guard_support.obj
 0002:000002a0       __guard_xfg_dispatch_icall_fptr 00000001801ff2a0     LIBCMT:guard_support.obj
 0002:000002a8       __guard_xfg_table_dispatch_icall_fptr 00000001801ff2a8     LIBCMT:guard_support.obj
 0002:000002b0       __castguard_check_failure_os_handled_fptr 00000001801ff2b0     LIBCMT:guard_support.obj
 0002:000002b8       __guard_memcpy_fptr        00000001801ff2b8     libvcruntime:softmemtag.obj
 0002:000002c0       __xc_a                     00000001801ff2c0     LIBCMT:initializers.obj
 0002:00001db8       __xc_z                     0000000180200db8     LIBCMT:initializers.obj
 0002:00001dc0       __xi_a                     0000000180200dc0     LIBCMT:initializers.obj
 0002:00001dc8       __acrt_stdio_initializer   0000000180200dc8     libucrt:stdio_initializer.obj
 0002:00001dd0       __acrt_tran_fma3_initializer 0000000180200dd0     libucrt:fma3_initializer.obj
 0002:00001dd8       __acrt_multibyte_initializer 0000000180200dd8     libucrt:multibyte_initializer.obj
 0002:00001de0       __xi_z                     0000000180200de0     LIBCMT:initializers.obj
 0002:00001de8       __xp_a                     0000000180200de8     LIBCMT:initializers.obj
 0002:00001df0       __acrt_locale_terminator   0000000180200df0     libucrt:locale_initializer.obj
 0002:00001df8       __dcrt_console_output_terminator 0000000180200df8     libucrt:console_output_initializer.obj
 0002:00001e00       __acrt_stdio_terminator    0000000180200e00     libucrt:stdio_initializer.obj
 0002:00001e08       __xp_z                     0000000180200e08     LIBCMT:initializers.obj
 0002:00001e10       __xt_a                     0000000180200e10     LIBCMT:initializers.obj
 0002:00001e18       __xt_z                     0000000180200e18     LIBCMT:initializers.obj
 0002:00001e20       ??_7PxCollection@physx@@6B@ 0000000180200e20     CmCollection.obj
 0002:00001ea0       ??_C@_00CNPNBAHC@@         0000000180200ea0     CmCollection.obj
 0002:00001ea8       ??_7Collection@Cm@physx@@6B@ 0000000180200ea8     CmCollection.obj
 0002:00001f30       ??_C@_0GE@GBACBMOC@PxCollection?3?3add?5called?5for?5an@ 0000000180200f30     CmCollection.obj
 0002:00001f98       ??_C@_0DC@FLDDCBPD@D?3?2PhysX?2physx?2source?2common?2sr@ 0000000180200f98     CmCollection.obj
 0002:00001fd0       ??_C@_0EM@OMMGDOMK@PxCollection?3?3add?5called?5with?5a@ 0000000180200fd0     CmCollection.obj
 0002:00002020       ??_C@_0EL@CBFFIHFG@PxCollection?3?3remove?5called?5for@ 0000000180201020     CmCollection.obj
 0002:00002070       ??_C@_0EP@DBNENNLL@PxCollection?3?3addId?5called?5for?5@ 0000000180201070     CmCollection.obj
 0002:000020c0       ??_C@_0FL@DACPFKDD@PxCollection?3?3addId?5called?5with@ 00000001802010c0     CmCollection.obj
 0002:00002120       ??_C@_0EP@GMPAMDKI@PxCollection?3?3addId?5called?5with@ 0000000180201120     CmCollection.obj
 0002:00002170       ??_C@_0FO@DIHIGAFD@PxCollection?3?3removeId?5called?5w@ 0000000180201170     CmCollection.obj
 0002:000021d0       ??_C@_0FF@MENHIPMD@PxCollection?3?3removeId?5called?5w@ 00000001802011d0     CmCollection.obj
 0002:00002230       ??_C@_0FK@BAFICJEM@PxCollection?3?3find?5called?5with?5@ 0000000180201230     CmCollection.obj
 0002:00002290       ??_C@_0DF@CLGAFPLL@PxCollection?3?3add?$CIPxCollection?$CG@ 0000000180201290     CmCollection.obj
 0002:000022c8       ??_C@_0DN@DMJACFO@PxCollection?3?3add?$CIPxCollection?$CG@ 00000001802012c8     CmCollection.obj
 0002:00002308       ??_C@_0DI@DICAIAPC@PxCollection?3?3remove?$CIPxCollecti@ 0000000180201308     CmCollection.obj
 0002:00002340       ??_C@_0DG@LOILDLGN@PxCollection?3?3getObjects?5called@ 0000000180201340     CmCollection.obj
 0002:00002378       ??_C@_0DD@GMICJLDJ@PxCollection?3?3getObjects?5called@ 0000000180201378     CmCollection.obj
 0002:000023b0       ??_C@_0DC@GILGGBAI@PxCollection?3?3getIds?5called?5wit@ 00000001802013b0     CmCollection.obj
 0002:000023e8       ??_C@_0CP@LFEKADKN@PxCollection?3?3getIds?5called?5wit@ 00000001802013e8     CmCollection.obj
 0002:00002418       ??_C@_0BM@OIFKLHDN@?$DMallocation?5names?5disabled?$DO@ 0000000180201418     CmCollection.obj
 0002:00002438       ??_C@_0DE@ONDIICFF@D?3?2PhysX?2physx?2include?2foundati@ 0000000180201438     CmCollection.obj
 0002:00002470       ??_7RadixSort@Cm@physx@@6B@ 0000000180201470     CmRadixSort.obj
 0002:00002478       ??_7RadixSortBuffered@Cm@physx@@6B@ 0000000180201478     CmRadixSort.obj
 0002:00002480       ??_C@_0DB@DFBPIMIO@D?3?2PhysX?2physx?2source?2common?2sr@ 0000000180201480     CmRadixSort.obj
 0002:000024c0       __xmm@00000001000000010000000100000001 00000001802014c0     CmRadixSort.obj
 0002:000024d0       __xmm@00000003000000020000000100000000 00000001802014d0     CmRadixSort.obj
 0002:000024e0       __real@3d4ccccd            00000001802014e0     CmVisualization.obj
 0002:000024e4       __real@3e19999a            00000001802014e4     CmVisualization.obj
 0002:000024e8       __real@3e490fdb            00000001802014e8     CmVisualization.obj
 0002:000024ec       __real@3e800000            00000001802014ec     CmVisualization.obj
 0002:000024f0       __real@3e99999a            00000001802014f0     CmVisualization.obj
 0002:000024f4       __real@3ea0d97c            00000001802014f4     CmVisualization.obj
 0002:000024f8       __real@3f000000            00000001802014f8     CmVisualization.obj
 0002:000024fc       __real@3f3504f3            00000001802014fc     CmVisualization.obj
 0002:00002500       __real@3f800000            0000000180201500     CmVisualization.obj
 0002:00002504       __real@3fc00000            0000000180201504     CmVisualization.obj
 0002:00002508       __real@3fddb3d7            0000000180201508     CmVisualization.obj
 0002:0000250c       __real@40100000            000000018020150c     CmVisualization.obj
 0002:00002510       __real@40400000            0000000180201510     CmVisualization.obj
 0002:00002514       __real@40c90fdb            0000000180201514     CmVisualization.obj
 0002:00002518       __real@40d80000            0000000180201518     CmVisualization.obj
 0002:0000251c       __real@80000000            000000018020151c     CmVisualization.obj
 0002:00002520       __xmm@3f800000000000000000000000000000 0000000180201520     CmVisualization.obj
 0002:00002530       __xmm@7fffffff7fffffff7fffffff7fffffff 0000000180201530     CmVisualization.obj
 0002:00002540       __xmm@80000000800000008000000080000000 0000000180201540     CmVisualization.obj
 0002:00002550       ??_C@_0BB@CPDDPFKD@GetUpdatedModule@ 0000000180201550     CmWindowsModuleUpdateLoader.obj
 0002:00002570       ??_C@_0EJ@KEPPJDJK@D?3?2PhysX?2physx?2source?2common?2sr@ 0000000180201570     CmWindowsModuleUpdateLoader.obj
 0002:000025c0       ??_C@_0CP@PGOIOJOO@?$CFs?3?$CFi?3?5loadLibrary?5error?5when?5l@ 00000001802015c0     CmWindowsModuleUpdateLoader.obj
 0002:000025f0       ??_C@_0BA@EGLNOO@PhysXFoundation@ 00000001802015f0     CmWindowsDelayLoadHook.obj
 0002:00002600       ??_C@_0M@ILKNCJKN@PhysXCommon@ 0000000180201600     CmWindowsDelayLoadHook.obj
 0002:00002630       __real@3f7ff972            0000000180201630     GuBox.obj
 0002:00002640       __xmm@000000003a83126f3a83126f3a83126f 0000000180201640     GuBox.obj
 0002:00002650       __xmm@00000000ba83126fba83126fba83126f 0000000180201650     GuBox.obj
 0002:00002660       __xmm@3a83126f3a83126f3a83126f3a83126f 0000000180201660     GuBox.obj
 0002:00002670       __xmm@ba83126fba83126fba83126fba83126f 0000000180201670     GuBox.obj
 0002:000026a0       ??_7EntityReport@Gu@physx@@6B@ 00000001802016a0     GuSweepsHF.obj
 0002:000026a0       ??_7OverlapCallback@PxBVH@physx@@6B@ 00000001802016a0     GuQuerySystem.obj
 0002:000026a0       ??_7OverlapReport@Gu@physx@@6B@ 00000001802016a0     GuCCTSweepTests.obj
 0002:000026a0       ??_7RaycastCallback@PxBVH@physx@@6B@ 00000001802016a0     GuQuerySystem.obj
 0002:000026a0       ??_7RemapCallback@RTreeCooker@physx@@6B@ 00000001802016a0     GuCookingTriangleMesh.obj
 0002:000026c0       __real@3b03126f            00000001802016c0     GuCCTSweepTests.obj
 0002:000026c4       __real@40000000            00000001802016c4     GuCCTSweepTests.obj
 0002:00002780       ??_C@_0CD@CGJJEFHC@Gu?3?3overlap?$CI?$CJ?3?5pose0?5is?5not?5val@ 0000000180201780     GuGeometryQuery.obj
 0002:000027a8       ??_C@_0DJ@MGBNPOIK@D?3?2PhysX?2physx?2source?2geomutils@ 00000001802017a8     GuGeometryQuery.obj
 0002:000027e8       ??_C@_0CD@IIPBNEOD@Gu?3?3overlap?$CI?$CJ?3?5pose1?5is?5not?5val@ 00000001802017e8     GuGeometryQuery.obj
 0002:00002810       ??_7SupportLocal@Gu@physx@@6B@ 0000000180201810     GuGeometryQuery.obj
 0002:00002830       ??_C@_0CO@DGHGHPPJ@PxGeometryQuery?3?3sweep?$CI?$CJ?3?5pose0@ 0000000180201830     GuGeometryQuery.obj
 0002:00002860       ??_C@_0DI@GPHDKFOO@D?3?2PhysX?2physx?2source?2geomutils@ 0000000180201860     GuGeometryQuery.obj
 0002:00002898       ??_C@_0CO@JIBOOOGI@PxGeometryQuery?3?3sweep?$CI?$CJ?3?5pose1@ 0000000180201898     GuGeometryQuery.obj
 0002:000028c8       ??_C@_0DA@JEEBDBEM@PxGeometryQuery?3?3sweep?$CI?$CJ?3?5unitD@ 00000001802018c8     GuGeometryQuery.obj
 0002:000028f8       ??_C@_0DB@KCEKJBPE@PxGeometryQuery?3?3sweep?$CI?$CJ?3?5dista@ 00000001802018f8     GuGeometryQuery.obj
 0002:00002930       ??_C@_0FM@HAJNNJNC@PxGeometryQuery?3?3sweep?$CI?$CJ?3?5sweep@ 0000000180201930     GuGeometryQuery.obj
 0002:00002990       ??_C@_0CB@JDDBKCNL@Provided?5geometry?50?5is?5not?5vali@ 0000000180201990     GuGeometryQuery.obj
 0002:000029b8       ??_C@_0CB@CKMKHJDD@Provided?5geometry?51?5is?5not?5vali@ 00000001802019b8     GuGeometryQuery.obj
 0002:000029e0       ??_C@_0GL@GJKJELMB@PxGeometryQuery?3?3sweep?$CI?$CJ?3?5first@ 00000001802019e0     GuGeometryQuery.obj
 0002:00002a50       ??_C@_0DB@OMDGMOND@PxGeometryQuery?3?3raycast?$CI?$CJ?3?5ray@ 0000000180201a50     GuGeometryQuery.obj
 0002:00002a88       ??_C@_0DE@MGFNMBNA@PxGeometryQuery?3?3raycast?$CI?$CJ?3?5ray@ 0000000180201a88     GuGeometryQuery.obj
 0002:00002ac0       ??_C@_0CP@NHLDPNEB@PxGeometryQuery?3?3raycast?$CI?$CJ?3?5pos@ 0000000180201ac0     GuGeometryQuery.obj
 0002:00002af0       ??_C@_0DB@HPNPNEMP@PxGeometryQuery?3?3raycast?$CI?$CJ?3?5max@ 0000000180201af0     GuGeometryQuery.obj
 0002:00002b28       ??_C@_0DC@BLMIOBO@PxGeometryQuery?3?3raycast?$CI?$CJ?3?5max@ 0000000180201b28     GuGeometryQuery.obj
 0002:00002b60       ??_C@_0DP@IPJGHFJE@PxGeometryQuery?3?3raycast?$CI?$CJ?3?5ray@ 0000000180201b60     GuGeometryQuery.obj
 0002:00002ba0       ??_C@_0DF@BMEFDPAL@PxGeometryQuery?3?3pointDistance?$CI@ 0000000180201ba0     GuGeometryQuery.obj
 0002:00002be0       ??_C@_0HD@CIHHMJFE@PxGeometryQuery?3?3pointDistance?$CI@ 0000000180201be0     GuGeometryQuery.obj
 0002:00002c58       ??_C@_0DJ@FHLFMELL@PxGeometryQuery?3?3computeGeomBou@ 0000000180201c58     GuGeometryQuery.obj
 0002:00002c98       ??_C@_0DL@LECAKFBF@PxGeometryQuery?3?3computePenetra@ 0000000180201c98     GuGeometryQuery.obj
 0002:00002cd8       ??_C@_0DL@BKEIDEIE@PxGeometryQuery?3?3computePenetra@ 0000000180201cd8     GuGeometryQuery.obj
 0002:00002d18       ??_7?$SupportLocalImpl@VBoxV@Gu@physx@@@Gu@physx@@6B@ 0000000180201d18     GuGeometryQuery.obj
 0002:00002d38       ??_7?$SupportLocalImpl@VConvexHullV@Gu@physx@@@Gu@physx@@6B@ 0000000180201d38     GuGeometryQuery.obj
 0002:00002d58       ??_C@_0CM@KKCNHKNO@D?3?2PhysX?2physx?2include?2foundati@ 0000000180201d58     GuGeometryQuery.obj
 0002:00002d84       __real@2edbe6fe            0000000180201d84     GuGeometryQuery.obj
 0002:00002d88       __real@30d1b7e9            0000000180201d88     GuGeometryQuery.obj
 0002:00002d8c       __real@322bcc77            0000000180201d8c     GuGeometryQuery.obj
 0002:00002d90       __real@34000000            0000000180201d90     GuGeometryQuery.obj
 0002:00002d94       __real@358637bd            0000000180201d94     GuGeometryQuery.obj
 0002:00002d98       __real@3727c5ac            0000000180201d98     GuGeometryQuery.obj
 0002:00002d9c       __real@38d1b717            0000000180201d9c     GuGeometryQuery.obj
 0002:00002da0       __real@3a83126f            0000000180201da0     GuGeometryQuery.obj
 0002:00002da4       __real@3c23d70a            0000000180201da4     GuGeometryQuery.obj
 0002:00002da8       __real@3ccccccd            0000000180201da8     GuGeometryQuery.obj
 0002:00002dac       __real@3dcccccd            0000000180201dac     GuGeometryQuery.obj
 0002:00002db0       __real@3e0f5c29            0000000180201db0     GuGeometryQuery.obj
 0002:00002db4       __real@3f7d70a4            0000000180201db4     GuGeometryQuery.obj
 0002:00002db8       __real@49742400            0000000180201db8     GuGeometryQuery.obj
 0002:00002dbc       __real@7f7fffff            0000000180201dbc     GuGeometryQuery.obj
 0002:00002dc0       __real@b727c5ac            0000000180201dc0     GuGeometryQuery.obj
 0002:00002dc4       __real@bf000000            0000000180201dc4     GuGeometryQuery.obj
 0002:00002dc8       __real@bf7d70a4            0000000180201dc8     GuGeometryQuery.obj
 0002:00002dcc       __real@bf800000            0000000180201dcc     GuGeometryQuery.obj
 0002:00002dd0       __real@ff7fffff            0000000180201dd0     GuGeometryQuery.obj
 0002:00002de0       __xmm@0000000000000000000000003f800000 0000000180201de0     GuGeometryQuery.obj
 0002:00002df0       __xmm@00000000000000003f80000000000000 0000000180201df0     GuGeometryQuery.obj
 0002:00002e00       __xmm@00000000000000003f8000003f800000 0000000180201e00     GuGeometryQuery.obj
 0002:00002e10       __xmm@000000003f8000000000000000000000 0000000180201e10     GuGeometryQuery.obj
 0002:00002e20       __xmm@000000003f8000003f8000003f800000 0000000180201e20     GuGeometryQuery.obj
 0002:00002e30       __xmm@00000000ffffffffffffffffffffffff 0000000180201e30     GuGeometryQuery.obj
 0002:00002e40       __xmm@3d4ccccd3d4ccccd3d4ccccd3d4ccccd 0000000180201e40     GuGeometryQuery.obj
 0002:00002e50       __xmm@3e19999a3e19999a3e19999a3e19999a 0000000180201e50     GuGeometryQuery.obj
 0002:00002e60       __xmm@3e4ccccd3e4ccccd3e4ccccd3e4ccccd 0000000180201e60     GuGeometryQuery.obj
 0002:00002e70       __xmm@3e8000003e8000003e8000003e800000 0000000180201e70     GuGeometryQuery.obj
 0002:00002e80       __xmm@3f7ef9db3f7ef9db3f7ef9db3f7ef9db 0000000180201e80     GuGeometryQuery.obj
 0002:00002e90       __xmm@3f7ff2e53f7ff2e53f7ff2e53f7ff2e5 0000000180201e90     GuGeometryQuery.obj
 0002:00002ea0       __xmm@3f8000003f8000003f8000003f800000 0000000180201ea0     GuGeometryQuery.obj
 0002:00002eb0       __xmm@7f7fffff7f7fffff7f7fffff7f7fffff 0000000180201eb0     GuGeometryQuery.obj
 0002:00002ec0       __xmm@bf000000bf000000bf000000bf000000 0000000180201ec0     GuGeometryQuery.obj
 0002:00002f10       ??_7CallbackRaycast@RTree@Gu@physx@@6B@ 0000000180201f10     GuMidphaseRTree.obj
 0002:00002f10       ??_7CallbackRefit@RTree@Gu@physx@@6B@ 0000000180201f10     GuTriangleMeshRTree.obj
 0002:00002f10       ??_7PxInsertionCallback@physx@@6B@ 0000000180201f10     GuMeshFactory.obj
 0002:00002f20       ??_7PxCollisionMeshMappingData@physx@@6B@ 0000000180201f20     GuMeshFactory.obj
 0002:00002f30       ??_7MeshFactory@Gu@physx@@6B@ 0000000180201f30     GuMeshFactory.obj
 0002:00002f38       ??_7MeshDataBase@Gu@physx@@6B@ 0000000180201f38     GuMeshFactory.obj
 0002:00002f40       ??_C@_0DG@KINKKKHA@D?3?2PhysX?2physx?2source?2geomutils@ 0000000180201f40     GuMeshFactory.obj
 0002:00002f78       ??_7TriangleMeshData@Gu@physx@@6B@ 0000000180201f78     GuMeshFactory.obj
 0002:00002f80       ??_7RTreeTriangleData@Gu@physx@@6B@ 0000000180201f80     GuMeshFactory.obj
 0002:00002f88       ??_7BV4TriangleData@Gu@physx@@6B@ 0000000180201f88     GuMeshFactory.obj
 0002:00002f90       ??_7DeformableVolumeCollisionData@Gu@physx@@6B@ 0000000180201f90     GuMeshFactory.obj
 0002:00002f98       ??_7CollisionMeshMappingData@Gu@physx@@6B@ 0000000180201f98     GuMeshFactory.obj
 0002:00002fa8       ??_7DeformableVolumeSimulationData@Gu@physx@@6B@ 0000000180201fa8     GuMeshFactory.obj
 0002:00002fb0       ??_C@_0GP@NHELMDAL@Loading?5triangle?5mesh?5failed?3?5D@ 0000000180201fb0     GuMeshFactory.obj
 0002:00003020       ??_C@_0DG@EGAMKEPH@D?3?2PhysX?2physx?2source?2geomutils@ 0000000180202020     GuMeshFactory.obj
 0002:00003058       ??_C@_0BP@CDOKDACA@RTree?5binary?5image?5load?5error?4@ 0000000180202058     GuMeshFactory.obj
 0002:00003078       ??_C@_0BN@MJPNIELF@BV4?5binary?5image?5load?5error?4@ 0000000180202078     GuMeshFactory.obj
 0002:00003098       ??_C@_0BO@JDPABAOF@BV32?5binary?5image?5load?5error?4@ 0000000180202098     GuMeshFactory.obj
 0002:000030b8       ??_C@_0BN@IKININFO@Invalid?5tetrahedron?5indices?4@ 00000001802020b8     GuMeshFactory.obj
 0002:000030f0       ??_C@_0EM@BDFDGBD@Inserting?5object?5failed?3?5Object@ 00000001802020f0     GuMeshFactory.obj
 0002:00003140       ??_C@_0CM@KDEAHDKH@D?3?2PhysX?2physx?2include?2foundati@ 0000000180202140     GuMeshFactory.obj
 0002:00003170       __xmm@cdcdcdcdcdcdcdcdcdcdcdcdcdcdcdcd 0000000180202170     GuMeshFactory.obj
 0002:00003180       __xmm@fe7fffff7e7fffff7e7fffff7e7fffff 0000000180202180     GuMeshFactory.obj
 0002:000031b0       ?absMask@?1??FAbs@aos@physx@@YA?AT__m128@@T4@@Z@4QBIB 00000001802021b0     GuMTD.obj
 0002:000031c0       ??_7GjkConvex@Gu@physx@@6B@ 00000001802021c0     GuMTD.obj
 0002:000031f0       ??_7?$LocalConvex@VCapsuleV@Gu@physx@@@Gu@physx@@6B@ 00000001802021f0     GuMTD.obj
 0002:00003220       ??_7?$LocalConvex@VConvexHullV@Gu@physx@@@Gu@physx@@6B@ 0000000180202220     GuMTD.obj
 0002:00003250       ??_7?$SupportLocalImpl@VConvexHullNoScaleV@Gu@physx@@@Gu@physx@@6B@ 0000000180202250     GuMTD.obj
 0002:00003270       __real@2edbe6ff            0000000180202270     GuMTD.obj
 0002:00003280       __xmm@28800000288000002880000028800000 0000000180202280     GuMTD.obj
 0002:00003290       __xmm@34000000340000003400000034000000 0000000180202290     GuMTD.obj
 0002:000032a0       __xmm@358637bd358637bd358637bd358637bd 00000001802022a0     GuMTD.obj
 0002:000032b0       __xmm@3dcccccd3dcccccd3dcccccd3dcccccd 00000001802022b0     GuMTD.obj
 0002:000032c0       __xmm@3f7ff1413f7ff1413f7ff1413f7ff141 00000001802022c0     GuMTD.obj
 0002:000032d0       __xmm@ffffffffffffffffffffffffffffffff 00000001802022d0     GuMTD.obj
 0002:00003300       ??_7?$RelativeConvex@VBoxV@Gu@physx@@@Gu@physx@@6B@ 0000000180202300     GuOverlapTests.obj
 0002:00003330       ??_7?$RelativeConvex@VConvexHullV@Gu@physx@@@Gu@physx@@6B@ 0000000180202330     GuOverlapTests.obj
 0002:00003420       ??_7Support@PxGjkQuery@physx@@6B@ 0000000180202420     GuRaycastTests.obj
 0002:00003450       __real@1e3ce508            0000000180202450     GuRaycastTests.obj
 0002:00003454       __real@28800000            0000000180202454     GuRaycastTests.obj
 0002:00003458       __real@33d6bf95            0000000180202458     GuRaycastTests.obj
 0002:0000345c       __real@3f0147ae            000000018020245c     GuRaycastTests.obj
 0002:00003460       __real@3f7ffffe            0000000180202460     GuRaycastTests.obj
 0002:00003464       __real@3f800347            0000000180202464     GuRaycastTests.obj
 0002:00003468       __real@41200000            0000000180202468     GuRaycastTests.obj
 0002:0000346c       __real@b3d6bf95            000000018020246c     GuRaycastTests.obj
 0002:00003470       __real@b8d1b717            0000000180202470     GuRaycastTests.obj
 0002:00003474       __real@c1200000            0000000180202474     GuRaycastTests.obj
 0002:00003530       ??_7?$MeshHitCallback@UPxGeomRaycastHit@physx@@@Gu@physx@@6B@ 0000000180202530     GuSweepMTD.obj
 0002:00003540       ??_7MeshMTDGenerationCallback@@6B@ 0000000180202540     GuSweepMTD.obj
 0002:00003550       ??_7MidPhaseQueryLocalReport@@6B@ 0000000180202550     GuSweepMTD.obj
 0002:00003560       __real@3f8147ae            0000000180202560     GuSweepMTD.obj
 0002:00003564       __real@3f933333            0000000180202564     GuSweepMTD.obj
 0002:00003590       __real@42c80000            0000000180202590     GuSweepSharedTests.obj
 0002:000035a0       __xmm@000000ff000000ff000000ff000000ff 00000001802025a0     GuSweepSharedTests.obj
 0002:00003660       ??_7?$LocalConvex@VBoxV@Gu@physx@@@Gu@physx@@6B@ 0000000180202660     GuSweepTests.obj
 0002:00003690       ??_7?$LocalConvex@VTriangleV@Gu@physx@@@Gu@physx@@6B@ 0000000180202690     GuSweepTests.obj
 0002:00003760       __xmm@00000002000000020000000200000002 0000000180202760     GuSweepTests.obj
 0002:00003770       __xmm@3eaaaa9f3eaaaa9f3eaaaa9f3eaaaa9f 0000000180202770     GuSweepTests.obj
 0002:00003830       ??_7PxRunnable@physx@@6B@  0000000180202830     GuSDF.obj
 0002:00003840       ??_C@_0CO@NOMFDAKH@D?3?2PhysX?2physx?2source?2geomutils@ 0000000180202840     GuSDF.obj
 0002:00003870       ??_7PointOntoTriangleMeshProjector@Gu@physx@@6B@ 0000000180202870     GuSDF.obj
 0002:00003888       ??_7?$PxThreadT@V?$PxReflectionAllocator@VPxThreadImpl@physx@@@physx@@@physx@@6B@ 0000000180202888     GuSDF.obj
 0002:00003898       ??_C@_06FJHNOCKE@thread@   0000000180202898     GuSDF.obj
 0002:000038a0       ??_C@_0BAK@OPLLKLNG@SDF?5creation?3?5Mesh?5is?5not?5suita@ 00000001802028a0     GuSDF.obj
 0002:000039b0       ??_C@_0FB@OMEANACP@SDF?5creation?3?5Input?5mesh?5is?5not@ 00000001802029b0     GuSDF.obj
 0002:00003a10       ??_C@_0EC@LILMFABM@No?5distance?5data?5available?5?$CInul@ 0000000180202a10     GuSDF.obj
 0002:00003a60       ??_C@_0EF@PBPCGDDJ@No?5sparse?5grid?5data?5available?5?$CI@ 0000000180202a60     GuSDF.obj
 0002:00003aa8       ??_C@_0CN@IMHGMOKF@D?3?2PhysX?2physx?2include?2foundati@ 0000000180202aa8     GuSDF.obj
 0002:00003ad8       ??_C@_0CL@IDEBIDLN@D?3?2PhysX?2physx?2include?2foundati@ 0000000180202ad8     GuSDF.obj
 0002:00003b08       ??_C@_0DE@PAFHBFE@D?3?2PhysX?2physx?2include?2foundati@ 0000000180202b08     GuSDF.obj
 0002:00003b3c       __real@37800080            0000000180202b3c     GuSDF.obj
 0002:00003b40       __real@3b808081            0000000180202b40     GuSDF.obj
 0002:00003b44       __real@3e2aaaab            0000000180202b44     GuSDF.obj
 0002:00003b48       __real@3eaaaaab            0000000180202b48     GuSDF.obj
 0002:00003b4c       __real@7e7fffff            0000000180202b4c     GuSDF.obj
 0002:00003b50       __real@fe7fffff            0000000180202b50     GuSDF.obj
 0002:00003b60       __xmm@00000001000000010000000100000000 0000000180202b60     GuSDF.obj
 0002:00003c20       ??_7?$RelativeConvex@UCustomConvexV@@@Gu@physx@@6B@ 0000000180202c20     GuGjkQuery.obj
 0002:00003c50       ??_7?$LocalConvex@UCustomConvexV@@@Gu@physx@@6B@ 0000000180202c50     GuGjkQuery.obj
 0002:00003c80       ??_7?$LocalConvex@UPointConvexV@@@Gu@physx@@6B@ 0000000180202c80     GuGjkQuery.obj
 0002:00003cd0       __real@3da2f983            0000000180202cd0     GuWindingNumber.obj
 0002:00003cd4       __real@3e22f983            0000000180202cd4     GuWindingNumber.obj
 0002:00003cd8       __real@3f99999a            0000000180202cd8     GuWindingNumber.obj
 0002:00003d00       __real@38aaaaab            0000000180202d00     GuConvexGeometry.obj
 0002:00003d04       __real@3d000000            0000000180202d04     GuConvexGeometry.obj
 0002:00003d08       __real@3daaaaab            0000000180202d08     GuConvexGeometry.obj
 0002:00003d0c       __real@3ecccccd            0000000180202d0c     GuConvexGeometry.obj
 0002:00003d10       __real@3fc90fdb            0000000180202d10     GuConvexGeometry.obj
 0002:00003d14       __real@40490fdb            0000000180202d14     GuConvexGeometry.obj
 0002:00003d18       __real@40860a92            0000000180202d18     GuConvexGeometry.obj
 0002:00003d20       __xmm@3f800000bf8000003f8000003f800000 0000000180202d20     GuConvexGeometry.obj
 0002:00003d30       __xmm@bf8000003f800000bf800000bf800000 0000000180202d30     GuConvexGeometry.obj
 0002:00003e40       __real@3c343958            0000000180202e40     GuCCDSweepConvexMesh.obj
 0002:00003e44       __real@3ca3d70a            0000000180202e44     GuCCDSweepConvexMesh.obj
 0002:00003e48       __real@3f0ccccd            0000000180202e48     GuCCDSweepConvexMesh.obj
 0002:00003e4c       __real@3f8ccccd            0000000180202e4c     GuCCDSweepConvexMesh.obj
 0002:00003e50       __real@b58637bd            0000000180202e50     GuCCDSweepConvexMesh.obj
 0002:00003e80       ??_7?$RelativeConvex@VCapsuleV@Gu@physx@@@Gu@physx@@6B@ 0000000180202e80     GuCCDSweepPrimitives.obj
 0002:00003eb0       ??_7?$RelativeConvex@VTriangleV@Gu@physx@@@Gu@physx@@6B@ 0000000180202eb0     GuCCDSweepPrimitives.obj
 0002:00003ee0       __real@3ba3d70a            0000000180202ee0     GuCCDSweepPrimitives.obj
 0002:00003ee4       __real@501502f9            0000000180202ee4     GuCCDSweepPrimitives.obj
 0002:00003f10       ??_C@_0DN@BKEODBPB@D?3?2PhysX?2physx?2source?2geomutils@ 0000000180202f10     GuAdjacencies.obj
 0002:00003f50       ??_C@_0DA@FMEHLBKI@Adjacencies?3?3UpdateLink?3?5invali@ 0000000180202f50     GuAdjacencies.obj
 0002:00003f80       ??_C@_0EA@CPHOACLK@Adjacencies?3?3CreateDatabase?3?5ca@ 0000000180202f80     GuAdjacencies.obj
 0002:00003fc0       ??_C@_0DK@CEAAABLL@D?3?2PhysX?2physx?2source?2geomutils@ 0000000180202fc0     GuEdgeList.obj
 0002:00004000       ??_C@_0CO@GBNJFPN@EdgeList?3?3CreateFacesToEdges?3?5N@ 0000000180203000     GuEdgeList.obj
 0002:00004030       ??_C@_0CO@EHJBBMNK@EdgeList?3?3ComputeActiveEdges?3?5N@ 0000000180203030     GuEdgeList.obj
 0002:00004060       ??_C@_0DI@GBHLFOFP@ActiveEdges?3?3ComputeConvexEdges@ 0000000180203060     GuEdgeList.obj
 0002:00004098       ??_C@_0DM@JOGBLHDI@ActiveEdges?3?3ComputeConvexEdges@ 0000000180203098     GuEdgeList.obj
 0002:000040e0       ??_C@_0ED@FEMJKPEL@ActiveEdges?3?3ComputeConvexEdges@ 00000001802030e0     GuEdgeList.obj
 0002:00004130       ??_C@_0EB@BFDPMFCD@ActiveEdges?3?3ComputeConvexEdges@ 0000000180203130     GuEdgeList.obj
 0002:00004174       __real@bf7fbe77            0000000180203174     GuEdgeList.obj
 0002:00004178       ??_7Quantizer@Gu@physx@@6B@ 0000000180203178     GuQuantizer.obj
 0002:000041a0       ??_7QuantizerImpl@@6B@     00000001802031a0     GuQuantizer.obj
 0002:000041c8       ??_C@_0DL@JFHKBPOH@D?3?2PhysX?2physx?2source?2geomutils@ 00000001802031c8     GuQuantizer.obj
 0002:00004204       __real@3f8020c5            0000000180203204     GuQuantizer.obj
 0002:00004208       ??_C@_0DN@DPBFBMKF@D?3?2PhysX?2physx?2source?2geomutils@ 0000000180203208     GuMeshCleaner.obj
 0002:00004248       __real@40800000            0000000180203248     GuMeshCleaner.obj
 0002:00004250       ??_C@_0DP@BBLOHLFM@D?3?2PhysX?2physx?2source?2geomutils@ 0000000180203250     GuVertexReducer.obj
 0002:00004390       __real@3f7fbe77            0000000180203390     GuContactBoxBox.obj
 0002:000043e0       __real@3f7ff2e5            00000001802033e0     GuContactCapsuleCapsule.obj
 0002:000044f0       __real@358637be            00000001802034f0     GuContactCapsuleMesh.obj
 0002:000044f4       __real@ba83126f            00000001802034f4     GuContactCapsuleMesh.obj
 0002:000045d0       ??_7ConvexMeshContactGenerationCallback@@6B@ 00000001802035d0     GuContactConvexMesh.obj
 0002:000046c0       __real@3f7fff58            00000001802036c0     GuContactConvexCoreMesh.obj
 0002:00004800       ??_C@_0CN@MIFCIHGJ@D?3?2PhysX?2physx?2include?2foundati@ 0000000180203800     GuContactPlaneMesh.obj
 0002:00004850       __real@3ec90fdb            0000000180203850     GuContactPolygonPolygon.obj
 0002:00004854       __real@3f490fdb            0000000180203854     GuContactPolygonPolygon.obj
 0002:00004858       __real@3f96cbe4            0000000180203858     GuContactPolygonPolygon.obj
 0002:0000485c       __real@3ffb53d2            000000018020385c     GuContactPolygonPolygon.obj
 0002:00004860       __real@4016cbe4            0000000180203860     GuContactPolygonPolygon.obj
 0002:00004864       __real@402feddf            0000000180203864     GuContactPolygonPolygon.obj
 0002:00004920       ??_C@_0ED@KPEAGMIA@Dropping?5contacts?5in?5contact?5re@ 0000000180203920     GuContactMeshMesh.obj
 0002:00004970       ??_C@_0EB@IHJCJOPH@D?3?2PhysX?2physx?2source?2geomutils@ 0000000180203970     GuContactMeshMesh.obj
 0002:000049b4       __real@3b800000            00000001802039b4     GuContactMeshMesh.obj
 0002:000049b8       __real@3ed64e4c            00000001802039b8     GuContactMeshMesh.obj
 0002:000049bc       __real@3f12648a            00000001802039bc     GuContactMeshMesh.obj
 0002:000049c0       __real@3f349e9b            00000001802039c0     GuContactMeshMesh.obj
 0002:000049c4       __real@3f4ccccd            00000001802039c4     GuContactMeshMesh.obj
 0002:000049c8       __real@3f59999a            00000001802039c8     GuContactMeshMesh.obj
 0002:000049cc       __real@3f7fdf3b            00000001802039cc     GuContactMeshMesh.obj
 0002:00004a80       ??_C@_0DM@PKEGDNOH@Dropping?5contacts?5in?5sphere?5vs?5@ 0000000180203a80     GuContactSphereMesh.obj
 0002:00004ac0       ??_C@_0EE@DPCPCDKH@D?3?2PhysX?2physx?2source?2geomutils@ 0000000180203ac0     GuContactSphereMesh.obj
 0002:00004b38       ??_C@_0DP@EDDNBPHI@D?3?2PhysX?2physx?2source?2geomutils@ 0000000180203b38     GuBigConvexData.obj
 0002:00004ba0       ??_C@_06EJKDJEDO@PxBase@   0000000180203ba0     GuConvexMesh.obj
 0002:00004ba8       ??_C@_0N@CDGINLLF@PxConvexMesh@ 0000000180203ba8     GuConvexMesh.obj
 0002:00004bb8       ??_7PxBase@physx@@6B@      0000000180203bb8     GuConvexMesh.obj
 0002:00004be0       ??_C@_0CE@IDAGNPDH@isKindOf?5called?5with?5invalid?5st@ 0000000180203be0     GuConvexMesh.obj
 0002:00004c08       ??_C@_0N@OPPDBGAG@PxRefCounted@ 0000000180203c08     GuConvexMesh.obj
 0002:00004c18       ??_C@_0CP@KLHHBJDO@D?3?2PhysX?2physx?2include?2geometry@ 0000000180203c18     GuConvexMesh.obj
 0002:00004c48       ??_7ConvexMesh@Gu@physx@@6B@ 0000000180203c48     GuConvexMesh.obj
 0002:00004ce0       ??_C@_0DM@OBMHIMLI@D?3?2PhysX?2physx?2source?2geomutils@ 0000000180203ce0     GuConvexMesh.obj
 0002:00004d20       ??_C@_0DM@NEJKOFIP@Loading?5convex?5mesh?5failed?3?5Dep@ 0000000180203d20     GuConvexMesh.obj
 0002:00004d60       ??_C@_0DB@PAHEPIEL@PxConvexMesh?3?3release?3?5double?5d@ 0000000180203d60     GuConvexMesh.obj
 0002:00004d98       ??_C@_0DE@BJKGMBNP@D?3?2PhysX?2physx?2source?2geomutils@ 0000000180203d98     GuConvexMesh.obj
 0002:00004df0       __xmm@000000000000000000000000ffffffff 0000000180203df0     GuConvexSupportTable.obj
 0002:00004e00       __xmm@0000000000000000ffffffff00000000 0000000180203e00     GuConvexSupportTable.obj
 0002:00004e10       __xmm@0000000000000000ffffffffffffffff 0000000180203e10     GuConvexSupportTable.obj
 0002:00004e20       __xmm@00000000ffffffff0000000000000000 0000000180203e20     GuConvexSupportTable.obj
 0002:00004e30       __xmm@00000000ffffffff00000000ffffffff 0000000180203e30     GuConvexSupportTable.obj
 0002:00004e40       __xmm@00000000ffffffffffffffff00000000 0000000180203e40     GuConvexSupportTable.obj
 0002:00004ed0       __xmm@2b8cbccc2b8cbccc2b8cbccc2b8cbccc 0000000180203ed0     GuDistancePointTriangle.obj
 0002:00004f20       __xmm@3f0000003f0000003f0000003f000000 0000000180203f20     GuDistanceSegmentSegment.obj
 0002:00004f50       __real@2b8cbccc            0000000180203f50     GuDistanceSegmentTriangle.obj
 0002:00004f60       __xmm@3f8000013f8000013f8000013f800001 0000000180203f60     GuDistanceSegmentTriangle.obj
 0002:00004f70       __xmm@b4000000b4000000b4000000b4000000 0000000180203f70     GuDistanceSegmentTriangle.obj
 0002:00004fa0       __real@26901d7d            0000000180203fa0     GuDistanceTriangleTriangle.obj
 0002:00005020       __xmm@38d1b71738d1b71738d1b71738d1b717 0000000180204020     GuGJKSimplex.obj
 0002:00005050       ??_C@_0O@PBAKPCEC@PxHeightField@ 0000000180204050     GuHeightField.obj
 0002:00005060       ??_C@_0DA@CLNICELJ@D?3?2PhysX?2physx?2include?2geometry@ 0000000180204060     GuHeightField.obj
 0002:00005090       ??_7HeightField@Gu@physx@@6B@ 0000000180204090     GuHeightField.obj
 0002:00005148       ??_C@_0DC@BDMMBOKH@PxHeightField?3?3release?3?5double?5@ 0000000180204148     GuHeightField.obj
 0002:00005180       ??_C@_0DF@LLAFPPKJ@Gu?3?3HeightField?3?3modifySamples?3@ 0000000180204180     GuHeightField.obj
 0002:000051b8       ??_C@_0DJ@CHBOMNOA@D?3?2PhysX?2physx?2source?2geomutils@ 00000001802041b8     GuHeightField.obj
 0002:000051f8       ??_C@_0CI@DMKEKGNK@Gu?3?3HeightField?3?3load?3?5PX_ALLOC@ 00000001802041f8     GuHeightField.obj
 0002:00005220       ??_C@_0DG@LACOBMDE@Gu?3?3HeightField?3?3loadFromDesc?3?5@ 0000000180204220     GuHeightField.obj
 0002:00005280       ??_C@_0DH@EJDJIMCB@HeightFieldShape?3?3getTriangle?3?5@ 0000000180204280     GuHeightFieldUtil.obj
 0002:000052b8       ??_C@_0DN@JADFGIHG@D?3?2PhysX?2physx?2source?2geomutils@ 00000001802042b8     GuHeightFieldUtil.obj
 0002:000052f8       __real@3a03126f            00000001802042f8     GuHeightFieldUtil.obj
 0002:000052fc       __real@3f19999a            00000001802042fc     GuHeightFieldUtil.obj
 0002:00005380       ??_7HeightFieldTraceSegmentReport@@6B@ 0000000180204380     GuSweepsHF.obj
 0002:00005390       ??_7CapsuleTraceSegmentReport@@6B@ 0000000180204390     GuSweepsHF.obj
 0002:000053a0       ??_7ConvexTraceSegmentReport@@6B@ 00000001802043a0     GuSweepsHF.obj
 0002:000053b0       ??_7BoxTraceSegmentReport@@6B@ 00000001802043b0     GuSweepsHF.obj
 0002:000053c0       __real@aedbe6ff            00000001802043c0     GuSweepsHF.obj
 0002:000053f0       __real@3089705f            00000001802043f0     GuIntersectionRayBox.obj
 0002:000053f4       __real@b4000000            00000001802043f4     GuIntersectionRayBox.obj
 0002:00005400       __xmm@000000003089705f3089705f3089705f 0000000180204400     GuIntersectionRayBox.obj
 0002:00005410       __xmm@00000000bf800000bf800000bf800000 0000000180204410     GuIntersectionRayBox.obj
 0002:00005460       ??_7SourceMeshBase@Gu@physx@@6B@ 0000000180204460     GuBV4.obj
 0002:00005488       ??_7SourceMesh@Gu@physx@@6B@ 0000000180204488     GuBV4.obj
 0002:000054b0       ??_7TetrahedronSourceMesh@Gu@physx@@6B@ 00000001802044b0     GuBV4.obj
 0002:000054d8       ??_C@_0DD@PLHNOIEI@D?3?2PhysX?2physx?2source?2geomutils@ 00000001802044d8     GuBV4.obj
 0002:00005510       __xmm@ff7fffffff7fffffff7fffffff7fffff 0000000180204510     GuBV4.obj
 0002:00005540       ??_C@_0DI@LIGLCPPH@D?3?2PhysX?2physx?2source?2geomutils@ 0000000180204540     GuBV4Build.obj
 0002:00005578       __real@38000100            0000000180204578     GuBV4Build.obj
 0002:0000557c       __real@3e93cd3a            000000018020457c     GuBV4Build.obj
 0002:00005580       __real@46fffe00            0000000180204580     GuBV4Build.obj
 0002:00005584       __real@be93cd3a            0000000180204584     GuBV4Build.obj
 0002:000055b0       __xmm@0000ffff0000ffff0000ffff0000ffff 00000001802045b0     GuBV4_AABBSweep.obj
 0002:000055c0       __xmm@3089705f3089705f3089705f3089705f 00000001802045c0     GuBV4_AABBSweep.obj
 0002:000055d0       __xmm@33d6bf9533d6bf9533d6bf9533d6bf95 00000001802045d0     GuBV4_AABBSweep.obj
 0002:000055e0       __xmm@40000000400000004000000040000000 00000001802045e0     GuBV4_AABBSweep.obj
 0002:00005670       __xmm@322bcc77322bcc77322bcc77322bcc77 0000000180204670     GuBV4_MeshMeshOverlap.obj
 0002:000056c0       __real@00000000            00000001802046c0     GuBV4_Raycast.obj
 0002:000056f0       __real@4f7fffff            00000001802046f0     GuBV4_SphereOverlap.obj
 0002:000057d0       __xmm@000000007f7fffff0000000000000000 00000001802047d0     GuMidphaseBV4.obj
 0002:000058a0       ??_C@_0DK@FFHPKGEP@PxMeshQuery?3?3getTriangle?3?5trian@ 00000001802048a0     GuMeshQuery.obj
 0002:000058e0       ??_C@_0DJ@CEPGDFIL@D?3?2PhysX?2physx?2source?2geomutils@ 00000001802048e0     GuMeshQuery.obj
 0002:00005920       ??_C@_0FD@EHCCILIF@Adjacency?5information?5not?5creat@ 0000000180204920     GuMeshQuery.obj
 0002:00005980       ??_C@_0FA@MCAAGAGM@findOverlapTriangleMesh?3?5Only?5b@ 0000000180204980     GuMeshQuery.obj
 0002:000059d0       ??_C@_0FL@BKNMAHIA@PxMeshQuery?3?3findOverlapTriangl@ 00000001802049d0     GuMeshQuery.obj
 0002:00005a30       ??_C@_0EM@BEFNLPHI@findOverlapHeightField?3?5Only?5bo@ 0000000180204a30     GuMeshQuery.obj
 0002:00005a80       ??_C@_0CJ@NLNHIMDM@PxMeshQuery?3?3sweep?$CI?$CJ?3?5pose?5is?5n@ 0000000180204a80     GuMeshQuery.obj
 0002:00005ab0       ??_C@_0CM@BFKJPOOO@PxMeshQuery?3?3sweep?$CI?$CJ?3?5unitDir?5i@ 0000000180204ab0     GuMeshQuery.obj
 0002:00005ae0       ??_C@_0CN@JKBDLLPP@PxMeshQuery?3?3sweep?$CI?$CJ?3?5distance?5@ 0000000180204ae0     GuMeshQuery.obj
 0002:00005b10       ??_C@_0DN@DPNNFGGF@PxMeshQuery?3?3sweep?$CI?$CJ?3?5sweep?5dis@ 0000000180204b10     GuMeshQuery.obj
 0002:00005b50       ??_C@_0BA@MBAFFELP@MeshQuery?4sweep@ 0000000180204b50     GuMeshQuery.obj
 0002:00005b60       ??_C@_0FJ@GNAHJJCM@PxMeshQuery?3?3sweep?$CI?$CJ?3?5geometry?5@ 0000000180204b60     GuMeshQuery.obj
 0002:00005bbc       __real@4cbebc20            0000000180204bbc     GuMeshQuery.obj
 0002:00005c70       ??_7Callback@RTree@Gu@physx@@6B@ 0000000180204c70     GuMidphaseRTree.obj
 0002:00005c88       ??_7?$RayRTreeCallback@$00$0A@@@6BCallbackRaycast@RTree@Gu@physx@@@ 0000000180204c88     GuMidphaseRTree.obj
 0002:00005c88       ??_7?$RayRTreeCallback@$0A@$0A@@@6BCallbackRaycast@RTree@Gu@physx@@@ 0000000180204c88     GuMidphaseRTree.obj
 0002:00005c98       ??_7?$RayRTreeCallback@$00$0A@@@6BCallback@RTree@Gu@physx@@@ 0000000180204c98     GuMidphaseRTree.obj
 0002:00005c98       ??_7?$RayRTreeCallback@$0A@$0A@@@6BCallback@RTree@Gu@physx@@@ 0000000180204c98     GuMidphaseRTree.obj
 0002:00005cb0       ??_7RayMeshColliderCallback@@6B@ 0000000180204cb0     GuMidphaseRTree.obj
 0002:00005cc0       ??_C@_0EN@DPPFLBLF@Point?9mesh?5distance?5query?5not?5s@ 0000000180204cc0     GuMidphaseRTree.obj
 0002:00005d10       ??_C@_0DN@FOJGNPID@D?3?2PhysX?2physx?2source?2geomutils@ 0000000180204d10     GuMidphaseRTree.obj
 0002:00005d50       ??_7?$RayRTreeCallback@$0A@$00@@6BCallbackRaycast@RTree@Gu@physx@@@ 0000000180204d50     GuMidphaseRTree.obj
 0002:00005d60       ??_7?$RayRTreeCallback@$0A@$00@@6BCallback@RTree@Gu@physx@@@ 0000000180204d60     GuMidphaseRTree.obj
 0002:00005d78       ??_7?$RayRTreeCallback@$00$00@@6BCallbackRaycast@RTree@Gu@physx@@@ 0000000180204d78     GuMidphaseRTree.obj
 0002:00005d88       ??_7?$RayRTreeCallback@$00$00@@6BCallback@RTree@Gu@physx@@@ 0000000180204d88     GuMidphaseRTree.obj
 0002:00005e00       __xmm@7f7fffff000000000000000000000000 0000000180204e00     GuMidphaseRTree.obj
 0002:00005ec0       ??_7PxReportCallbackBase@physx@@6B@ 0000000180204ec0     GuOverlapTestsMesh.obj
 0002:00005ef0       ??_C@_0EP@CEFGCJKJ@PxGeometryQuery?3?3overlap?$CI?$CJ?3?5onl@ 0000000180204ef0     GuOverlapTestsMesh.obj
 0002:00005f40       ??_C@_0EA@MGOFKLMF@D?3?2PhysX?2physx?2source?2geomutils@ 0000000180204f40     GuOverlapTestsMesh.obj
 0002:00005f90       ?MN@RTreePage@Gu@physx@@2MB 0000000180204f90     GuRTree.obj
 0002:00005f94       ?MX@RTreePage@Gu@physx@@2MB 0000000180204f94     GuRTree.obj
 0002:00005fc0       ??_C@_0DF@FOMPGMNN@D?3?2PhysX?2physx?2source?2geomutils@ 0000000180204fc0     GuRTree.obj
 0002:000060d0       ??_7SweepShapeMeshHitCallback@Gu@physx@@6B@ 00000001802050d0     GuSweepsMesh.obj
 0002:000060e0       ??_7SweepCapsuleMeshHitCallback@Gu@physx@@6B@ 00000001802050e0     GuSweepsMesh.obj
 0002:000060f0       ??_7SweepBoxMeshHitCallback@Gu@physx@@6B@ 00000001802050f0     GuSweepsMesh.obj
 0002:00006100       ??_7SweepConvexMeshHitCallback@Gu@physx@@6B@ 0000000180205100     GuSweepsMesh.obj
 0002:000061c0       ??_C@_0P@GGNFNHKF@PxTriangleMesh@ 00000001802051c0     GuTriangleMesh.obj
 0002:000061d0       ??_C@_0DB@FFMOEBKM@D?3?2PhysX?2physx?2include?2geometry@ 00000001802051d0     GuTriangleMesh.obj
 0002:00006208       ??_7TriangleMesh@Gu@physx@@6B@ 0000000180205208     GuTriangleMesh.obj
 0002:000062e0       ??_C@_0DD@LOOPMCGG@PxTriangleMesh?3?3release?3?5double@ 00000001802052e0     GuTriangleMesh.obj
 0002:00006320       ??_C@_0FH@PMPAJDGI@PxTriangleMesh?3?3getVerticesForM@ 0000000180205320     GuTriangleMesh.obj
 0002:00006378       ??_C@_0DM@NPJHCDFJ@D?3?2PhysX?2physx?2source?2geomutils@ 0000000180205378     GuTriangleMesh.obj
 0002:000063c0       ??_C@_0EF@GMNFLDH@PxTriangleMesh?3?3refitBVH?$CI?$CJ?5is?5n@ 00000001802053c0     GuTriangleMesh.obj
 0002:00006410       __xmm@38383838383838383838383838383838 0000000180205410     GuTriangleMesh.obj
 0002:00006440       ??_C@_0BE@CNJKIINO@PxBVH34TriangleMesh@ 0000000180205440     GuTriangleMeshBV4.obj
 0002:00006458       ??_7BV4TriangleMesh@Gu@physx@@6B@ 0000000180205458     GuTriangleMeshBV4.obj
 0002:00006530       ??_C@_0EF@JLFNNPLP@BVH34?5trees?3?5refit?5operation?5on@ 0000000180205530     GuTriangleMeshBV4.obj
 0002:00006578       ??_C@_0DP@IPAHCLPM@D?3?2PhysX?2physx?2source?2geomutils@ 0000000180205578     GuTriangleMeshBV4.obj
 0002:000065b8       __real@3951b717            00000001802055b8     GuTriangleMeshBV4.obj
 0002:000065e0       ??_C@_0BE@EIFHCCBO@PxBVH33TriangleMesh@ 00000001802055e0     GuTriangleMeshRTree.obj
 0002:000065f8       ??_7RTreeTriangleMesh@Gu@physx@@6B@ 00000001802055f8     GuTriangleMeshRTree.obj
 0002:000066d0       ??_7?$RefitCallback@G@physx@@6B@ 00000001802056d0     GuTriangleMeshRTree.obj
 0002:000066e0       ??_7?$RefitCallback@I@physx@@6B@ 00000001802056e0     GuTriangleMeshRTree.obj
 0002:00006710       ??_C@_0DE@ELPFFFL@D?3?2PhysX?2physx?2source?2geomutils@ 0000000180205710     GuBV32.obj
 0002:00006770       ??_C@_0DJ@HBDMOLLO@D?3?2PhysX?2physx?2source?2geomutils@ 0000000180205770     GuBV32Build.obj
 0002:00006860       ??_C@_0BC@FDAIDHBP@PxTetrahedronMesh@ 0000000180205860     GuTetrahedronMesh.obj
 0002:00006878       ??_C@_0DE@IAIJLFII@D?3?2PhysX?2physx?2include?2geometry@ 0000000180205878     GuTetrahedronMesh.obj
 0002:000068b0       ??_C@_0BK@EPBIEMIB@PxDeformableVolumeAuxData@ 00000001802058b0     GuTetrahedronMesh.obj
 0002:000068d0       ??_C@_0BH@OHONILPI@PxDeformableVolumeMesh@ 00000001802058d0     GuTetrahedronMesh.obj
 0002:000068e8       ??_7DeformableVolumeAuxData@Gu@physx@@6B@ 00000001802058e8     GuTetrahedronMesh.obj
 0002:00006930       ??_7TetrahedronMesh@Gu@physx@@6B@ 0000000180205930     GuTetrahedronMesh.obj
 0002:000069a8       ??_7BVTetrahedronMesh@Gu@physx@@6B@ 00000001802059a8     GuTetrahedronMesh.obj
 0002:00006a20       ??_7DeformableVolumeMesh@Gu@physx@@6B@ 0000000180205a20     GuTetrahedronMesh.obj
 0002:00006aa0       ??_C@_0DG@JJNMDPMD@PxTetrahedronMesh?3?3release?3?5dou@ 0000000180205aa0     GuTetrahedronMesh.obj
 0002:00006ad8       ??_C@_0DL@IHNCIOFH@PxDeformableVolumeMesh?3?3release@ 0000000180205ad8     GuTetrahedronMesh.obj
 0002:00006b18       ??_C@_0DP@GNEEMBGI@D?3?2PhysX?2physx?2source?2geomutils@ 0000000180205b18     GuTetrahedronMesh.obj
 0002:00006ba0       __xmm@00000000358637bd358637bd358637bd 0000000180205ba0     GuPCMContactBoxBox.obj
 0002:00006bb0       __xmm@3f4ccccd3f4ccccd3f4ccccd3f4ccccd 0000000180205bb0     GuPCMContactBoxBox.obj
 0002:00006bc0       __xmm@3f8003473f8003473f8003473f800347 0000000180205bc0     GuPCMContactBoxBox.obj
 0002:00006bd0       __xmm@ffffffff00000000ffffffffffffffff 0000000180205bd0     GuPCMContactBoxBox.obj
 0002:00006c00       ??_7?$LocalConvex@VConvexHullNoScaleV@Gu@physx@@@Gu@physx@@6B@ 0000000180205c00     GuPCMContactBoxConvex.obj
 0002:00006c30       __xmm@3f3504f33f3504f33f3504f33f3504f3 0000000180205c30     GuPCMContactBoxConvex.obj
 0002:00006c80       __xmm@ffffffffffffffffffffffff00000000 0000000180205c80     GuPCMContactCapsuleCapsule.obj
 0002:00006cb0       __xmm@3fa000003fa000003fa000003fa00000 0000000180205cb0     GuPCMContactCapsuleConvex.obj
 0002:00006d70       ??_7PCMCapsuleVsHeightfieldContactGenerationCallback@@6B@ 0000000180205d70     GuPCMContactCapsuleHeightField.obj
 0002:00006d80       __real@3f7f3b64            0000000180205d80     GuPCMContactCapsuleHeightField.obj
 0002:00006d90       __xmm@3ca3d70a3ca3d70a3ca3d70a3ca3d70a 0000000180205d90     GuPCMContactCapsuleHeightField.obj
 0002:00006e60       __xmm@3f7ff9723f7ff9723f7ff9723f7ff972 0000000180205e60     GuPCMContactCapsuleMesh.obj
 0002:00006e70       __xmm@3f7fffef3f7fffef3f7fffef3f7fffef 0000000180205e70     GuPCMContactCapsuleMesh.obj
 0002:00006e80       __xmm@60ad78ec60ad78ec60ad78ec60ad78ec 0000000180205e80     GuPCMContactCapsuleMesh.obj
 0002:00006eb0       ??_7?$SupportLocalImpl@VTriangleV@Gu@physx@@@Gu@physx@@6B@ 0000000180205eb0     GuPCMContactConvexCommon.obj
 0002:00006ed0       __xmm@3cf5c2803cf5c2803cf5c2803cf5c280 0000000180205ed0     GuPCMContactConvexCommon.obj
 0002:00006ee0       __xmm@3f7851ec3f7851ec3f7851ec3f7851ec 0000000180205ee0     GuPCMContactConvexCommon.obj
 0002:00006f10       ??_7?$RelativeConvex@VConvexHullNoScaleV@Gu@physx@@@Gu@physx@@6B@ 0000000180205f10     GuPCMContactConvexConvex.obj
 0002:00007000       __xmm@3f19999a3f19999a3f19999a3f19999a 0000000180206000     GuPCMContactConvexHeightField.obj
 0002:000070f0       __xmm@3f34fdf43f34fdf43f34fdf43f34fdf4 00000001802060f0     GuPCMContactGenBoxConvex.obj
 0002:00007120       __xmm@3f80a3d73f80a3d73f80a3d73f80a3d7 0000000180206120     GuPCMContactGenSphereCapsule.obj
 0002:00007130       __xmm@bba3d70abba3d70abba3d70abba3d70a 0000000180206130     GuPCMContactGenSphereCapsule.obj
 0002:00007160       __xmm@3f7ffd613f7ffd613f7ffd613f7ffd61 0000000180206160     GuPCMContactPlaneBox.obj
 0002:000071b0       __xmm@3a03126f3a03126f3a03126f3a03126f 00000001802061b0     GuPCMContactPlaneConvex.obj
 0002:000073e0       __xmm@3727c5ac3727c5ac3727c5ac3727c5ac 00000001802063e0     GuPCMContactSphereSphere.obj
 0002:00007410       __xmm@3f7f06f73f7f06f73f7f06f73f7f06f7 0000000180206410     GuPCMContactCustomGeometry.obj
 0002:00007430       ?gPCMBoxPolygonData@Gu@physx@@3QBEB 0000000180206430     GuPCMShapeConvex.obj
 0002:00007490       ?invalidateThresholds@Gu@physx@@3QBMB 0000000180206490     GuPersistentContactManifold.obj
 0002:000074a8       ?invalidateQuatThresholds@Gu@physx@@3QBMB 00000001802064a8     GuPersistentContactManifold.obj
 0002:000074c0       ?invalidateThresholds2@Gu@physx@@3QBMB 00000001802064c0     GuPersistentContactManifold.obj
 0002:000074d0       ?invalidateQuatThresholds2@Gu@physx@@3QBMB 00000001802064d0     GuPersistentContactManifold.obj
 0002:000074f0       __xmm@00000000340000003400000034000000 00000001802064f0     GuPersistentContactManifold.obj
 0002:00007500       __xmm@ffffffffffffffff00000000ffffffff 0000000180206500     GuPersistentContactManifold.obj
 0002:00007530       __xmm@c1200000c1200000c1200000c1200000 0000000180206530     GuPCMContactGenUtil.obj
 0002:00007680       ??_C@_0CH@DHJGKCPD@Gu?3?3computeBounds?3?5Unknown?5shap@ 0000000180206680     GuBounds.obj
 0002:000076a8       ??_C@_0DB@JINGOCOA@D?3?2PhysX?2physx?2source?2geomutils@ 00000001802066a8     GuBounds.obj
 0002:000076dc       __real@34800000            00000001802066dc     GuBounds.obj
 0002:000076e0       __real@3f7fffef            00000001802066e0     GuBounds.obj
 0002:000076f0       __xmm@3f8147ae3f8147ae3f8147ae3f8147ae 00000001802066f0     GuBounds.obj
 0002:00007720       ??_C@_0DD@MEAPKLCI@D?3?2PhysX?2physx?2source?2geomutils@ 0000000180206720     GuAABBTree.obj
 0002:00007760       __xmm@5a60b17f5a60b17f5a60b17f5a60b17f 0000000180206760     GuAABBTree.obj
 0002:00007770       __xmm@da60b17fda60b17fda60b17fda60b17f 0000000180206770     GuAABBTree.obj
 0002:000077e0       ??_C@_0DO@CHCDPIL@D?3?2PhysX?2physx?2source?2geomutils@ 00000001802067e0     GuIncrementalAABBTree.obj
 0002:00007820       ??_C@_0CL@LPHELFGD@D?3?2PhysX?2physx?2include?2foundati@ 0000000180206820     GuIncrementalAABBTree.obj
 0002:00007850       ??_C@_0CO@LGPHHOHA@D?3?2PhysX?2physx?2source?2geomutils@ 0000000180206850     GuSAH.obj
 0002:000078a0       ??_7PxBVH@physx@@6B@       00000001802068a0     GuBVH.obj
 0002:00007918       ??_C@_05OKJNPKBM@PxBVH@    0000000180206918     GuBVH.obj
 0002:00007920       ??_C@_0CI@GMNOCHHB@D?3?2PhysX?2physx?2include?2geometry@ 0000000180206920     GuBVH.obj
 0002:00007948       ??_7RefCountable@Cm@physx@@6B@ 0000000180206948     GuBVH.obj
 0002:00007958       ??_7BVH@Gu@physx@@6BPxBVH@2@@ 0000000180206958     GuBVH.obj
 0002:000079d0       ??_7BVH@Gu@physx@@6BRefCountable@Cm@2@@ 00000001802069d0     GuBVH.obj
 0002:000079e0       ??_C@_0CO@KEJPONIF@D?3?2PhysX?2physx?2source?2geomutils@ 00000001802069e0     GuBVH.obj
 0002:00007a10       ??_C@_0CK@HAIOEINI@PxBVH?3?3release?3?5double?5deletion@ 0000000180206a10     GuBVH.obj
 0002:00007a60       ??_C@_0EE@FKBNDMKK@D?3?2PhysX?2physx?2source?2geomutils@ 0000000180206a60     GuIncrementalAABBPrunerCore.obj
 0002:00007aa4       __real@3f80a3d7            0000000180206aa4     GuIncrementalAABBPrunerCore.obj
 0002:00007ad0       ??_7BasePruner@Gu@physx@@6B@ 0000000180206ad0     GuIncrementalAABBPruner.obj
 0002:00007ae8       ??_7IncrementalAABBPruner@Gu@physx@@6B@ 0000000180206ae8     GuIncrementalAABBPruner.obj
 0002:00007b70       ??_C@_0BM@FLAABPLG@SceneQuery?4prunerAddObjects@ 0000000180206b70     GuIncrementalAABBPruner.obj
 0002:00007b90       ??_C@_0BP@EAAOKPEE@SceneQuery?4prunerUpdateObjects@ 0000000180206b90     GuIncrementalAABBPruner.obj
 0002:00007bb0       ??_C@_0BP@EHMBNBOH@SceneQuery?4prunerRemoveObjects@ 0000000180206bb0     GuIncrementalAABBPruner.obj
 0002:00007bd0       ??_C@_0BI@HOKOKBIM@SceneQuery?4prunerCommit@ 0000000180206bd0     GuIncrementalAABBPruner.obj
 0002:00007bf0       ??_C@_0EA@BPKFCLKK@D?3?2PhysX?2physx?2source?2geomutils@ 0000000180206bf0     GuIncrementalAABBPruner.obj
 0002:00007c50       ??_C@_0BE@PKINCBHP@PruningPool?3?3resize@ 0000000180206c50     GuPruningPool.obj
 0002:00007c68       ??_C@_0DG@FEJMHBLC@D?3?2PhysX?2physx?2source?2geomutils@ 0000000180206c68     GuPruningPool.obj
 0002:00007ca0       ??_C@_0BI@HMDEMGJB@PruningPool?3?3addObjects@ 0000000180206ca0     GuPruningPool.obj
 0002:00007cb8       ??_C@_0BK@JPNIEHEJ@PruningPool?3?3removeObject@ 0000000180206cb8     GuPruningPool.obj
 0002:00007cd8       ??_C@_0BJ@GNLAFFBD@PruningPool?3?3shiftOrigin@ 0000000180206cd8     GuPruningPool.obj
 0002:00007cf8       ??_C@_0CE@MGPCCKGE@PruningPool?3?3updateAndInflateBo@ 0000000180206cf8     GuPruningPool.obj
 0002:00007d60       ??_7BucketPruner@Gu@physx@@6B@ 0000000180206d60     GuBucketPruner.obj
 0002:00007de8       ??_C@_0DH@BJJIPDIL@D?3?2PhysX?2physx?2source?2geomutils@ 0000000180206de8     GuBucketPruner.obj
 0002:00007e20       __xmm@000000007e7fffff7e7fffff7e7fffff 0000000180206e20     GuBucketPruner.obj
 0002:00007e30       __xmm@00000000fe7ffffffe7ffffffe7fffff 0000000180206e30     GuBucketPruner.obj
 0002:00007e40       __xmm@3f13cd3a3f13cd3a3f13cd3a3f13cd3a 0000000180206e40     GuBucketPruner.obj
 0002:00007e50       __xmm@bf13cd3a3f13cd3a3f13cd3abf13cd3a 0000000180206e50     GuBucketPruner.obj
 0002:00007e60       __xmm@bf13cd3a3f13cd3abf13cd3a3f13cd3a 0000000180206e60     GuBucketPruner.obj
 0002:00007e70       __xmm@bf13cd3abf13cd3a3f13cd3a3f13cd3a 0000000180206e70     GuBucketPruner.obj
 0002:00007e80       __xmm@bf13cd3abf13cd3abf13cd3a3f13cd3a 0000000180206e80     GuBucketPruner.obj
 0002:00007e90       ?mIndices@MaverickNode@Gu@physx@@2QBIB 0000000180206e90     GuMaverickNode.obj
 0002:00007ef0       ??_C@_0DP@DJAOACIF@D?3?2PhysX?2physx?2source?2geomutils@ 0000000180206ef0     GuExtendedBucketPruner.obj
 0002:00007f50       ??_7CompanionPruner@Gu@physx@@6B@ 0000000180206f50     GuSecondaryPruner.obj
 0002:00007fd0       ??_7CompanionPrunerBucket@@6B@ 0000000180206fd0     GuSecondaryPruner.obj
 0002:00008050       ??_7CompanionPrunerIncremental@@6B@ 0000000180207050     GuSecondaryPruner.obj
 0002:000080d0       ??_7CompanionPrunerAABBTree@@6B@ 00000001802070d0     GuSecondaryPruner.obj
 0002:00008150       ??_C@_0DK@ONFAHEBI@D?3?2PhysX?2physx?2source?2geomutils@ 0000000180207150     GuSecondaryPruner.obj
 0002:000081b0       ??_7AABBPruner@Gu@physx@@6B@ 00000001802071b0     GuAABBPruner.obj
 0002:00008250       ??_C@_0CC@JANKLMNO@SceneQuery?4bucketPrunerAddObjec@ 0000000180207250     GuAABBPruner.obj
 0002:00008280       ??_C@_0LA@IHBEIKND@SceneQuery?5static?5AABB?5Tree?5reb@ 0000000180207280     GuAABBPruner.obj
 0002:00008330       ??_C@_0DF@GNONFFKA@D?3?2PhysX?2physx?2source?2geomutils@ 0000000180207330     GuAABBPruner.obj
 0002:00008368       ??_C@_0CB@JOCHAJIC@SceneQuery?4prunerNewTreeFinaliz@ 0000000180207368     GuAABBPruner.obj
 0002:00008390       ??_C@_0BP@IOICCIGM@SceneQuery?4prunerNewTreeSwitch@ 0000000180207390     GuAABBPruner.obj
 0002:000083b0       ??_C@_0CA@LJGALBJD@SceneQuery?4prunerNewTreeMapping@ 00000001802073b0     GuAABBPruner.obj
 0002:000083d0       ??_C@_0CD@OCIEMIME@SceneQuery?4prunerNewTreeFinalRe@ 00000001802073d0     GuAABBPruner.obj
 0002:000083f8       ??_C@_0CG@PMFEEPAE@SceneQuery?4prunerNewTreeRemoveO@ 00000001802073f8     GuAABBPruner.obj
 0002:00008420       ??_C@_0BL@NAENOAHO@SceneQuery?4prunerBuildStep@ 0000000180207420     GuAABBPruner.obj
 0002:00008440       ??_C@_0CC@MJCIDELA@SceneQuery?4prunerNewTreeFullRef@ 0000000180207440     GuAABBPruner.obj
 0002:00008468       ??_C@_0BI@DAHHAEPA@SceneQuery?4prepareBuild@ 0000000180207468     GuAABBPruner.obj
 0002:00008480       ??_C@_0CF@PDMDBIIO@SceneQuery?4prunerFullRebuildAAB@ 0000000180207480     GuAABBPruner.obj
 0002:000084a8       ??_C@_0CE@GKMPPEJP@SceneQuery?4prunerUpdateBucketPr@ 00000001802074a8     GuAABBPruner.obj
 0002:000084d0       ??_C@_0CI@MKOHFNNO@SceneQuery?4prunerRefitUpdatedAn@ 00000001802074d0     GuAABBPruner.obj
 0002:000084f8       ??_C@_0DI@LKNMHFCE@D?3?2PhysX?2physx?2source?2geomutils@ 00000001802074f8     GuActorShapeMap.obj
 0002:00008550       ??_C@_0BF@DNABLJAF@Invalid?5pruner?5index@ 0000000180207550     GuQuerySystem.obj
 0002:00008568       ??_C@_0DG@KPKIJDI@D?3?2PhysX?2physx?2source?2geomutils@ 0000000180207568     GuQuerySystem.obj
 0002:000085a0       ??_C@_0BO@MMDENGGP@QuerySystem?4processDirtyLists@ 00000001802075a0     GuQuerySystem.obj
 0002:000085c0       ??_C@_0BE@PHJMAGEL@QuerySystem?3?3update@ 00000001802075c0     GuQuerySystem.obj
 0002:000085d8       ??_C@_0BK@GODFCMPK@QuerySystem?4commitUpdates@ 00000001802075d8     GuQuerySystem.obj
 0002:00008628       ??_C@_0CA@NAJNANMC@QuerySystem?4createTreeOfPruners@ 0000000180207628     GuQuerySystem.obj
 0002:00008670       ??_C@_0DC@MFNKCPHB@D?3?2PhysX?2physx?2source?2geomutils@ 0000000180207670     GuFactory.obj
 0002:000086d0       ?reductionFactors@SubSortQuick@physx@@2QBMB 00000001802076d0     GuRTreeCooking.obj
 0002:000086e0       ?stopAtTrisPerLeaf1@SubSortQuick@physx@@2QBIB 00000001802076e0     GuRTreeCooking.obj
 0002:00008788       ??_C@_0DP@NPNKEIHA@D?3?2PhysX?2physx?2source?2geomutils@ 0000000180207788     GuRTreeCooking.obj
 0002:000087c8       __real@41100000            00000001802077c8     GuRTreeCooking.obj
 0002:000087cc       __real@41700000            00000001802077cc     GuRTreeCooking.obj
 0002:000087d0       __real@42200000            00000001802077d0     GuRTreeCooking.obj
 0002:000087e0       __xmm@00000004000000030000000200000001 00000001802077e0     GuRTreeCooking.obj
 0002:00008810       ??_C@_0DN@JIOHKGPD@D?3?2PhysX?2physx?2source?2geomutils@ 0000000180207810     GuCookingBVH.obj
 0002:00008850       ??_C@_0DL@JHPKHGFA@Cooking?3?3cookBVH?3?5user?9provided@ 0000000180207850     GuCookingBVH.obj
 0002:00008890       ??_C@_0DN@PLNPGFEB@Cooking?3?3createBVH?3?5user?9provid@ 0000000180207890     GuCookingBVH.obj
 0002:000088d0       ??_C@_0EL@JCJBAPHL@Cooking?3?3cookHeightField?3?5user?9@ 00000001802078d0     GuCookingHF.obj
 0002:00008920       ??_C@_0DM@KDEJHMIP@D?3?2PhysX?2physx?2source?2geomutils@ 0000000180207920     GuCookingHF.obj
 0002:00008960       ??_C@_0EN@FCEPCAFC@Cooking?3?3createHeightField?3?5use@ 0000000180207960     GuCookingHF.obj
 0002:000089b0       ??_C@_0EK@EKAIJEBL@Cooking?3?3cookConvexMesh?3?5user?9p@ 00000001802079b0     GuCookingConvexMesh.obj
 0002:00008a00       ??_C@_0FA@GFFGAPML@Cooking?3?3cookConvexMesh?3?5provid@ 0000000180207a00     GuCookingConvexMesh.obj
 0002:00008a50       ??_C@_0EP@PKDCPNNO@Cooking?3?3cookConvexMesh?3?5provid@ 0000000180207a50     GuCookingConvexMesh.obj
 0002:00008aa0       ??_C@_0EO@LKFMMDE@Cooking?3?3cookConvexMesh?3?5user?9p@ 0000000180207aa0     GuCookingConvexMesh.obj
 0002:00008af0       ??_C@_0EL@KJEPJALG@Cooking?3?3cookConvexMesh?3?5user?9p@ 0000000180207af0     GuCookingConvexMesh.obj
 0002:00008b40       ??_C@_0FM@LHMEBKMM@Cooking?3?3cookConvexMesh?3?5GPU?9co@ 0000000180207b40     GuCookingConvexMesh.obj
 0002:00008ba0       ??_C@_0FJ@FHCFFABE@Cooking?3?3cookConvexMesh?3?5GPU?9co@ 0000000180207ba0     GuCookingConvexMesh.obj
 0002:00008c00       ??_C@_0LM@CHONPBFM@Cooking?3?3cookConvexMesh?3?5GPU?9co@ 0000000180207c00     GuCookingConvexMesh.obj
 0002:00008cc0       ??_C@_0EE@EENIEELH@D?3?2PhysX?2physx?2source?2geomutils@ 0000000180207cc0     GuCookingConvexMesh.obj
 0002:00008d30       ??_7TriangleMeshBuilder@physx@@6B@ 0000000180207d30     GuCookingTriangleMesh.obj
 0002:00008d58       ??_7RTreeTriangleMeshBuilder@physx@@6B@ 0000000180207d58     GuCookingTriangleMesh.obj
 0002:00008d80       ??_7BV4TriangleMeshBuilder@physx@@6B@ 0000000180207d80     GuCookingTriangleMesh.obj
 0002:00008db0       ??_C@_0EG@KPMAIKAI@D?3?2PhysX?2physx?2source?2geomutils@ 0000000180207db0     GuCookingTriangleMesh.obj
 0002:00008e00       ??_C@_0EM@DBPINPE@TriangleMeshBuilder?3?3cleanMesh?3@ 0000000180207e00     GuCookingTriangleMesh.obj
 0002:00008e50       ??_C@_0EF@MLNDPEDJ@TriangleMeshBuilder?3?3cleanMesh?3@ 0000000180207e50     GuCookingTriangleMesh.obj
 0002:00008ea0       ??_C@_0FJ@HHJLKGDF@TriangleMesh?3?5triangles?5are?5too@ 0000000180207ea0     GuCookingTriangleMesh.obj
 0002:00008f00       ??_C@_0CN@KGPHHHLK@TriangleMesh?3?5mesh?5is?5too?5big?5f@ 0000000180207f00     GuCookingTriangleMesh.obj
 0002:00008f30       ??_C@_0DD@CMJGDCNN@TriangleMesh?3?3loadFromDesc?3?5des@ 0000000180207f30     GuCookingTriangleMesh.obj
 0002:00008f70       ??_C@_0ED@ILJJNHIP@TriangleMesh?3?3loadFromDesc?3?5mPa@ 0000000180207f70     GuCookingTriangleMesh.obj
 0002:00008fb8       ??_C@_0CK@BJFFGDPK@input?5mesh?5contains?5corrupted?5v@ 0000000180207fb8     GuCookingTriangleMesh.obj
 0002:00008ff0       ??_C@_0EP@FHJBNFFH@Requesting?5SDF?5for?5mesh?5without@ 0000000180207ff0     GuCookingTriangleMesh.obj
 0002:00009040       ??_C@_0CC@BPIMLJA@input?5sdf?5contains?5corrupted?5da@ 0000000180208040     GuCookingTriangleMesh.obj
 0002:00009068       ??_C@_0BK@JIDHMMCE@BV4?5tree?5failed?5to?5build?4@ 0000000180208068     GuCookingTriangleMesh.obj
 0002:00009088       ??_C@_0BL@DHNECNBE@BV32?5tree?5failed?5to?5build?4@ 0000000180208088     GuCookingTriangleMesh.obj
 0002:000090a8       ??_7RTreeCookerRemap@@6B@  00000001802080a8     GuCookingTriangleMesh.obj
 0002:000090c0       ??_C@_0FC@PJIHAFK@Cooking?3?3validateTriangleMesh?3?5@ 00000001802080c0     GuCookingTriangleMesh.obj
 0002:000091a0       ??_7PxCollisionTetrahedronMeshData@physx@@6B@ 00000001802081a0     GuCookingTetrahedronMesh.obj
 0002:000091d0       ??_7PxSimulationTetrahedronMeshData@physx@@6B@ 00000001802081d0     GuCookingTetrahedronMesh.obj
 0002:000091f0       ??_7CollisionTetrahedronMeshData@Gu@physx@@6B@ 00000001802081f0     GuCookingTetrahedronMesh.obj
 0002:00009220       ??_7SimulationTetrahedronMeshData@Gu@physx@@6B@ 0000000180208220     GuCookingTetrahedronMesh.obj
 0002:00009240       ??_C@_0EJ@IKPAEGGI@D?3?2PhysX?2physx?2source?2geomutils@ 0000000180208240     GuCookingTetrahedronMesh.obj
 0002:00009290       ??_7?$LocalConvex@VTetrahedronV@Gu@physx@@@Gu@physx@@6B@ 0000000180208290     GuCookingTetrahedronMesh.obj
 0002:000092c0       ??_C@_0CD@OJGNHLOE@BV4_AABBTree?5tree?5failed?5to?5bui@ 00000001802082c0     GuCookingTetrahedronMesh.obj
 0002:000092e8       ??_C@_0DG@NCNIEEHB@TetrahedronMesh?3?3loadFromDesc?3?5@ 00000001802082e8     GuCookingTetrahedronMesh.obj
 0002:00009320       ??_C@_0EG@CJIFGLMC@TetrahedronMesh?3?3loadFromDesc?3?5@ 0000000180208320     GuCookingTetrahedronMesh.obj
 0002:00009368       __real@be2aaaab            0000000180208368     GuCookingTetrahedronMesh.obj
 0002:00009370       __xmm@00000003000000030000000300000003 0000000180208370     GuCookingTetrahedronMesh.obj
 0002:000093a0       __real@3bc79ca10c924223    00000001802083a0     GuCookingVolumeIntegration.obj
 0002:000093a8       __real@3f91111111111111    00000001802083a8     GuCookingVolumeIntegration.obj
 0002:000093b0       __real@3fa5555555555555    00000001802083b0     GuCookingVolumeIntegration.obj
 0002:000093b8       __real@3fa999999999999a    00000001802083b8     GuCookingVolumeIntegration.obj
 0002:000093c0       __real@3fb5555555555555    00000001802083c0     GuCookingVolumeIntegration.obj
 0002:000093c8       __real@3fc5555555555555    00000001802083c8     GuCookingVolumeIntegration.obj
 0002:000093d0       __real@3fe0000000000000    00000001802083d0     GuCookingVolumeIntegration.obj
 0002:000093d8       __real@3ff0000000000000    00000001802083d8     GuCookingVolumeIntegration.obj
 0002:000093e0       __real@4008000000000000    00000001802083e0     GuCookingVolumeIntegration.obj
 0002:000093e8       __real@4010000000000000    00000001802083e8     GuCookingVolumeIntegration.obj
 0002:000093f0       __real@bf91111111111111    00000001802083f0     GuCookingVolumeIntegration.obj
 0002:000093f8       __real@bfa999999999999a    00000001802083f8     GuCookingVolumeIntegration.obj
 0002:00009400       __real@bfb5555555555555    0000000180208400     GuCookingVolumeIntegration.obj
 0002:00009408       __real@bfc5555555555555    0000000180208408     GuCookingVolumeIntegration.obj
 0002:00009410       __xmm@3c0888893c0888893c0888893c088889 0000000180208410     GuCookingVolumeIntegration.obj
 0002:00009420       __xmm@3c8888893c8888893c8888893c888889 0000000180208420     GuCookingVolumeIntegration.obj
 0002:00009430       __xmm@3d2aaaab3d2aaaab3d2aaaab3d2aaaab 0000000180208430     GuCookingVolumeIntegration.obj
 0002:00009440       __xmm@3e2aaaab3e2aaaab3e2aaaab3e2aaaab 0000000180208440     GuCookingVolumeIntegration.obj
 0002:00009450       __xmm@3f811111111111113f81111111111111 0000000180208450     GuCookingVolumeIntegration.obj
 0002:00009460       __xmm@3f811111111111113f91111111111111 0000000180208460     GuCookingVolumeIntegration.obj
 0002:00009470       __xmm@3f911111111111113f91111111111111 0000000180208470     GuCookingVolumeIntegration.obj
 0002:00009480       __xmm@3fa55555555555553fa5555555555555 0000000180208480     GuCookingVolumeIntegration.obj
 0002:00009490       __xmm@3fa55555555555553fc5555555555555 0000000180208490     GuCookingVolumeIntegration.obj
 0002:000094a0       __xmm@3fd55555555555553fd5555555555555 00000001802084a0     GuCookingVolumeIntegration.obj
 0002:000094b0       __xmm@3fe00000000000003fe0000000000000 00000001802084b0     GuCookingVolumeIntegration.obj
 0002:000094c0       __xmm@7fffffffffffffff7fffffffffffffff 00000001802084c0     GuCookingVolumeIntegration.obj
 0002:000094d0       __xmm@80000000000000008000000000000000 00000001802084d0     GuCookingVolumeIntegration.obj
 0002:000094e0       ??_7ConvexHullLib@physx@@6B@ 00000001802084e0     GuCookingQuickHullConvexHullLib.obj
 0002:00009500       ??_7QuickHullConvexHullLib@physx@@6B@ 0000000180208500     GuCookingQuickHullConvexHullLib.obj
 0002:00009520       ??_C@_0FA@JGIDAHDN@D?3?2PhysX?2physx?2source?2geomutils@ 0000000180208520     GuCookingQuickHullConvexHullLib.obj
 0002:00009570       ??_C@_0GA@EPPAEJPM@QuickHullConvexHullLib?3?3findSim@ 0000000180208570     GuCookingQuickHullConvexHullLib.obj
 0002:000095d0       ??_C@_0FB@NEBIJMML@QuickHullConvexHullLib?3?3findSim@ 00000001802085d0     GuCookingQuickHullConvexHullLib.obj
 0002:00009630       ??_C@_0FB@CLLCBEMM@QuickHullConvexHullLib?3?3findSim@ 0000000180208630     GuCookingQuickHullConvexHullLib.obj
 0002:00009684       __real@34c00000            0000000180208684     GuCookingQuickHullConvexHullLib.obj
 0002:00009688       ??_C@_0DP@PJBJBEGF@Meshmerizer?3?3extractHullPolygon@ 0000000180208688     GuCookingConvexPolygonsBuilder.obj
 0002:000096d0       ??_C@_0EP@FLCJIIP@D?3?2PhysX?2physx?2source?2geomutils@ 00000001802086d0     GuCookingConvexPolygonsBuilder.obj
 0002:00009720       ??_C@_0DL@IAFKOCCK@ConvexHullBuilder?3?5convex?5hull?5@ 0000000180208720     GuCookingConvexPolygonsBuilder.obj
 0002:00009760       ??_C@_0GF@OJLJHAMH@ConvexHullBuilder?3?3CreateTriang@ 0000000180208760     GuCookingConvexPolygonsBuilder.obj
 0002:000097f0       ??_C@_0DF@LLFJIJGM@Gu?3?3ConvexMesh?3?3loadFromDesc?3?5d@ 00000001802087f0     GuCookingConvexMeshBuilder.obj
 0002:00009830       ??_C@_0HK@JOGKIEAA@Gu?3?3ConvexMesh?3?5Mesh?5has?5a?5nega@ 0000000180208830     GuCookingConvexMeshBuilder.obj
 0002:000098b0       ??_C@_0DH@NJPPHFFD@Gu?3?3ConvexMesh?3?5Error?5computing@ 00000001802088b0     GuCookingConvexMeshBuilder.obj
 0002:000098e8       ??_C@_0DJ@LJDLGLDJ@Gu?3?3ConvexMesh?3?3loadConvexHull?3@ 00000001802088e8     GuCookingConvexMeshBuilder.obj
 0002:00009930       ??_C@_0HJ@KJANPPOE@ConvexMeshBuilder?3?3computeHullP@ 0000000180208930     GuCookingConvexMeshBuilder.obj
 0002:000099b0       ??_C@_0EL@MBNFEPAH@D?3?2PhysX?2physx?2source?2geomutils@ 00000001802089b0     GuCookingConvexMeshBuilder.obj
 0002:000099fc       ??_C@_06KDGGGLIJ@PxVec3@   00000001802089fc     GuCookingConvexMeshBuilder.obj
 0002:00009a04       ??_C@_05LMJPANIN@PxU32@    0000000180208a04     GuCookingConvexMeshBuilder.obj
 0002:00009a10       ??_C@_0O@JMAGMMGG@PxHullPolygon@ 0000000180208a10     GuCookingConvexMeshBuilder.obj
 0002:00009a20       __real@3f13cd3a            0000000180208a20     GuCookingConvexMeshBuilder.obj
 0002:00009a50       ??_C@_0EJ@PLHHBGHD@D?3?2PhysX?2physx?2source?2geomutils@ 0000000180208a50     GuCookingConvexHullUtils.obj
 0002:00009a9c       __real@3e20d97c            0000000180208a9c     GuCookingConvexHullUtils.obj
 0002:00009aa0       ??_C@_0EH@MMMOGDHN@D?3?2PhysX?2physx?2source?2geomutils@ 0000000180208aa0     GuCookingConvexHullLib.obj
 0002:00009af0       ??_C@_0JE@PABBNGEL@ConvexHullLib?3?3cleanupVertices?3@ 0000000180208af0     GuCookingConvexHullLib.obj
 0002:00009bb0       ??_C@_0EL@PHBOPFC@D?3?2PhysX?2physx?2source?2geomutils@ 0000000180208bb0     GuCookingConvexHullBuilder.obj
 0002:00009c00       ??_C@_0EB@DCEIFDGC@ConvexHullBuilder?3?3init?3?5convex@ 0000000180208c00     GuCookingConvexHullBuilder.obj
 0002:00009c50       ??_C@_0FM@KICBLCBH@Gu?3?3ConvexMesh?3?3checkHullPolygo@ 0000000180208c50     GuCookingConvexHullBuilder.obj
 0002:00009cb0       ??_C@_0GO@HBFIOGLL@Gu?3?3ConvexMesh?3?3checkHullPolygo@ 0000000180208cb0     GuCookingConvexHullBuilder.obj
 0002:00009d20       ??_C@_0HF@OLJFBIEL@ConvexHullBuilder?3?5convex?5hull?5@ 0000000180208d20     GuCookingConvexHullBuilder.obj
 0002:00009da0       ??_C@_0OG@JNHFOIL@ConvexHullBuilder?3?5convex?5hull?5@ 0000000180208da0     GuCookingConvexHullBuilder.obj
 0002:00009e90       ??_C@_0EJ@NIOIBAKH@Cooking?3?3cookConvexMesh?3?5non?9ma@ 0000000180208e90     GuCookingConvexHullBuilder.obj
 0002:00009f00       ??_C@_0EO@KCDGANNE@D?3?2PhysX?2physx?2source?2geomutils@ 0000000180208f00     GuCookingBigConvexDataBuilder.obj
 0002:00009f50       __real@437f0000            0000000180208f50     GuCookingSDF.obj
 0002:00009f54       __real@477fff00            0000000180208f54     GuCookingSDF.obj
 0002:00009f60       __sz_PhysXFoundation_64_dll 0000000180208f60     PhysXFoundation_64:PhysXFoundation_64.dll
 0002:00009f78       ??_C@_1BK@DBDEIDLH@?$AAK?$AAE?$AAR?$AAN?$AAE?$AAL?$AA3?$AA2?$AA?4?$AAD?$AAL?$AAL@ 0000000180208f78     Delayimp:delayhlp.obj
 0002:00009f98       ??_C@_0BI@OMNLIJDB@AcquireSRWLockExclusive@ 0000000180208f98     Delayimp:delayhlp.obj
 0002:00009fb0       ??_C@_0BI@HMIEPCNJ@ReleaseSRWLockExclusive@ 0000000180208fb0     Delayimp:delayhlp.obj
 0002:00009fc8       __pfnDliFailureHook2       0000000180208fc8     Delayimp:delayhk1.obj
 0002:00009fd0       __bChangeProtectionOfWholeDloadSection 0000000180208fd0     Delayimp:delaygv1.obj
 0002:00009fe0       ??_7type_info@@6B@         0000000180208fe0     LIBCMT:std_type_info_static.obj
 0002:0000a050       _pDefaultRawDllMain        0000000180209050     LIBCMT:dll_dllmain.obj
 0002:0000a050       _pRawDllMain               0000000180209050     LIBCMT:dll_dllmain.obj
 0002:0000a060       _load_config_used          0000000180209060     LIBCMT:loadcfg.obj
 0002:0000a1a0       _pDestructExceptionObject  00000001802091a0     libvcruntime:ehhelpers.obj
 0002:0000a8c0       ??_C@_08EHJDFFNH@__based?$CI@ 00000001802098c0     libvcruntime:undname.obj
 0002:0000a8d0       ??_C@_07KOLFKCDI@__cdecl@  00000001802098d0     libvcruntime:undname.obj
 0002:0000a8d8       ??_C@_09IFJBGAPI@__stdcall@ 00000001802098d8     libvcruntime:undname.obj
 0002:0000a8e8       ??_C@_0L@NPHFGOKO@__thiscall@ 00000001802098e8     libvcruntime:undname.obj
 0002:0000a8f8       ??_C@_0L@JMKHOMEK@__fastcall@ 00000001802098f8     libvcruntime:undname.obj
 0002:0000a908       ??_C@_0N@BCKKPABJ@__vectorcall@ 0000000180209908     libvcruntime:undname.obj
 0002:0000a918       ??_C@_0BA@NAGGFLJK@__preserve_none@ 0000000180209918     libvcruntime:undname.obj
 0002:0000a928       ??_C@_09HIJEGCPM@__clrcall@ 0000000180209928     libvcruntime:undname.obj
 0002:0000a934       ??_C@_06GHPCKEAG@__eabi@   0000000180209934     libvcruntime:undname.obj
 0002:0000a940       ??_C@_09IOPIDJLG@__swift_1@ 0000000180209940     libvcruntime:undname.obj
 0002:0000a950       ??_C@_09KFNFGKHF@__swift_2@ 0000000180209950     libvcruntime:undname.obj
 0002:0000a960       ??_C@_09LMMOFLDE@__swift_3@ 0000000180209960     libvcruntime:undname.obj
 0002:0000a970       ??_C@_07JOMMBBKO@__ptr64@  0000000180209970     libvcruntime:undname.obj
 0002:0000a978       ??_C@_0L@PILCLIHE@__restrict@ 0000000180209978     libvcruntime:undname.obj
 0002:0000a988       ??_C@_0M@GFIIJFMG@__unaligned@ 0000000180209988     libvcruntime:undname.obj
 0002:0000a998       ??_C@_09DHDLOLLB@restrict?$CI@ 0000000180209998     libvcruntime:undname.obj
 0002:0000a9a4       ??_C@_04NIHEBCM@?5new@     00000001802099a4     libvcruntime:undname.obj
 0002:0000a9b0       ??_C@_07FPCDHGMM@?5delete@ 00000001802099b0     libvcruntime:undname.obj
 0002:0000a9b8       ??_C@_01NEMOKFLO@?$DN@     00000001802099b8     libvcruntime:undname.obj
 0002:0000a9bc       ??_C@_02GPIOPFAK@?$DO?$DO@ 00000001802099bc     libvcruntime:undname.obj
 0002:0000a9c0       ??_C@_02FODMEDOG@?$DM?$DM@ 00000001802099c0     libvcruntime:undname.obj
 0002:0000a9c4       ??_C@_01DCLJPIOD@?$CB@     00000001802099c4     libvcruntime:undname.obj
 0002:0000a9c8       ??_C@_02EGOFBIJA@?$DN?$DN@ 00000001802099c8     libvcruntime:undname.obj
 0002:0000a9cc       ??_C@_02FDNJECIE@?$CB?$DN@ 00000001802099cc     libvcruntime:undname.obj
 0002:0000a9d0       ??_C@_02GPECMEKF@?$FL?$FN@ 00000001802099d0     libvcruntime:undname.obj
 0002:0000a9d8       ??_C@_08LHJFAFGD@operator@ 00000001802099d8     libvcruntime:undname.obj
 0002:0000a9e4       ??_C@_02HBOOOICD@?9?$DO@   00000001802099e4     libvcruntime:undname.obj
 0002:0000a9e8       ??_C@_01NBENCBCI@?$CK@     00000001802099e8     libvcruntime:undname.obj
 0002:0000a9ec       ??_C@_02ECNGHCIF@?$CL?$CL@ 00000001802099ec     libvcruntime:undname.obj
 0002:0000a9f0       ??_C@_02BAABKJLB@?9?9@     00000001802099f0     libvcruntime:undname.obj
 0002:0000a9f4       ??_C@_01JOAMLHOP@?9@       00000001802099f4     libvcruntime:undname.obj
 0002:0000a9f8       ??_C@_01MIFGBAGJ@?$CL@     00000001802099f8     libvcruntime:undname.obj
 0002:0000a9fc       ??_C@_01HNPIGOCE@?$CG@     00000001802099fc     libvcruntime:undname.obj
 0002:0000aa00       ??_C@_03MNHNFDLC@?9?$DO?$CK@ 0000000180209a00     libvcruntime:undname.obj
 0002:0000aa04       ??_C@_01KMDKNFGN@?1@       0000000180209a04     libvcruntime:undname.obj
 0002:0000aa08       ??_C@_01FGNFDNOH@?$CF@     0000000180209a08     libvcruntime:undname.obj
 0002:0000aa0c       ??_C@_01MNNFJEPP@?$DM@     0000000180209a0c     libvcruntime:undname.obj
 0002:0000aa10       ??_C@_02EHCHHCKH@?$DM?$DN@ 0000000180209a10     libvcruntime:undname.obj
 0002:0000aa14       ??_C@_01PPODPGHN@?$DO@     0000000180209a14     libvcruntime:undname.obj
 0002:0000aa18       ??_C@_02EEKDKGMJ@?$DO?$DN@ 0000000180209a18     libvcruntime:undname.obj
 0002:0000aa1c       ??_C@_01IHBHIGKO@?0@       0000000180209a1c     libvcruntime:undname.obj
 0002:0000aa20       ??_C@_02HCKGKOFO@?$CI?$CJ@ 0000000180209a20     libvcruntime:undname.obj
 0002:0000aa24       ??_C@_01PJKLJHI@?$HO@      0000000180209a24     libvcruntime:undname.obj
 0002:0000aa28       ??_C@_01JKBOJNNK@?$FO@     0000000180209a28     libvcruntime:undname.obj
 0002:0000aa2c       ??_C@_01DNKMNLPK@?$HM@     0000000180209a2c     libvcruntime:undname.obj
 0002:0000aa30       ??_C@_02PPKAJPJL@?$CG?$CG@ 0000000180209a30     libvcruntime:undname.obj
 0002:0000aa34       ??_C@_02NONPIBCD@?$HM?$HM@ 0000000180209a34     libvcruntime:undname.obj
 0002:0000aa38       ??_C@_02FPIMKNGF@?$CK?$DN@ 0000000180209a38     libvcruntime:undname.obj
 0002:0000aa3c       ??_C@_02FOEOMHFC@?$CL?$DN@ 0000000180209a3c     libvcruntime:undname.obj
 0002:0000aa40       ??_C@_02FKMDLLOA@?9?$DN@   0000000180209a40     libvcruntime:undname.obj
 0002:0000aa44       ??_C@_02FJEHGPIO@?1?$DN@   0000000180209a44     libvcruntime:undname.obj
 0002:0000aa48       ??_C@_02FENAOKFI@?$CF?$DN@ 0000000180209a48     libvcruntime:undname.obj
 0002:0000aa4c       ??_C@_03IKFCCPFF@?$DO?$DO?$DN@ 0000000180209a4c     libvcruntime:undname.obj
 0002:0000aa50       ??_C@_03CDNPDDLA@?$DM?$DM?$DN@ 0000000180209a50     libvcruntime:undname.obj
 0002:0000aa54       ??_C@_02FGJGFEAB@?$CG?$DN@ 0000000180209a54     libvcruntime:undname.obj
 0002:0000aa58       ??_C@_02DHLNPPGH@?$HM?$DN@ 0000000180209a58     libvcruntime:undname.obj
 0002:0000aa5c       ??_C@_02MHEGNOJ@?$FO?$DN@  0000000180209a5c     libvcruntime:undname.obj
 0002:0000aa60       ??_C@_09IFPLHPGF@?$GAvftable?8@ 0000000180209a60     libvcruntime:undname.obj
 0002:0000aa70       ??_C@_09BLBHBJP@?$GAvbtable?8@ 0000000180209a70     libvcruntime:undname.obj
 0002:0000aa80       ??_C@_07FEEIOKP@?$GAvcall?8@ 0000000180209a80     libvcruntime:undname.obj
 0002:0000aa88       ??_C@_08LLFFHHDJ@?$GAtypeof?8@ 0000000180209a88     libvcruntime:undname.obj
 0002:0000aa98       ??_C@_0BF@KDPPACIK@?$GAlocal?5static?5guard?8@ 0000000180209a98     libvcruntime:undname.obj
 0002:0000aab0       ??_C@_08OBABFOLI@?$GAstring?8@ 0000000180209ab0     libvcruntime:undname.obj
 0002:0000aac0       ??_C@_0BD@JDLKDPAB@?$GAvbase?5destructor?8@ 0000000180209ac0     libvcruntime:undname.obj
 0002:0000aad8       ??_C@_0BN@DEGPLNFK@?$GAvector?5deleting?5destructor?8@ 0000000180209ad8     libvcruntime:undname.obj
 0002:0000aaf8       ??_C@_0BO@OBMKPJIG@?$GAdefault?5constructor?5closure?8@ 0000000180209af8     libvcruntime:undname.obj
 0002:0000ab18       ??_C@_0BN@IMDCHIKM@?$GAscalar?5deleting?5destructor?8@ 0000000180209b18     libvcruntime:undname.obj
 0002:0000ab38       ??_C@_0BO@PFGOCPJJ@?$GAvector?5constructor?5iterator?8@ 0000000180209b38     libvcruntime:undname.obj
 0002:0000ab58       ??_C@_0BN@LFPFMEDL@?$GAvector?5destructor?5iterator?8@ 0000000180209b58     libvcruntime:undname.obj
 0002:0000ab78       ??_C@_0CE@IKBNEHA@?$GAvector?5vbase?5constructor?5itera@ 0000000180209b78     libvcruntime:undname.obj
 0002:0000aba0       ??_C@_0BL@NILFHHPC@?$GAvirtual?5displacement?5map?8@ 0000000180209ba0     libvcruntime:undname.obj
 0002:0000abc0       ??_C@_0CB@JONCMFFK@?$GAeh?5vector?5constructor?5iterator@ 0000000180209bc0     libvcruntime:undname.obj
 0002:0000abe8       ??_C@_0CA@GCEOPDGL@?$GAeh?5vector?5destructor?5iterator?8@ 0000000180209be8     libvcruntime:undname.obj
 0002:0000ac08       ??_C@_0CH@OOJPLCPH@?$GAeh?5vector?5vbase?5constructor?5it@ 0000000180209c08     libvcruntime:undname.obj
 0002:0000ac30       ??_C@_0BL@LLKPOHJI@?$GAcopy?5constructor?5closure?8@ 0000000180209c30     libvcruntime:undname.obj
 0002:0000ac50       ??_C@_0BA@KBCDOMBN@?$GAudt?5returning?8@ 0000000180209c50     libvcruntime:undname.obj
 0002:0000ac60       ??_C@_03KLGMFNMG@?$GAEH@   0000000180209c60     libvcruntime:undname.obj
 0002:0000ac64       ??_C@_05KHLCHHI@?$GARTTI@  0000000180209c64     libvcruntime:undname.obj
 0002:0000ac70       ??_C@_0BA@KKLDJDLB@?$GAlocal?5vftable?8@ 0000000180209c70     libvcruntime:undname.obj
 0002:0000ac80       ??_C@_0CE@IIHCMGGL@?$GAlocal?5vftable?5constructor?5clos@ 0000000180209c80     libvcruntime:undname.obj
 0002:0000aca4       ??_C@_06FHBGPFGH@?5new?$FL?$FN@ 0000000180209ca4     libvcruntime:undname.obj
 0002:0000acb0       ??_C@_09LBNFPBCA@?5delete?$FL?$FN@ 0000000180209cb0     libvcruntime:undname.obj
 0002:0000acc0       ??_C@_0P@HJKNJFNN@?$GAomni?5callsig?8@ 0000000180209cc0     libvcruntime:undname.obj
 0002:0000acd0       ??_C@_0BL@CNOONJFP@?$GAplacement?5delete?5closure?8@ 0000000180209cd0     libvcruntime:undname.obj
 0002:0000acf0       ??_C@_0BN@CKNJLHMB@?$GAplacement?5delete?$FL?$FN?5closure?8@ 0000000180209cf0     libvcruntime:undname.obj
 0002:0000ad10       ??_C@_0CG@CFDHKGGD@?$GAmanaged?5vector?5constructor?5ite@ 0000000180209d10     libvcruntime:undname.obj
 0002:0000ad38       ??_C@_0CF@IMGKMJNO@?$GAmanaged?5vector?5destructor?5iter@ 0000000180209d38     libvcruntime:undname.obj
 0002:0000ad60       ??_C@_0CG@HLDDJMAG@?$GAeh?5vector?5copy?5constructor?5ite@ 0000000180209d60     libvcruntime:undname.obj
 0002:0000ad88       ??_C@_0CM@FCBBDIGB@?$GAeh?5vector?5vbase?5copy?5construct@ 0000000180209d88     libvcruntime:undname.obj
 0002:0000adb8       ??_C@_0BL@CLIPGLGB@?$GAdynamic?5initializer?5for?5?8@ 0000000180209db8     libvcruntime:undname.obj
 0002:0000add8       ??_C@_0CB@PDBIFEP@?$GAdynamic?5atexit?5destructor?5for?5@ 0000000180209dd8     libvcruntime:undname.obj
 0002:0000ae00       ??_C@_0CD@CGAJBKEJ@?$GAvector?5copy?5constructor?5iterat@ 0000000180209e00     libvcruntime:undname.obj
 0002:0000ae28       ??_C@_0CJ@GJELGAMM@?$GAvector?5vbase?5copy?5constructor?5@ 0000000180209e28     libvcruntime:undname.obj
 0002:0000ae58       ??_C@_0CL@FGIJHLCE@?$GAmanaged?5vector?5copy?5constructo@ 0000000180209e58     libvcruntime:undname.obj
 0002:0000ae88       ??_C@_0BM@PMGGMLDN@?$GAlocal?5static?5thread?5guard?8@ 0000000180209e88     libvcruntime:undname.obj
 0002:0000aea8       ??_C@_0N@BDNMDMOL@operator?5?$CC?$CC?5@ 0000000180209ea8     libvcruntime:undname.obj
 0002:0000aeb8       ??_C@_0BC@GGEBGALA@operator?5co_await@ 0000000180209eb8     libvcruntime:undname.obj
 0002:0000aed0       ??_C@_0M@GAAIMMOH@operator?$DM?$DN?$DO@ 0000000180209ed0     libvcruntime:undname.obj
 0002:0000aee0       ??_C@_0BC@DAFEJGAK@?5Type?5Descriptor?8@ 0000000180209ee0     libvcruntime:undname.obj
 0002:0000aef8       ??_C@_0BM@LDKODKLH@?5Base?5Class?5Descriptor?5at?5?$CI@ 0000000180209ef8     libvcruntime:undname.obj
 0002:0000af18       ??_C@_0BD@LGICGFMM@?5Base?5Class?5Array?8@ 0000000180209f18     libvcruntime:undname.obj
 0002:0000af30       ??_C@_0BN@MECKDCOJ@?5Class?5Hierarchy?5Descriptor?8@ 0000000180209f30     libvcruntime:undname.obj
 0002:0000af50       ??_C@_0BK@CFCOFLF@?5Complete?5Object?5Locator?8@ 0000000180209f50     libvcruntime:undname.obj
 0002:0000af70       ??_C@_0BG@JNJLAMPM@?$GAanonymous?5namespace?8@ 0000000180209f70     libvcruntime:undname.obj
 0002:0000af88       ??_C@_04HEJADOOB@CV?3?5@   0000000180209f88     libvcruntime:undname.obj
 0002:0000af90       ??_C@_02MOLJINC@?3?3@      0000000180209f90     libvcruntime:undname.obj
 0002:0000af98       ??_C@_0BE@JAEOCHPE@template?9parameter?9@ 0000000180209f98     libvcruntime:undname.obj
 0002:0000afb0       ??_C@_0BF@LNLGBBNL@?$GAtemplate?9parameter?9@ 0000000180209fb0     libvcruntime:undname.obj
 0002:0000afc8       ??_C@_0O@KHGCOMHP@generic?9type?9@ 0000000180209fc8     libvcruntime:undname.obj
 0002:0000afd8       ??_C@_0P@ODDENDLM@?$GAgeneric?9type?9@ 0000000180209fd8     libvcruntime:undname.obj
 0002:0000afe8       ??_C@_02OHHJMEON@?8?8@     0000000180209fe8     libvcruntime:undname.obj
 0002:0000aff0       ??_C@_0BN@IBLMMFAP@?$GAnon?9type?9template?9parameter@ 0000000180209ff0     libvcruntime:undname.obj
 0002:0000b010       ??_C@_03DLDNIBIK@?$CFlf@   000000018020a010     libvcruntime:undname.obj
 0002:0000b014       ??_C@_04OFALKAJ@?$DP?$DP_C@ 000000018020a014     libvcruntime:undname.obj
 0002:0000b01c       ??_C@_03KHICJKCI@?4?4?4@   000000018020a01c     libvcruntime:undname.obj
 0002:0000b020       ??_C@_04HIBGFPH@NULL@      000000018020a020     libvcruntime:undname.obj
 0002:0000b028       ??_C@_02DPKJAMEF@?$CFd@    000000018020a028     libvcruntime:undname.obj
 0002:0000b030       ??_C@_0BK@IHCCFNEL@?$GAtemplate?9type?9parameter?9@ 000000018020a030     libvcruntime:undname.obj
 0002:0000b050       ??_C@_0BK@OFCNNNKO@?$GAgeneric?9class?9parameter?9@ 000000018020a050     libvcruntime:undname.obj
 0002:0000b070       ??_C@_0BL@NGJBLFIL@?$GAgeneric?9method?9parameter?9@ 000000018020a070     libvcruntime:undname.obj
 0002:0000b090       ??_C@_07OHNGEDJK@nullptr@  000000018020a090     libvcruntime:undname.obj
 0002:0000b098       ??_C@_06COJIGPIB@lambda@   000000018020a098     libvcruntime:undname.obj
 0002:0000b0a0       ??_C@_04GKJNKENE@void@     000000018020a0a0     libvcruntime:undname.obj
 0002:0000b0a8       ??_C@_0BE@EODMJLIF@?$GAtemplate?9parameter@ 000000018020a0a8     libvcruntime:undname.obj
 0002:0000b0bc       ??_C@_03OPGICMGF@?$HN?8?5@ 000000018020a0bc     libvcruntime:undname.obj
 0002:0000b0c0       ??_C@_02IGFCGPIL@?$HN?8@   000000018020a0c0     libvcruntime:undname.obj
 0002:0000b0c8       ??_C@_0N@CBHHHENL@?$GAvtordispex?$HL@ 000000018020a0c8     libvcruntime:undname.obj
 0002:0000b0d8       ??_C@_0L@GHPFDFH@?$GAvtordisp?$HL@ 000000018020a0d8     libvcruntime:undname.obj
 0002:0000b0e8       ??_C@_0L@HNGCOGAE@?$GAadjustor?$HL@ 000000018020a0e8     libvcruntime:undname.obj
 0002:0000b0f8       ??_C@_0CB@KJDOOODE@?$GAlocal?5static?5destructor?5helper@ 000000018020a0f8     libvcruntime:undname.obj
 0002:0000b120       ??_C@_0DB@ILEFOCIJ@?$GAtemplate?5static?5data?5member?5co@ 000000018020a120     libvcruntime:undname.obj
 0002:0000b158       ??_C@_0DA@HGFJFBBE@?$GAtemplate?5static?5data?5member?5de@ 000000018020a158     libvcruntime:undname.obj
 0002:0000b188       ??_C@_07PGOEDBHP@static?5@ 000000018020a188     libvcruntime:undname.obj
 0002:0000b190       ??_C@_08NIEOINHE@virtual?5@ 000000018020a190     libvcruntime:undname.obj
 0002:0000b1a0       ??_C@_09LAPHOOG@private?3?5@ 000000018020a1a0     libvcruntime:undname.obj
 0002:0000b1b0       ??_C@_0M@GAIFPFIP@protected?3?5@ 000000018020a1b0     libvcruntime:undname.obj
 0002:0000b1c0       ??_C@_08GPDDCMKI@public?3?5@ 000000018020a1c0     libvcruntime:undname.obj
 0002:0000b1d0       ??_C@_08KJLFOPNE@?$FLthunk?$FN?3@ 000000018020a1d0     libvcruntime:undname.obj
 0002:0000b1e0       ??_C@_0M@DHNBOJMP@extern?5?$CCC?$CC?5@ 000000018020a1e0     libvcruntime:undname.obj
 0002:0000b1ec       ??_C@_02KCKGHPCA@?$CJ?5@   000000018020a1ec     libvcruntime:undname.obj
 0002:0000b1f0       ??_C@_05CIHEBHNO@char?5@   000000018020a1f0     libvcruntime:undname.obj
 0002:0000b1f8       ??_C@_06EHJMALKF@short?5@  000000018020a1f8     libvcruntime:undname.obj
 0002:0000b200       ??_C@_04LAHKHJMA@int?5@    000000018020a200     libvcruntime:undname.obj
 0002:0000b208       ??_C@_05CJIMAING@long?5@   000000018020a208     libvcruntime:undname.obj
 0002:0000b210       ??_C@_09EBBEKKIH@unsigned?5@ 000000018020a210     libvcruntime:undname.obj
